 sproxy

 Timestamp is 58c99057 (Wed Mar 15 20:04:55 2017)

 Preferred load address is 00400000

 Start         Length     Name                   Class
 0001:00000000 0001f680H .text$di                CODE
 0001:0001f680 00127590H .text$mn                CODE
 0001:00146c10 000057b0H .text$x                 CODE
 0001:0014c3c0 000021b2H .text$yd                CODE
 0002:00000000 00000104H .CRT$XCA                DATA
 0002:00000104 00000104H .CRT$XCAA               DATA
 0002:00000208 00000104H .CRT$XCL                DATA
 0002:0000030c 000001a0H .CRT$XCU                DATA
 0002:000004ac 00000104H .CRT$XCZ                DATA
 0002:000005b0 00000104H .CRT$XIA                DATA
 0002:000006b4 00000104H .CRT$XIAA               DATA
 0002:000007b8 00000104H .CRT$XIAC               DATA
 0002:000008bc 00000114H .CRT$XIC                DATA
 0002:000009d0 00000104H .CRT$XIZ                DATA
 0002:00000ad4 00000004H .CRT$XLA                DATA
 0002:00000ad8 00000004H .CRT$XLZ                DATA
 0002:00000adc 00000104H .CRT$XPA                DATA
 0002:00000be0 0000010cH .CRT$XPX                DATA
 0002:00000cec 00000104H .CRT$XPXA               DATA
 0002:00000df0 00000104H .CRT$XPZ                DATA
 0002:00000ef4 00000104H .CRT$XTA                DATA
 0002:00000ff8 00000108H .CRT$XTZ                DATA
 0002:00001100 00033100H .rdata                  DATA
 0002:00034200 0000011cH .rdata$T                DATA
 0002:0003431c 000023f4H .rdata$r                DATA
 0002:00036710 0000065cH .rdata$sxdata           DATA
 0002:00036d6c 0000018cH .rdata$zzzdbg           DATA
 0002:00036ef8 00000104H .rtc$IAA                DATA
 0002:00036ffc 00000104H .rtc$IZZ                DATA
 0002:00037100 00000104H .rtc$TAA                DATA
 0002:00037204 00000104H .rtc$TZZ                DATA
 0002:00037308 00005ffcH .xdata$x                DATA
 0002:0003d304 00000104H ATL$__a                 DATA
 0002:0003d408 00000104H ATL$__z                 DATA
 0002:0003d50c 00000104H ATLS$A                  DATA
 0002:0003d610 00000104H ATLS$Z                  DATA
 0002:0003d714 00000000H .edata                  DATA
 0003:00000000 00005aa8H .data                   DATA
 0003:00005aa8 00000fb0H .data$r                 DATA
 0003:00006a58 00004d5cH .bss                    DATA
 0004:00000000 00000460H .idata$5                DATA
 0004:00000460 000000b4H .idata$2                DATA
 0004:00000514 00000014H .idata$3                DATA
 0004:00000528 00000460H .idata$4                DATA
 0004:00000988 00000d6bH .idata$6                DATA
 0005:00000000 00000104H .tls                    DATA
 0005:00000104 00000104H .tls$                   DATA
 0005:00000208 00000101H .tls$ZZZ                DATA
 0006:00000000 00000104H .00cfg                  DATA
 0007:00000000 00000330H .rsrc$01                DATA
 0007:00000330 000087e3H .rsrc$02                DATA

  Address         Publics by Value              Rva+Base       Lib:Object

 0000:00000000       __except_list              00000000     <absolute>
 0000:00000000       ___guard_fids_table        00000000     <absolute>
 0000:00000000       ___dynamic_value_reloc_table 00000000     <absolute>
 0000:00000000       ___guard_iat_count         00000000     <absolute>
 0000:00000000       ___guard_fids_count        00000000     <absolute>
 0000:00000000       ___guard_iat_table         00000000     <absolute>
 0000:00000000       ___guard_longjmp_table     00000000     <absolute>
 0000:00000000       ___guard_longjmp_count     00000000     <absolute>
 0000:0000002c       __tls_array                0000002c     <absolute>
 0000:00000100       ___guard_flags             00000100     <absolute>
 0000:0000011e       ___safe_se_handler_count   0000011e     <absolute>
 0000:00000000       ___ImageBase               00400000     <linker-defined>
 0001:0001f680       ??$AtlAdd@H@ATL@@YAJPAHHH@Z 00420680 f i AttributeParser.obj
 0001:0001f6d0       ??$AtlAdd@I@ATL@@YAJPAIII@Z 004206d0 f i AttributeParser.obj
 0001:0001f720       ??$AtlAdd@K@ATL@@YAJPAKKK@Z 00420720 f i AttributeParser.obj
 0001:0001f770       ??$AtlAlignUp@H@ATL@@YGHHK@Z 00420770 f i AttributeParser.obj
 0001:0001f7a0       ??$AtlMultiply@I@ATL@@YAJPAIII@Z 004207a0 f i AttributeParser.obj
 0001:0001f800       ??$AtlMultiply@K@ATL@@YAJPAKKK@Z 00420800 f i AttributeParser.obj
 0001:0001f860       ??$__vcrt_va_start_verify_argument_type@PBD@@YAXXZ 00420860 f i AttributeParser.obj
 0001:0001f880       ??$__vcrt_va_start_verify_argument_type@QB_W@@YAXXZ 00420880 f i AttributeParser.obj
 0001:0001f8a0       ??0?$CAtlList@PAVCParserBase@@V?$CElementTraits@PAVCParserBase@@@ATL@@@ATL@@QAE@I@Z 004208a0 f i AttributeParser.obj
 0001:0001f940       ??0?$CAtlPtrList@PAVCParserBase@@V?$CElementTraits@PAVCParserBase@@@ATL@@@@QAE@XZ 00420940 f i AttributeParser.obj
 0001:0001f980       ??0?$CHeapPtr@DVCCRTAllocator@ATL@@@ATL@@QAE@XZ 00420980 f i AttributeParser.obj
 0001:0001f9b0       ??0?$CHeapPtr@_WVCCRTAllocator@ATL@@@ATL@@QAE@XZ 004209b0 f i AttributeParser.obj
 0001:0001f9e0       ??0?$CHeapPtrBase@DVCCRTAllocator@ATL@@@ATL@@IAE@XZ 004209e0 f i AttributeParser.obj
 0001:0001fa10       ??0?$CHeapPtrBase@_WVCCRTAllocator@ATL@@@ATL@@IAE@XZ 00420a10 f i AttributeParser.obj
 0001:0001fa40       ??0?$CSimpleArray@GV?$CSimpleArrayEqualHelper@G@ATL@@@ATL@@QAE@XZ 00420a40 f i AttributeParser.obj
 0001:0001fa80       ??0?$CTraceCategoryEx@$00$0A@@ATL@@QAE@PBD@Z 00420a80 f i AttributeParser.obj
 0001:0001fab0       ??0?$CTraceCategoryEx@$01$0A@@ATL@@QAE@PBD@Z 00420ab0 f i AttributeParser.obj
 0001:0001fae0       ??0?$CTraceCategoryEx@$03$0A@@ATL@@QAE@PBD@Z 00420ae0 f i AttributeParser.obj
 0001:0001fb10       ??0?$CTraceCategoryEx@$07$0A@@ATL@@QAE@PBD@Z 00420b10 f i AttributeParser.obj
 0001:0001fb40       ??0?$CTraceCategoryEx@$0BA@$0A@@ATL@@QAE@PBD@Z 00420b40 f i AttributeParser.obj
 0001:0001fb70       ??0?$CTraceCategoryEx@$0BAA@$0A@@ATL@@QAE@PBD@Z 00420b70 f i AttributeParser.obj
 0001:0001fbb0       ??0?$CTraceCategoryEx@$0BAAA@$0A@@ATL@@QAE@PBD@Z 00420bb0 f i AttributeParser.obj
 0001:0001fbf0       ??0?$CTraceCategoryEx@$0BAAAA@$0A@@ATL@@QAE@PBD@Z 00420bf0 f i AttributeParser.obj
 0001:0001fc30       ??0?$CTraceCategoryEx@$0BAAAAA@$0A@@ATL@@QAE@PBD@Z 00420c30 f i AttributeParser.obj
 0001:0001fc70       ??0?$CTraceCategoryEx@$0CA@$0A@@ATL@@QAE@PBD@Z 00420c70 f i AttributeParser.obj
 0001:0001fca0       ??0?$CTraceCategoryEx@$0CAA@$0A@@ATL@@QAE@PBD@Z 00420ca0 f i AttributeParser.obj
 0001:0001fce0       ??0?$CTraceCategoryEx@$0CAAA@$0A@@ATL@@QAE@PBD@Z 00420ce0 f i AttributeParser.obj
 0001:0001fd20       ??0?$CTraceCategoryEx@$0CAAAA@$0A@@ATL@@QAE@PBD@Z 00420d20 f i AttributeParser.obj
 0001:0001fd60       ??0?$CTraceCategoryEx@$0CAAAAA@$0A@@ATL@@QAE@PBD@Z 00420d60 f i AttributeParser.obj
 0001:0001fda0       ??0?$CTraceCategoryEx@$0EA@$0A@@ATL@@QAE@PBD@Z 00420da0 f i AttributeParser.obj
 0001:0001fdd0       ??0?$CTraceCategoryEx@$0EAA@$0A@@ATL@@QAE@PBD@Z 00420dd0 f i AttributeParser.obj
 0001:0001fe10       ??0?$CTraceCategoryEx@$0EAAA@$0A@@ATL@@QAE@PBD@Z 00420e10 f i AttributeParser.obj
 0001:0001fe50       ??0?$CTraceCategoryEx@$0EAAAA@$0A@@ATL@@QAE@PBD@Z 00420e50 f i AttributeParser.obj
 0001:0001fe90       ??0?$CTraceCategoryEx@$0EAAAAA@$0A@@ATL@@QAE@PBD@Z 00420e90 f i AttributeParser.obj
 0001:0001fed0       ??0?$CTraceCategoryEx@$0IA@$0A@@ATL@@QAE@PBD@Z 00420ed0 f i AttributeParser.obj
 0001:0001ff10       ??0?$CTraceCategoryEx@$0IAA@$0A@@ATL@@QAE@PBD@Z 00420f10 f i AttributeParser.obj
 0001:0001ff50       ??0?$CTraceCategoryEx@$0IAAA@$0A@@ATL@@QAE@PBD@Z 00420f50 f i AttributeParser.obj
 0001:0001ff90       ??0?$CTraceCategoryEx@$0IAAAA@$0A@@ATL@@QAE@PBD@Z 00420f90 f i AttributeParser.obj
 0001:0001ffd0       ??0CAtlComModule@ATL@@QAE@XZ 00420fd0 f i AttributeParser.obj
 0001:000200c0       ??0CAtlException@ATL@@QAE@J@Z 004210c0 f i AttributeParser.obj
 0001:000200f0       ??0CAtlStringMgr@ATL@@QAE@PAUIAtlMemMgr@1@@Z 004210f0 f i AttributeParser.obj
 0001:00020150       ??0CAtlWinModule@ATL@@QAE@XZ 00421150 f i AttributeParser.obj
 0001:000201e0       ??0CCRTHeap@ATL@@QAE@XZ    004211e0 f i AttributeParser.obj
 0001:00020210       ??0CComCriticalSection@ATL@@QAE@XZ 00421210 f i AttributeParser.obj
 0001:00020240       ??0CNilStringData@ATL@@QAE@XZ 00421240 f i AttributeParser.obj
 0001:000202c0       ??0CPreserveLastError@ATL@@QAE@XZ 004212c0 f i AttributeParser.obj
 0001:000202f0       ??0CTraceFileAndLineInfo@ATL@@QAE@PBDH@Z 004212f0 f i AttributeParser.obj
 0001:00020330       ??0CWin32Heap@ATL@@QAE@PAX@Z 00421330 f i AttributeParser.obj
 0001:000203a0       ??0_ATL_COM_MODULE70@ATL@@QAE@XZ 004213a0 f i AttributeParser.obj
 0001:000203d0       ??0_ATL_WIN_MODULE70@ATL@@QAE@XZ 004213d0 f i AttributeParser.obj
 0001:00020450       ??0_AtlWSAInit@ATL@@QAE@XZ 00421450 f i AttributeParser.obj
 0001:00020480       ??1?$CAtlList@PAVCParserBase@@V?$CElementTraits@PAVCParserBase@@@ATL@@@ATL@@QAE@XZ 00421480 f i AttributeParser.obj
 0001:000204f0       ??1?$CAtlPtrList@PAVCParserBase@@V?$CElementTraits@PAVCParserBase@@@ATL@@@@QAE@XZ 004214f0 f i AttributeParser.obj
 0001:00020550       ??1?$CHeapPtr@DVCCRTAllocator@ATL@@@ATL@@QAE@XZ 00421550 f i AttributeParser.obj
 0001:00020580       ??1?$CHeapPtr@_WVCCRTAllocator@ATL@@@ATL@@QAE@XZ 00421580 f i AttributeParser.obj
 0001:000205b0       ??1?$CHeapPtrBase@DVCCRTAllocator@ATL@@@ATL@@QAE@XZ 004215b0 f i AttributeParser.obj
 0001:000205e0       ??1?$CHeapPtrBase@_WVCCRTAllocator@ATL@@@ATL@@QAE@XZ 004215e0 f i AttributeParser.obj
 0001:00020610       ??1?$CSimpleArray@GV?$CSimpleArrayEqualHelper@G@ATL@@@ATL@@QAE@XZ 00421610 f i AttributeParser.obj
 0001:00020670       ??1CAtlComModule@ATL@@QAE@XZ 00421670 f i AttributeParser.obj
 0001:000206d0       ??1CAtlStringMgr@ATL@@UAE@XZ 004216d0 f i AttributeParser.obj
 0001:00020700       ??1CAtlWinModule@ATL@@QAE@XZ 00421700 f i AttributeParser.obj
 0001:00020760       ??1CComBSTR@ATL@@QAE@XZ    00421760 f i AttributeParser.obj
 0001:00020790       ??1CComCriticalSection@ATL@@QAE@XZ 00421790 f i AttributeParser.obj
 0001:000207b0       ??1CNode@?$CAtlList@PAVCParserBase@@V?$CElementTraits@PAVCParserBase@@@ATL@@@ATL@@QAE@XZ 004217b0 f i AttributeParser.obj
 0001:000207d0       ??1CPreserveLastError@ATL@@QAE@XZ 004217d0 f i AttributeParser.obj
 0001:00020800       ??1CWin32Heap@ATL@@UAE@XZ  00421800 f i AttributeParser.obj
 0001:00020890       ??1_ATL_COM_MODULE70@ATL@@QAE@XZ 00421890 f i AttributeParser.obj
 0001:000208c0       ??1_ATL_WIN_MODULE70@ATL@@QAE@XZ 004218c0 f i AttributeParser.obj
 0001:00020900       ??1_AtlWSAInit@ATL@@QAE@XZ 00421900 f i AttributeParser.obj
 0001:00020930       ??1stringdispid@CComTypeInfoHolder@ATL@@QAE@XZ 00421930 f i AttributeParser.obj
 0001:00020960       ??A?$CSimpleArray@GV?$CSimpleArrayEqualHelper@G@ATL@@@ATL@@QAEAAGH@Z 00421960 f i AttributeParser.obj
 0001:00020a00       ??B?$CHeapPtrBase@DVCCRTAllocator@ATL@@@ATL@@QBEPADXZ 00421a00 f i AttributeParser.obj
 0001:00020a20       ??B?$CHeapPtrBase@_WVCCRTAllocator@ATL@@@ATL@@QBEPA_WXZ 00421a20 f i AttributeParser.obj
 0001:00020a40       ??B?$CTraceCategoryEx@$00$0A@@ATL@@QAEIXZ 00421a40 f i AttributeParser.obj
 0001:00020a60       ??B?$CTraceCategoryEx@$01$0A@@ATL@@QAEIXZ 00421a60 f i AttributeParser.obj
 0001:00020a80       ??B?$CTraceCategoryEx@$0CA@$0A@@ATL@@QAEIXZ 00421a80 f i AttributeParser.obj
 0001:00020aa0       ??B?$CTraceCategoryEx@$0CAAA@$0A@@ATL@@QAEIXZ 00421aa0 f i AttributeParser.obj
 0001:00020ac0       ??RCTraceFileAndLineInfo@ATL@@QBAXHIPBDZZ 00421ac0 f i AttributeParser.obj
 0001:00020b80       ??RCTraceFileAndLineInfo@ATL@@QBAXPBDZZ 00421b80 f i AttributeParser.obj
 0001:00020c40       ??_Estringdispid@CComTypeInfoHolder@ATL@@QAEPAXI@Z 00421c40 f i AttributeParser.obj
 0001:00020d20       ??_GCAtlStringMgr@ATL@@UAEPAXI@Z 00421d20 f i AttributeParser.obj
 0001:00020d20       ??_ECAtlStringMgr@ATL@@UAEPAXI@Z 00421d20 f i AttributeParser.obj
 0001:00020d70       ??_GCNode@?$CAtlList@PAVCParserBase@@V?$CElementTraits@PAVCParserBase@@@ATL@@@ATL@@QAEPAXI@Z 00421d70 f i AttributeParser.obj
 0001:00020dc0       ??_GCWin32Heap@ATL@@UAEPAXI@Z 00421dc0 f i AttributeParser.obj
 0001:00020dc0       ??_ECWin32Heap@ATL@@UAEPAXI@Z 00421dc0 f i AttributeParser.obj
 0001:00020e10       ?AddRef@CStringData@ATL@@QAEXXZ 00421e10 f i AttributeParser.obj
 0001:00020e70       ?Allocate@?$CHeapPtr@DVCCRTAllocator@ATL@@@ATL@@QAE_NI@Z 00421e70 f i AttributeParser.obj
 0001:00020ed0       ?Allocate@?$CHeapPtr@_WVCCRTAllocator@ATL@@@ATL@@QAE_NI@Z 00421ed0 f i AttributeParser.obj
 0001:00020f30       ?Allocate@CAtlStringMgr@ATL@@UAEPAUCStringData@2@HH@Z 00421f30 f i AttributeParser.obj
 0001:00021100       ?Allocate@CCRTAllocator@ATL@@SAPAXI@Z 00422100 f i AttributeParser.obj
 0001:00021130       ?Allocate@CCRTHeap@ATL@@UAEPAXI@Z 00422130 f i AttributeParser.obj
 0001:00021160       ?Allocate@CWin32Heap@ATL@@UAEPAXI@Z 00422160 f i AttributeParser.obj
 0001:000211a0       ?AllocateBytes@?$CHeapPtrBase@DVCCRTAllocator@ATL@@@ATL@@QAE_NI@Z 004221a0 f i AttributeParser.obj
 0001:00021220       ?AllocateBytes@?$CHeapPtrBase@_WVCCRTAllocator@ATL@@@ATL@@QAE_NI@Z 00422220 f i AttributeParser.obj
 0001:000212a0       ?AtlThrowImpl@ATL@@YGXJ@Z  004222a0 f i AttributeParser.obj
 0001:00021320       ?AtlWinModuleInit@ATL@@YGJPAU_ATL_WIN_MODULE70@1@@Z 00422320 f i AttributeParser.obj
 0001:00021410       ?AtlWinModuleTerm@ATL@@YGJPAU_ATL_WIN_MODULE70@1@PAUHINSTANCE__@@@Z 00422410 f i AttributeParser.obj
 0001:000214e0       ?Attach@?$CSimpleStringT@_W$0A@@ATL@@AAEXPAUCStringData@2@@Z 004224e0 f i AttributeParser.obj
 0001:00021510       ?Clone@CAtlStringMgr@ATL@@UAEPAUIAtlStringMgr@2@XZ 00422510 f i AttributeParser.obj
 0001:00021530       ?CopyChars@?$CSimpleStringT@_W$0A@@ATL@@SAXPA_WIPB_WH@Z 00422530 f i AttributeParser.obj
 0001:00021570       ?CopyCharsOverlapped@?$CSimpleStringT@_W$0A@@ATL@@SAXPA_WIPB_WH@Z 00422570 f i AttributeParser.obj
 0001:000215b0       ?Empty@?$CSimpleStringT@_W$0A@@ATL@@QAEXXZ 004225b0 f i AttributeParser.obj
 0001:00021640       ?Fork@?$CSimpleStringT@_W$0A@@ATL@@AAEXH@Z 00422640 f i AttributeParser.obj
 0001:00021730       ?Free@?$CHeapPtrBase@DVCCRTAllocator@ATL@@@ATL@@QAEXXZ 00422730 f i AttributeParser.obj
 0001:00021770       ?Free@?$CHeapPtrBase@_WVCCRTAllocator@ATL@@@ATL@@QAEXXZ 00422770 f i AttributeParser.obj
 0001:000217b0       ?Free@CAtlStringMgr@ATL@@UAEXPAUCStringData@2@@Z 004227b0 f i AttributeParser.obj
 0001:00021860       ?Free@CCRTAllocator@ATL@@SAXPAX@Z 00422860 f i AttributeParser.obj
 0001:00021890       ?Free@CCRTHeap@ATL@@UAEXPAX@Z 00422890 f i AttributeParser.obj
 0001:000218c0       ?Free@CWin32Heap@ATL@@UAEXPAX@Z 004228c0 f i AttributeParser.obj
 0001:00021940       ?FreeDataChain@CAtlPlex@ATL@@QAEXXZ 00422940 f i AttributeParser.obj
 0001:00021990       ?FreeNode@?$CAtlList@PAVCParserBase@@V?$CElementTraits@PAVCParserBase@@@ATL@@@ATL@@AAEXPAVCNode@12@@Z 00422990 f i AttributeParser.obj
 0001:00021a40       ?GetAllocLength@?$CSimpleStringT@_W$0A@@ATL@@QBEHXZ 00422a40 f i AttributeParser.obj
 0001:00021a70       ?GetArrayType@CAttribute@@QAEABV?$CStringT@_WV?$StrTraitATL@_WV?$ChTraitsCRT@_W@ATL@@@ATL@@@ATL@@XZ 00422a70 f i AttributeParser.obj
 0001:00021a90       ?GetAt@?$CAtlList@PAVCParserBase@@V?$CElementTraits@PAVCParserBase@@@ATL@@@ATL@@QAEAAPAVCParserBase@@PAU__POSITION@@@Z 00422a90 f i AttributeParser.obj
 0001:00021b40       ?GetAttribute@CAttributeParser@@QAEPAVCAttribute@@XZ 00422b40 f i AttributeParser.obj
 0001:00021b60       ?GetAttributeForm@@YA?AW4ATTRIBUTEFORM@@PB_WH@Z 00422b60 f i AttributeParser.obj
 0001:00021bf0       ?GetAttributeUse@@YA?AW4ATTRIBUTEUSE@@PB_WH@Z 00422bf0 f i AttributeParser.obj
 0001:00021c80       ?GetBuffer@?$CSimpleStringT@_W$0A@@ATL@@QAEPA_WH@Z 00422c80 f i AttributeParser.obj
 0001:00021cb0       ?GetCategoryName@CTrace@ATL@@CAPA_WI@Z 00422cb0 f i AttributeParser.obj
 0001:00021d20       ?GetData@?$CSimpleStringT@_W$0A@@ATL@@ABEPAUCStringData@2@XZ 00422d20 f i AttributeParser.obj
 0001:00021d50       ?GetHeadPosition@?$CAtlList@PAVCParserBase@@V?$CElementTraits@PAVCParserBase@@@ATL@@@ATL@@QBEPAU__POSITION@@XZ 00422d50 f i AttributeParser.obj
 0001:00021d70       ?GetInstance@CAtlStringMgr@ATL@@SAPAUIAtlStringMgr@2@XZ 00422d70 f i AttributeParser.obj
 0001:00021e70       ?GetLength@?$CSimpleStringT@_W$0A@@ATL@@QBEHXZ 00422e70 f i AttributeParser.obj
 0001:00021ea0       ?GetLevel@CParserBase@@QAEKXZ 00422ea0 f i AttributeParser.obj
 0001:00021ec0       ?GetModuleInstance@CAtlBaseModule@ATL@@QAEPAUHINSTANCE__@@XZ 00422ec0 f i AttributeParser.obj
 0001:00021ee0       ?GetNext@?$CAtlList@PAVCParserBase@@V?$CElementTraits@PAVCParserBase@@@ATL@@@ATL@@QAEAAPAVCParserBase@@AAPAU__POSITION@@@Z 00422ee0 f i AttributeParser.obj
 0001:00021fa0       ?GetNilString@CAtlStringMgr@ATL@@UAEPAUCStringData@2@XZ 00422fa0 f i AttributeParser.obj
 0001:00021fd0       ?GetSize@?$CSimpleArray@GV?$CSimpleArrayEqualHelper@G@ATL@@@ATL@@QBEHXZ 00422fd0 f i AttributeParser.obj
 0001:00021ff0       ?GetSize@CCRTHeap@ATL@@UAEIPAX@Z 00422ff0 f i AttributeParser.obj
 0001:00022020       ?GetSize@CWin32Heap@ATL@@UAEIPAX@Z 00423020 f i AttributeParser.obj
 0001:00022060       ?GetString@?$CSimpleStringT@_W$0A@@ATL@@QBEPB_WXZ 00423060 f i AttributeParser.obj
 0001:00022080       ?GetTabs@@YAPBDK@Z         00423080 f i AttributeParser.obj
 0001:00022120       ?Init@CComCriticalSection@ATL@@QAEJXZ 00423120 f i AttributeParser.obj
 0001:00022180       ?IsLocked@CStringData@ATL@@QBE_NXZ 00423180 f i AttributeParser.obj
 0001:000221c0       ?IsShared@CStringData@ATL@@QBE_NXZ 004231c0 f i AttributeParser.obj
 0001:00022200       ?OnAnnotation@CAttributeParser@@QAEJPB_WH0H0HPAUISAXAttributes@@@Z 00423200 f   AttributeParser.obj
 0001:00022270       ?OnArrayType@CAttributeParser@@QAEJPB_WH0H0H0HPAUISAXAttributes@@@Z 00423270 f   AttributeParser.obj
 0001:00022310       ?OnForm@CAttributeParser@@QAEJPB_WH0H0H0HPAUISAXAttributes@@@Z 00423310 f   AttributeParser.obj
 0001:000223b0       ?OnID@CAttributeParser@@QAEJPB_WH0H0H0HPAUISAXAttributes@@@Z 004233b0 f   AttributeParser.obj
 0001:00022450       ?OnName@CAttributeParser@@QAEJPB_WH0H0H0HPAUISAXAttributes@@@Z 00423450 f   AttributeParser.obj
 0001:000224f0       ?OnRef@CAttributeParser@@QAEJPB_WH0H0H0HPAUISAXAttributes@@@Z 004234f0 f   AttributeParser.obj
 0001:00022590       ?OnSimpleType@CAttributeParser@@QAEJPB_WH0H0HPAUISAXAttributes@@@Z 00423590 f   AttributeParser.obj
 0001:00022600       ?OnType@CAttributeParser@@QAEJPB_WH0H0H0HPAUISAXAttributes@@@Z 00423600 f   AttributeParser.obj
 0001:000226a0       ?OnUse@CAttributeParser@@QAEJPB_WH0H0H0HPAUISAXAttributes@@@Z 004236a0 f   AttributeParser.obj
 0001:00022740       ?OnValue@CAttributeParser@@QAEJPB_WH0H0H0HPAUISAXAttributes@@@Z 00423740 f   AttributeParser.obj
 0001:000227e0       ?PrepareWrite2@?$CSimpleStringT@_W$0A@@ATL@@AAEXH@Z 004237e0 f i AttributeParser.obj
 0001:000228b0       ?PrepareWrite@?$CSimpleStringT@_W$0A@@ATL@@AAEPA_WH@Z 004238b0 f i AttributeParser.obj
 0001:00022930       ?Reallocate@?$CSimpleStringT@_W$0A@@ATL@@AAEXH@Z 00423930 f i AttributeParser.obj
 0001:00022a00       ?Reallocate@CAtlStringMgr@ATL@@UAEPAUCStringData@2@PAU32@HH@Z 00423a00 f i AttributeParser.obj
 0001:00022bf0       ?Reallocate@CCRTHeap@ATL@@UAEPAXPAXI@Z 00423bf0 f i AttributeParser.obj
 0001:00022c20       ?Reallocate@CWin32Heap@ATL@@UAEPAXPAXI@Z 00423c20 f i AttributeParser.obj
 0001:00022ca0       ?RegisterCategory@CTrace@ATL@@SAXPBDI@Z 00423ca0 f i AttributeParser.obj
 0001:00022dc0       ?Release@CStringData@ATL@@QAEXXZ 00423dc0 f i AttributeParser.obj
 0001:00022e40       ?ReleaseBufferSetLength@?$CSimpleStringT@_W$0A@@ATL@@QAEXH@Z 00423e40 f i AttributeParser.obj
 0001:00022ea0       ?RemoveAll@?$CAtlList@PAVCParserBase@@V?$CElementTraits@PAVCParserBase@@@ATL@@@ATL@@QAEXXZ 00423ea0 f i AttributeParser.obj
 0001:00023000       ?RemoveAll@?$CAtlPtrList@PAVCParserBase@@V?$CElementTraits@PAVCParserBase@@@ATL@@@@QAEXXZ 00424000 f i AttributeParser.obj
 0001:000230b0       ?RemoveAll@?$CSimpleArray@GV?$CSimpleArrayEqualHelper@G@ATL@@@ATL@@QAEXXZ 004240b0 f i AttributeParser.obj
 0001:00023130       ?SetArrayType@CAttribute@@QAEJPB_WH@Z 00424130 f i AttributeParser.obj
 0001:00023180       ?SetAttributeForm@CAttribute@@QAEJPB_WH@Z 00424180 f i AttributeParser.obj
 0001:000231d0       ?SetAttributeUse@CAttribute@@QAEJPB_WH@Z 004241d0 f i AttributeParser.obj
 0001:00023220       ?SetID@CAttribute@@QAEJPB_WH@Z 00424220 f i AttributeParser.obj
 0001:00023270       ?SetLength@?$CSimpleStringT@_W$0A@@ATL@@AAEXH@Z 00424270 f i AttributeParser.obj
 0001:00023350       ?SetManager@CNilStringData@ATL@@QAEXPAUIAtlStringMgr@2@@Z 00424350 f i AttributeParser.obj
 0001:000233b0       ?SetName@CAttribute@@QAEJPB_WH@Z 004243b0 f i AttributeParser.obj
 0001:00023400       ?SetRef@CAttribute@@QAEJPB_WH@Z 00424400 f i AttributeParser.obj
 0001:00023440       ?SetString@?$CSimpleStringT@_W$0A@@ATL@@QAEXPB_WH@Z 00424440 f i AttributeParser.obj
 0001:00023530       ?SetType@CAttribute@@QAEJPB_WH@Z 00424530 f i AttributeParser.obj
 0001:00023570       ?SetValue@CAttribute@@QAEJPB_WH@Z 00424570 f i AttributeParser.obj
 0001:000235c0       ?StaticInitialize@CAtlStringMgr@ATL@@CA_NXZ 004245c0 f i AttributeParser.obj
 0001:000235e0       ?Term@CAtlComModule@ATL@@QAEXXZ 004245e0 f i AttributeParser.obj
 0001:000236a0       ?Term@CAtlWinModule@ATL@@QAEXXZ 004246a0 f i AttributeParser.obj
 0001:000236d0       ?Term@CComCriticalSection@ATL@@QAEJXZ 004246d0 f i AttributeParser.obj
 0001:00023700       ?ThrowMemoryException@?$CSimpleStringT@_W$0A@@ATL@@KAXXZ 00424700 f i AttributeParser.obj
 0001:00023720       ?TraceV@CTrace@ATL@@CAXPBDHIIPB_W@Z 00424720 f i AttributeParser.obj
 0001:000239d0       ?TraceV@CTrace@ATL@@SAXPBDHII0PAD@Z 004249d0 f i AttributeParser.obj
 0001:00023c00       ?ValidateElement@CAttributeParser@@UAEJXZ 00424c00 f   AttributeParser.obj
 0001:00023c60       ?_AtlInitializeCriticalSectionEx@ATL@@YAHPAU_RTL_CRITICAL_SECTION@@KK@Z 00424c60 f i AttributeParser.obj
 0001:00023c90       ?_AtlRaiseException@ATL@@YAXKK@Z 00424c90 f i AttributeParser.obj
 0001:00023cc0       ?data@CStringData@ATL@@QAEPAXXZ 00424cc0 f i AttributeParser.obj
 0001:00023ce0       _HRESULT_FROM_WIN32        00424ce0 f i AttributeParser.obj
 0001:00023d30       ___local_stdio_printf_options 00424d30 f i AttributeParser.obj
 0001:00023d50       __vscprintf                00424d50 f i AttributeParser.obj
 0001:00023d80       __vscprintf_l              00424d80 f i AttributeParser.obj
 0001:00023df0       __vsnprintf_s              00424df0 f i AttributeParser.obj
 0001:00023e30       __vsnprintf_s_l            00424e30 f i AttributeParser.obj
 0001:00023ea0       __vswprintf_s_l            00424ea0 f i AttributeParser.obj
 0001:00024190       _swprintf_s                00425190 f i AttributeParser.obj
 0001:000241f0       ??$AtlAssertValidObject@V?$CAtlArray@HV?$CElementTraits@H@ATL@@@ATL@@@ATL@@YAXPBV?$CAtlArray@HV?$CElementTraits@H@ATL@@@0@@Z 004251f0 f i CodeTypeBuilder.obj
 0001:000242a0       ??$AtlAssertValidObject@V?$CAtlList@PAVCCodeElementContainer@@V?$CElementTraits@PAVCCodeElementContainer@@@ATL@@@ATL@@@ATL@@YAXPBV?$CAtlList@PAVCCodeElementContainer@@V?$CElementTraits@PAVCCodeElementContainer@@@ATL@@@0@@Z 004252a0 f i CodeTypeBuilder.obj
 0001:00024350       ??$AtlConvAllocMemory@D@ATL@@YAXPAPADHPADH@Z 00425350 f i CodeTypeBuilder.obj
 0001:00024580       ??$AtlConvAllocMemory@_W@ATL@@YAXPAPA_WHPA_WH@Z 00425580 f i CodeTypeBuilder.obj
 0001:000247b0       ??$AtlConvFreeMemory@D@ATL@@YAXPAD0H@Z 004257b0 f i CodeTypeBuilder.obj
 0001:00024800       ??$AtlConvFreeMemory@_W@ATL@@YAXPA_W0H@Z 00425800 f i CodeTypeBuilder.obj
 0001:00024850       ??$_itoa@$0CAA@@@YAPADHAAY0CAA@DH@Z 00425850 f i CodeTypeBuilder.obj
 0001:000248a0       ??0?$CA2WEX@$0IA@@ATL@@QAE@PBD@Z 004258a0 f i CodeTypeBuilder.obj
 0001:000248f0       ??0?$CAtlArray@HV?$CElementTraits@H@ATL@@@ATL@@QAE@XZ 004258f0 f i CodeTypeBuilder.obj
 0001:00024940       ??0?$CAtlList@PAVCCodeTypedElement@@V?$CElementTraits@PAVCCodeTypedElement@@@ATL@@@ATL@@QAE@I@Z 00425940 f i CodeTypeBuilder.obj
 0001:000249e0       ??0?$CAtlMap@V?$CStringT@DV?$StrTraitATL@DV?$ChTraitsCRT@D@ATL@@@ATL@@@ATL@@HV?$CStringRefElementTraits@V?$CStringT@DV?$StrTraitATL@DV?$ChTraitsCRT@D@ATL@@@ATL@@@ATL@@@2@V?$CElementTraits@H@2@@ATL@@QAE@IMMMI@Z 004259e0 f i CodeTypeBuilder.obj
 0001:00024b40       ??0?$CAtlPtrList@PAVCCodeTypedElement@@V?$CElementTraits@PAVCCodeTypedElement@@@ATL@@@@QAE@XZ 00425b40 f i CodeTypeBuilder.obj
 0001:00024b80       ??0?$CAutoPtr@VCCodeElementContainer@@@ATL@@QAE@XZ 00425b80 f i CodeTypeBuilder.obj
 0001:00024bb0       ??0?$CAutoPtr@VCCodeTypedElement@@@ATL@@QAE@PAVCCodeTypedElement@@@Z 00425bb0 f i CodeTypeBuilder.obj
 0001:00024be0       ??0?$CAutoPtr@VCCodeTypedElement@@@ATL@@QAE@XZ 00425be0 f i CodeTypeBuilder.obj
 0001:00024c10       ??0?$CSimpleStringT@D$0A@@ATL@@QAE@ABV01@@Z 00425c10 f i CodeTypeBuilder.obj
 0001:00024c60       ??0?$CSimpleStringT@D$0A@@ATL@@QAE@PAUIAtlStringMgr@1@@Z 00425c60 f i CodeTypeBuilder.obj
 0001:00024d20       ??0?$CSimpleStringT@_W$0A@@ATL@@QAE@ABV01@@Z 00425d20 f i CodeTypeBuilder.obj
 0001:00024d70       ??0?$CSimpleStringT@_W$0A@@ATL@@QAE@PAUIAtlStringMgr@1@@Z 00425d70 f i CodeTypeBuilder.obj
 0001:00024e30       ??0?$CStringT@DV?$StrTraitATL@DV?$ChTraitsCRT@D@ATL@@@ATL@@@ATL@@QAE@ABV01@@Z 00425e30 f i CodeTypeBuilder.obj
 0001:00024e60       ??0?$CStringT@DV?$StrTraitATL@DV?$ChTraitsCRT@D@ATL@@@ATL@@@ATL@@QAE@PBD@Z 00425e60 f i CodeTypeBuilder.obj
 0001:00024f00       ??0?$CStringT@DV?$StrTraitATL@DV?$ChTraitsCRT@D@ATL@@@ATL@@@ATL@@QAE@PB_WPAUIAtlStringMgr@1@@Z 00425f00 f i CodeTypeBuilder.obj
 0001:00024fa0       ??0?$CStringT@DV?$StrTraitATL@DV?$ChTraitsCRT@D@ATL@@@ATL@@@ATL@@QAE@XZ 00425fa0 f i CodeTypeBuilder.obj
 0001:00024fd0       ??0?$CStringT@_WV?$StrTraitATL@_WV?$ChTraitsCRT@_W@ATL@@@ATL@@@ATL@@QAE@ABV01@@Z 00425fd0 f i CodeTypeBuilder.obj
 0001:00025000       ??0?$CStringT@_WV?$StrTraitATL@_WV?$ChTraitsCRT@_W@ATL@@@ATL@@@ATL@@QAE@PB_W@Z 00426000 f i CodeTypeBuilder.obj
 0001:000250a0       ??0?$CStringT@_WV?$StrTraitATL@_WV?$ChTraitsCRT@_W@ATL@@@ATL@@@ATL@@QAE@XZ 004260a0 f i CodeTypeBuilder.obj
 0001:000250d0       ??0?$CW2AEX@$0IA@@ATL@@QAE@PB_W@Z 004260d0 f i CodeTypeBuilder.obj
 0001:00025120       ??0CCodeElement@@QAE@XZ    00426120 f i CodeTypeBuilder.obj
 0001:00025170       ??0CCodeElementContainer@@QAE@XZ 00426170 f i CodeTypeBuilder.obj
 0001:00025270       ??0CCodeType@@QAE@XZ       00426270 f i CodeTypeBuilder.obj
 0001:000252c0       ??0CCodeTypedElement@@QAE@XZ 004262c0 f i CodeTypeBuilder.obj
 0001:00025380       ??0CNode@?$CAtlList@PAVCCodeElementContainer@@V?$CElementTraits@PAVCCodeElementContainer@@@ATL@@@ATL@@QAE@ABQAVCCodeElementContainer@@@Z 00426380 f i CodeTypeBuilder.obj
 0001:000253b0       ??0CNode@?$CAtlList@PAVCCodeTypedElement@@V?$CElementTraits@PAVCCodeTypedElement@@@ATL@@@ATL@@QAE@ABQAVCCodeTypedElement@@@Z 004263b0 f i CodeTypeBuilder.obj
 0001:000253e0       ??0CNode@?$CAtlMap@PAVCComplexType@@HV?$CXSDElementPtrTraits@VCComplexType@@@@V?$CElementTraits@H@ATL@@@ATL@@QAE@PAVCComplexType@@I@Z 004263e0 f i CodeTypeBuilder.obj
 0001:00025420       ??0CNode@?$CAtlMap@PAVCComplexType@@PAVCCodeElementContainer@@V?$CXSDElementPtrTraits@VCComplexType@@@@V?$CElementTraits@PAVCCodeElementContainer@@@ATL@@@ATL@@QAE@PAVCComplexType@@I@Z 00426420 f i CodeTypeBuilder.obj
 0001:00025460       ??0CNode@?$CAtlMap@PAVCComplexType@@VCCodeTypedElement@@V?$CXSDElementPtrTraits@VCComplexType@@@@V?$CElementTraits@VCCodeTypedElement@@@ATL@@@ATL@@QAE@PAVCComplexType@@I@Z 00426460 f i CodeTypeBuilder.obj
 0001:000254a0       ??0CNode@?$CAtlMap@PAVCSimpleType@@PAVCCodeElementContainer@@V?$CXSDElementPtrTraits@VCSimpleType@@@@V?$CElementTraits@PAVCCodeElementContainer@@@ATL@@@ATL@@QAE@PAVCSimpleType@@I@Z 004264a0 f i CodeTypeBuilder.obj
 0001:000254e0       ??0CNode@?$CAtlMap@PAVCSimpleType@@VCCodeTypedElement@@V?$CXSDElementPtrTraits@VCSimpleType@@@@V?$CElementTraits@VCCodeTypedElement@@@ATL@@@ATL@@QAE@PAVCSimpleType@@I@Z 004264e0 f i CodeTypeBuilder.obj
 0001:00025520       ??0CNode@?$CAtlMap@PAVCWSDLMessagePart@@PAVCCodeTypedElement@@V?$CElementTraits@PAVCWSDLMessagePart@@@ATL@@V?$CElementTraits@PAVCCodeTypedElement@@@4@@ATL@@QAE@ABQAVCWSDLMessagePart@@I@Z 00426520 f i CodeTypeBuilder.obj
 0001:00025560       ??0CNode@?$CAtlMap@PAVCXSDElement@@PAVCCodeTypedElement@@V?$CElementTraits@PAVCXSDElement@@@ATL@@V?$CElementTraits@PAVCCodeTypedElement@@@4@@ATL@@QAE@ABQAVCXSDElement@@I@Z 00426560 f i CodeTypeBuilder.obj
 0001:000255a0       ??0CNode@?$CAtlMap@V?$CStringT@DV?$StrTraitATL@DV?$ChTraitsCRT@D@ATL@@@ATL@@@ATL@@HV?$CStringRefElementTraits@V?$CStringT@DV?$StrTraitATL@DV?$ChTraitsCRT@D@ATL@@@ATL@@@ATL@@@2@V?$CElementTraits@H@2@@ATL@@QAE@ABV?$CStringT@DV?$StrTraitATL@DV?$ChTraitsCRT@D@ATL@@@ATL@@@2@I@Z 004265a0 f i CodeTypeBuilder.obj
 0001:000255e0       ??0CPair@?$CAtlMap@PAVCComplexType@@HV?$CXSDElementPtrTraits@VCComplexType@@@@V?$CElementTraits@H@ATL@@@ATL@@IAE@PAVCComplexType@@@Z 004265e0 f i CodeTypeBuilder.obj
 0001:00025610       ??0CPair@?$CAtlMap@PAVCComplexType@@PAVCCodeElementContainer@@V?$CXSDElementPtrTraits@VCComplexType@@@@V?$CElementTraits@PAVCCodeElementContainer@@@ATL@@@ATL@@IAE@PAVCComplexType@@@Z 00426610 f i CodeTypeBuilder.obj
 0001:00025640       ??0CPair@?$CAtlMap@PAVCComplexType@@VCCodeTypedElement@@V?$CXSDElementPtrTraits@VCComplexType@@@@V?$CElementTraits@VCCodeTypedElement@@@ATL@@@ATL@@IAE@PAVCComplexType@@@Z 00426640 f i CodeTypeBuilder.obj
 0001:00025680       ??0CPair@?$CAtlMap@PAVCSimpleType@@PAVCCodeElementContainer@@V?$CXSDElementPtrTraits@VCSimpleType@@@@V?$CElementTraits@PAVCCodeElementContainer@@@ATL@@@ATL@@IAE@PAVCSimpleType@@@Z 00426680 f i CodeTypeBuilder.obj
 0001:000256b0       ??0CPair@?$CAtlMap@PAVCSimpleType@@VCCodeTypedElement@@V?$CXSDElementPtrTraits@VCSimpleType@@@@V?$CElementTraits@VCCodeTypedElement@@@ATL@@@ATL@@IAE@PAVCSimpleType@@@Z 004266b0 f i CodeTypeBuilder.obj
 0001:000256f0       ??0CPair@?$CAtlMap@PAVCWSDLMessagePart@@PAVCCodeTypedElement@@V?$CElementTraits@PAVCWSDLMessagePart@@@ATL@@V?$CElementTraits@PAVCCodeTypedElement@@@4@@ATL@@IAE@ABQAVCWSDLMessagePart@@@Z 004266f0 f i CodeTypeBuilder.obj
 0001:00025720       ??0CPair@?$CAtlMap@PAVCXSDElement@@PAVCCodeTypedElement@@V?$CElementTraits@PAVCXSDElement@@@ATL@@V?$CElementTraits@PAVCCodeTypedElement@@@4@@ATL@@IAE@ABQAVCXSDElement@@@Z 00426720 f i CodeTypeBuilder.obj
 0001:00025750       ??0CPair@?$CAtlMap@V?$CStringT@DV?$StrTraitATL@DV?$ChTraitsCRT@D@ATL@@@ATL@@@ATL@@HV?$CStringRefElementTraits@V?$CStringT@DV?$StrTraitATL@DV?$ChTraitsCRT@D@ATL@@@ATL@@@ATL@@@2@V?$CElementTraits@H@2@@ATL@@IAE@ABV?$CStringT@DV?$StrTraitATL@DV?$ChTraitsCRT@D@ATL@@@ATL@@@2@@Z 00426750 f i CodeTypeBuilder.obj
 0001:00025780       ??1?$CA2WEX@$0IA@@ATL@@QAE@XZ 00426780 f i CodeTypeBuilder.obj
 0001:000257c0       ??1?$CAtlArray@HV?$CElementTraits@H@ATL@@@ATL@@QAE@XZ 004267c0 f i CodeTypeBuilder.obj
 0001:00025810       ??1?$CAtlList@PAVCCodeTypedElement@@V?$CElementTraits@PAVCCodeTypedElement@@@ATL@@@ATL@@QAE@XZ 00426810 f i CodeTypeBuilder.obj
 0001:00025880       ??1?$CAtlMap@V?$CStringT@DV?$StrTraitATL@DV?$ChTraitsCRT@D@ATL@@@ATL@@@ATL@@HV?$CStringRefElementTraits@V?$CStringT@DV?$StrTraitATL@DV?$ChTraitsCRT@D@ATL@@@ATL@@@ATL@@@2@V?$CElementTraits@H@2@@ATL@@QAE@XZ 00426880 f i CodeTypeBuilder.obj
 0001:00025940       ??1?$CAtlPtrList@PAVCCodeTypedElement@@V?$CElementTraits@PAVCCodeTypedElement@@@ATL@@@@QAE@XZ 00426940 f i CodeTypeBuilder.obj
 0001:000259a0       ??1?$CAutoPtr@VCCodeElementContainer@@@ATL@@QAE@XZ 004269a0 f i CodeTypeBuilder.obj
 0001:000259d0       ??1?$CAutoPtr@VCCodeTypedElement@@@ATL@@QAE@XZ 004269d0 f i CodeTypeBuilder.obj
 0001:00025a00       ??1?$CSimpleStringT@D$0A@@ATL@@QAE@XZ 00426a00 f i CodeTypeBuilder.obj
 0001:00025a30       ??1?$CSimpleStringT@_W$0A@@ATL@@QAE@XZ 00426a30 f i CodeTypeBuilder.obj
 0001:00025a60       ??1?$CStringT@DV?$StrTraitATL@DV?$ChTraitsCRT@D@ATL@@@ATL@@@ATL@@QAE@XZ 00426a60 f i CodeTypeBuilder.obj
 0001:00025a90       ??1?$CStringT@_WV?$StrTraitATL@_WV?$ChTraitsCRT@_W@ATL@@@ATL@@@ATL@@QAE@XZ 00426a90 f i CodeTypeBuilder.obj
 0001:00025ac0       ??1?$CW2AEX@$0IA@@ATL@@QAE@XZ 00426ac0 f i CodeTypeBuilder.obj
 0001:00025b00       ??1CCodeElement@@UAE@XZ    00426b00 f i CodeTypeBuilder.obj
 0001:00025b40       ??1CCodeElementContainer@@QAE@XZ 00426b40 f i CodeTypeBuilder.obj
 0001:00025bd0       ??1CCodeType@@QAE@XZ       00426bd0 f i CodeTypeBuilder.obj
 0001:00025c10       ??1CCodeTypedElement@@UAE@XZ 00426c10 f i CodeTypeBuilder.obj
 0001:00025c70       ??1CNode@?$CAtlList@PAVCCodeElementContainer@@V?$CElementTraits@PAVCCodeElementContainer@@@ATL@@@ATL@@QAE@XZ 00426c70 f i CodeTypeBuilder.obj
 0001:00025c90       ??1CNode@?$CAtlList@PAVCCodeTypedElement@@V?$CElementTraits@PAVCCodeTypedElement@@@ATL@@@ATL@@QAE@XZ 00426c90 f i CodeTypeBuilder.obj
 0001:00025cb0       ??1CNode@?$CAtlMap@PAVCComplexType@@VCCodeTypedElement@@V?$CXSDElementPtrTraits@VCComplexType@@@@V?$CElementTraits@VCCodeTypedElement@@@ATL@@@ATL@@QAE@XZ 00426cb0 f i CodeTypeBuilder.obj
 0001:00025ce0       ??1CNode@?$CAtlMap@PAVCSimpleType@@VCCodeTypedElement@@V?$CXSDElementPtrTraits@VCSimpleType@@@@V?$CElementTraits@VCCodeTypedElement@@@ATL@@@ATL@@QAE@XZ 00426ce0 f i CodeTypeBuilder.obj
 0001:00025d10       ??1CNode@?$CAtlMap@V?$CStringT@DV?$StrTraitATL@DV?$ChTraitsCRT@D@ATL@@@ATL@@@ATL@@HV?$CStringRefElementTraits@V?$CStringT@DV?$StrTraitATL@DV?$ChTraitsCRT@D@ATL@@@ATL@@@ATL@@@2@V?$CElementTraits@H@2@@ATL@@QAE@XZ 00426d10 f i CodeTypeBuilder.obj
 0001:00025d40       ??1CPair@?$CAtlMap@PAVCComplexType@@VCCodeTypedElement@@V?$CXSDElementPtrTraits@VCComplexType@@@@V?$CElementTraits@VCCodeTypedElement@@@ATL@@@ATL@@QAE@XZ 00426d40 f i CodeTypeBuilder.obj
 0001:00025d70       ??1CPair@?$CAtlMap@PAVCSimpleType@@VCCodeTypedElement@@V?$CXSDElementPtrTraits@VCSimpleType@@@@V?$CElementTraits@VCCodeTypedElement@@@ATL@@@ATL@@QAE@XZ 00426d70 f i CodeTypeBuilder.obj
 0001:00025da0       ??1CPair@?$CAtlMap@V?$CStringT@DV?$StrTraitATL@DV?$ChTraitsCRT@D@ATL@@@ATL@@@ATL@@HV?$CStringRefElementTraits@V?$CStringT@DV?$StrTraitATL@DV?$ChTraitsCRT@D@ATL@@@ATL@@@ATL@@@2@V?$CElementTraits@H@2@@ATL@@QAE@XZ 00426da0 f i CodeTypeBuilder.obj
 0001:00025dd0       ??1CQName@@QAE@XZ          00426dd0 f i CodeTypeBuilder.obj
 0001:00025e00       ??2@YAPAXIPAX@Z            00426e00 f i CodeTypeBuilder.obj
 0001:00025e20       ??3@YAXPAX0@Z              00426e20 f i CodeTypeBuilder.obj
 0001:00025e40       ??4?$CSimpleStringT@D$0A@@ATL@@QAEAAV01@ABV01@@Z 00426e40 f i CodeTypeBuilder.obj
 0001:00025f00       ??4?$CSimpleStringT@D$0A@@ATL@@QAEAAV01@PBD@Z 00426f00 f i CodeTypeBuilder.obj
 0001:00025f30       ??4?$CSimpleStringT@_W$0A@@ATL@@QAEAAV01@ABV01@@Z 00426f30 f i CodeTypeBuilder.obj
 0001:00025ff0       ??4?$CSimpleStringT@_W$0A@@ATL@@QAEAAV01@PB_W@Z 00426ff0 f i CodeTypeBuilder.obj
 0001:00026020       ??4?$CStringT@DV?$StrTraitATL@DV?$ChTraitsCRT@D@ATL@@@ATL@@@ATL@@QAEAAV01@ABV01@@Z 00427020 f i CodeTypeBuilder.obj
 0001:00026050       ??4?$CStringT@DV?$StrTraitATL@DV?$ChTraitsCRT@D@ATL@@@ATL@@@ATL@@QAEAAV01@PBD@Z 00427050 f i CodeTypeBuilder.obj
 0001:00026080       ??4?$CStringT@DV?$StrTraitATL@DV?$ChTraitsCRT@D@ATL@@@ATL@@@ATL@@QAEAAV01@PB_W@Z 00427080 f i CodeTypeBuilder.obj
 0001:00026120       ??4?$CStringT@_WV?$StrTraitATL@_WV?$ChTraitsCRT@_W@ATL@@@ATL@@@ATL@@QAEAAV01@ABV01@@Z 00427120 f i CodeTypeBuilder.obj
 0001:00026150       ??4?$CStringT@_WV?$StrTraitATL@_WV?$ChTraitsCRT@_W@ATL@@@ATL@@@ATL@@QAEAAV01@PB_W@Z 00427150 f i CodeTypeBuilder.obj
 0001:00026180       ??4CCodeElement@@QAEABV0@ABV0@@Z 00427180 f i CodeTypeBuilder.obj
 0001:00026210       ??4CCodeType@@QAEABV0@ABV0@@Z 00427210 f i CodeTypeBuilder.obj
 0001:00026280       ??4CCodeTypedElement@@QAEABV0@ABV0@@Z 00427280 f i CodeTypeBuilder.obj
 0001:00026390       ??8ATL@@YA_NABV?$CStringT@DV?$StrTraitATL@DV?$ChTraitsCRT@D@ATL@@@ATL@@@0@0@Z 00427390 f i CodeTypeBuilder.obj
 0001:000263e0       ??8ATL@@YA_NABV?$CStringT@_WV?$StrTraitATL@_WV?$ChTraitsCRT@_W@ATL@@@ATL@@@0@0@Z 004273e0 f i CodeTypeBuilder.obj
 0001:00026430       ??8ATL@@YA_NABV?$CStringT@_WV?$StrTraitATL@_WV?$ChTraitsCRT@_W@ATL@@@ATL@@@0@PB_W@Z 00427430 f i CodeTypeBuilder.obj
 0001:00026470       ??9ATL@@YA_NABV?$CStringT@DV?$StrTraitATL@DV?$ChTraitsCRT@D@ATL@@@ATL@@@0@PBD@Z 00427470 f i CodeTypeBuilder.obj
 0001:000264b0       ??9ATL@@YA_NABV?$CStringT@_WV?$StrTraitATL@_WV?$ChTraitsCRT@_W@ATL@@@ATL@@@0@0@Z 004274b0 f i CodeTypeBuilder.obj
 0001:00026500       ??9ATL@@YA_NABV?$CStringT@_WV?$StrTraitATL@_WV?$ChTraitsCRT@_W@ATL@@@ATL@@@0@PB_W@Z 00427500 f i CodeTypeBuilder.obj
 0001:00026540       ??A?$CAtlArray@HV?$CElementTraits@H@ATL@@@ATL@@QAEAAHI@Z 00427540 f i CodeTypeBuilder.obj
 0001:000265c0       ??A?$CAtlArray@HV?$CElementTraits@H@ATL@@@ATL@@QBEABHI@Z 004275c0 f i CodeTypeBuilder.obj
 0001:00026640       ??B?$CA2WEX@$0IA@@ATL@@QBEPA_WXZ 00427640 f i CodeTypeBuilder.obj
 0001:00026660       ??B?$CAutoPtr@VCCodeElementContainer@@@ATL@@QBEPAVCCodeElementContainer@@XZ 00427660 f i CodeTypeBuilder.obj
 0001:00026680       ??B?$CAutoPtr@VCCodeTypedElement@@@ATL@@QBEPAVCCodeTypedElement@@XZ 00427680 f i CodeTypeBuilder.obj
 0001:000266a0       ??B?$CAutoPtr@VCSoapBinding@@@ATL@@QBEPAVCSoapBinding@@XZ 004276a0 f i CodeTypeBuilder.obj
 0001:000266c0       ??B?$CAutoPtr@VCSoapOperation@@@ATL@@QBEPAVCSoapOperation@@XZ 004276c0 f i CodeTypeBuilder.obj
 0001:000266e0       ??B?$CAutoPtr@VCWSDLPortTypeIO@@@ATL@@QBEPAVCWSDLPortTypeIO@@XZ 004276e0 f i CodeTypeBuilder.obj
 0001:00026700       ??B?$CAutoPtr@VCWSDLSoapElementEx@@@ATL@@QBEPAVCWSDLSoapElementEx@@XZ 00427700 f i CodeTypeBuilder.obj
 0001:00026720       ??B?$CSimpleStringT@D$0A@@ATL@@QBEPBDXZ 00427720 f i CodeTypeBuilder.obj
 0001:00026740       ??B?$CSimpleStringT@_W$0A@@ATL@@QBEPB_WXZ 00427740 f i CodeTypeBuilder.obj
 0001:00026760       ??B?$CTraceCategoryEx@$0CAAAA@$0A@@ATL@@QAEIXZ 00427760 f i CodeTypeBuilder.obj
 0001:00026780       ??B?$CTraceCategoryEx@$0EAAAA@$0A@@ATL@@QAEIXZ 00427780 f i CodeTypeBuilder.obj
 0001:000267a0       ??B?$CW2AEX@$0IA@@ATL@@QBEPADXZ 004277a0 f i CodeTypeBuilder.obj
 0001:000267c0       ??C?$CAutoPtr@VCCodeElementContainer@@@ATL@@QBEPAVCCodeElementContainer@@XZ 004277c0 f i CodeTypeBuilder.obj
 0001:00026820       ??C?$CAutoPtr@VCCodeTypedElement@@@ATL@@QBEPAVCCodeTypedElement@@XZ 00427820 f i CodeTypeBuilder.obj
 0001:00026880       ??Y?$CSimpleStringT@D$0A@@ATL@@QAEAAV01@ABV01@@Z 00427880 f i CodeTypeBuilder.obj
 0001:000268b0       ??Y?$CStringT@DV?$StrTraitATL@DV?$ChTraitsCRT@D@ATL@@@ATL@@@ATL@@QAEAAV01@ABV?$CSimpleStringT@D$0A@@1@@Z 004278b0 f i CodeTypeBuilder.obj
 0001:000268e0       ??Y?$CStringT@DV?$StrTraitATL@DV?$ChTraitsCRT@D@ATL@@@ATL@@@ATL@@QAEAAV01@PB_W@Z 004278e0 f i CodeTypeBuilder.obj
 0001:00026980       ??_ECCodeElement@@UAEPAXI@Z 00427980 f i CodeTypeBuilder.obj
 0001:00026980       ??_GCCodeElement@@UAEPAXI@Z 00427980 f i CodeTypeBuilder.obj
 0001:000269d0       ??_GCCodeElementContainer@@QAEPAXI@Z 004279d0 f i CodeTypeBuilder.obj
 0001:00026a20       ??_GCCodeTypedElement@@UAEPAXI@Z 00427a20 f i CodeTypeBuilder.obj
 0001:00026a20       ??_ECCodeTypedElement@@UAEPAXI@Z 00427a20 f i CodeTypeBuilder.obj
 0001:00026a70       ??_GCNode@?$CAtlList@PAVCCodeElementContainer@@V?$CElementTraits@PAVCCodeElementContainer@@@ATL@@@ATL@@QAEPAXI@Z 00427a70 f i CodeTypeBuilder.obj
 0001:00026ac0       ??_GCNode@?$CAtlList@PAVCCodeTypedElement@@V?$CElementTraits@PAVCCodeTypedElement@@@ATL@@@ATL@@QAEPAXI@Z 00427ac0 f i CodeTypeBuilder.obj
 0001:00026b10       ??_GCNode@?$CAtlMap@PAVCComplexType@@VCCodeTypedElement@@V?$CXSDElementPtrTraits@VCComplexType@@@@V?$CElementTraits@VCCodeTypedElement@@@ATL@@@ATL@@QAEPAXI@Z 00427b10 f i CodeTypeBuilder.obj
 0001:00026b60       ??_GCNode@?$CAtlMap@PAVCSimpleType@@VCCodeTypedElement@@V?$CXSDElementPtrTraits@VCSimpleType@@@@V?$CElementTraits@VCCodeTypedElement@@@ATL@@@ATL@@QAEPAXI@Z 00427b60 f i CodeTypeBuilder.obj
 0001:00026bb0       ??_GCNode@?$CAtlMap@V?$CStringT@DV?$StrTraitATL@DV?$ChTraitsCRT@D@ATL@@@ATL@@@ATL@@HV?$CStringRefElementTraits@V?$CStringT@DV?$StrTraitATL@DV?$ChTraitsCRT@D@ATL@@@ATL@@@ATL@@@2@V?$CElementTraits@H@2@@ATL@@QAEPAXI@Z 00427bb0 f i CodeTypeBuilder.obj
 0001:00026c00       ?Add@?$CAtlArray@HV?$CElementTraits@H@ATL@@@ATL@@QAEIH@Z 00427c00 f i CodeTypeBuilder.obj
 0001:00026cc0       ?AddDimension@CCodeTypedElement@@QAEIH@Z 00427cc0 f i CodeTypeBuilder.obj
 0001:00026cf0       ?AddElement@CCodeElementContainer@@QAEPAVCCodeTypedElement@@PAV2@@Z 00427cf0 f i CodeTypeBuilder.obj
 0001:00026e30       ?AddEnum@CCodeProxy@@QAEPAVCCodeElementContainer@@PAV2@@Z 00427e30 f i CodeTypeBuilder.obj
 0001:00026f70       ?AddFlags@CCodeElement@@QAEKK@Z 00427f70 f i CodeTypeBuilder.obj
 0001:00026fb0       ?AddFunction@CCodeProxy@@QAEPAVCCodeElementContainer@@PAV2@@Z 00427fb0 f i CodeTypeBuilder.obj
 0001:000270f0       ?AddHeader@CCodeElementContainer@@QAEPAVCCodeTypedElement@@PAV2@@Z 004280f0 f i CodeTypeBuilder.obj
 0001:00027230       ?AddHeader@CCodeProxy@@QAEPAVCCodeTypedElement@@PAV2@@Z 00428230 f i CodeTypeBuilder.obj
 0001:00027370       ?AddHeaderToFunction@CCodeTypeBuilder@@AAEJPAVCCodeElementContainer@@AAV?$CAutoPtr@VCCodeTypedElement@@@ATL@@PAVCWSDLMessagePart@@@Z 00428370 f   CodeTypeBuilder.obj
 0001:00027950       ?AddStruct@CCodeProxy@@QAEPAVCCodeElementContainer@@PAV2@@Z 00428950 f i CodeTypeBuilder.obj
 0001:00027a90       ?AddTail@?$CAtlList@PAVCCodeElementContainer@@V?$CElementTraits@PAVCCodeElementContainer@@@ATL@@@ATL@@QAEPAU__POSITION@@ABQAVCCodeElementContainer@@@Z 00428a90 f i CodeTypeBuilder.obj
 0001:00027b00       ?AddTail@?$CAtlList@PAVCCodeTypedElement@@V?$CElementTraits@PAVCCodeTypedElement@@@ATL@@@ATL@@QAEPAU__POSITION@@ABQAVCCodeTypedElement@@@Z 00428b00 f i CodeTypeBuilder.obj
 0001:00027b70       ?Append@?$CSimpleStringT@D$0A@@ATL@@QAEXABV12@@Z 00428b70 f i CodeTypeBuilder.obj
 0001:00027bb0       ?Append@?$CSimpleStringT@D$0A@@ATL@@QAEXPBD@Z 00428bb0 f i CodeTypeBuilder.obj
 0001:00027bf0       ?Append@?$CSimpleStringT@D$0A@@ATL@@QAEXPBDH@Z 00428bf0 f i CodeTypeBuilder.obj
 0001:00027db0       ?Append@?$CSimpleStringT@_W$0A@@ATL@@QAEXPB_W@Z 00428db0 f i CodeTypeBuilder.obj
 0001:00027df0       ?Append@?$CSimpleStringT@_W$0A@@ATL@@QAEXPB_WH@Z 00428df0 f i CodeTypeBuilder.obj
 0001:00027fc0       ?AssertValid@?$CAtlArray@HV?$CElementTraits@H@ATL@@@ATL@@QBEXXZ 00428fc0 f i CodeTypeBuilder.obj
 0001:00028100       ?AssertValid@?$CAtlList@PAVCCodeElementContainer@@V?$CElementTraits@PAVCCodeElementContainer@@@ATL@@@ATL@@QBEXXZ 00429100 f i CodeTypeBuilder.obj
 0001:00028250       ?AtlCrtErrorCheck@ATL@@YAHH@Z 00429250 f i CodeTypeBuilder.obj
 0001:00028340       ?AtlFindStringResourceInstance@ATL@@YAPAUHINSTANCE__@@IG@Z 00429340 f i CodeTypeBuilder.obj
 0001:000283f0       ?AtlGetStringResourceImage@ATL@@YAPBUATLSTRINGRESOURCEIMAGE@1@PAUHINSTANCE__@@I@Z 004293f0 f i CodeTypeBuilder.obj
 0001:00028460       ?AtlGetStringResourceImage@ATL@@YAPBUATLSTRINGRESOURCEIMAGE@1@PAUHINSTANCE__@@IG@Z 00429460 f i CodeTypeBuilder.obj
 0001:000284d0       ?AtlIsValidAddress@ATL@@YAHPBXIH@Z 004294d0 f i CodeTypeBuilder.obj
 0001:00028510       ?AtlIsValidString@ATL@@YAHPBDI@Z 00429510 f i CodeTypeBuilder.obj
 0001:00028550       ?AtlIsValidString@ATL@@YAHPB_WI@Z 00429550 f i CodeTypeBuilder.obj
 0001:00028590       ?AtlStrLen@ATL@@YAHPB_W@Z  00429590 f i CodeTypeBuilder.obj
 0001:000285c0       ?AtlThrowLastWin32@ATL@@YGXXZ 004295c0 f i CodeTypeBuilder.obj
 0001:00028600       ?Attach@?$CAutoPtr@VCCodeElementContainer@@@ATL@@QAEXPAVCCodeElementContainer@@@Z 00429600 f i CodeTypeBuilder.obj
 0001:00028670       ?Attach@?$CAutoPtr@VCCodeTypedElement@@@ATL@@QAEXPAVCCodeTypedElement@@@Z 00429670 f i CodeTypeBuilder.obj
 0001:000286e0       ?Attach@?$CSimpleStringT@D$0A@@ATL@@AAEXPAUCStringData@2@@Z 004296e0 f i CodeTypeBuilder.obj
 0001:00028710       ?Build@CCodeTypeBuilder@@QAEJPAVCCodeProxy@@PAVCWSDLDocument@@@Z 00429710 f   CodeTypeBuilder.obj
 0001:00028a30       ?CallConstructors@?$CAtlArray@HV?$CElementTraits@H@ATL@@@ATL@@CAXPAHI@Z 00429a30 f i CodeTypeBuilder.obj
 0001:00028b10       ?CallDestructors@?$CAtlArray@HV?$CElementTraits@H@ATL@@@ATL@@CAXPAHI@Z 00429b10 f i CodeTypeBuilder.obj
 0001:00028b50       ?CheckAndAddHeader@CCodeTypeBuilder@@AAEJPAVCCodeElementContainer@@AAV?$CAutoPtr@VCCodeTypedElement@@@ATL@@KPAVCWSDLMessagePart@@@Z 00429b50 f   CodeTypeBuilder.obj
 0001:00028bc0       ?CheckDocLiteralNamespace@CCodeTypeBuilder@@AAEJPAVCCodeElementContainer@@PAVCXSDElement@@KK@Z 00429bc0 f   CodeTypeBuilder.obj
 0001:00028e10       ?CheckDuplicateHeaders@CCodeTypeBuilder@@AAEJPAVCCodeElementContainer@@PAVCCodeTypedElement@@K@Z 00429e10 f   CodeTypeBuilder.obj
 0001:00028fb0       ?CheckGlobalNameMap@CCodeTypeBuilder@@AAEJAAV?$CStringT@DV?$StrTraitATL@DV?$ChTraitsCRT@D@ATL@@@ATL@@@ATL@@_N@Z 00429fb0 f   CodeTypeBuilder.obj
 0001:00028ff0       ?CheckImplicitLoad@?$CStringT@DV?$StrTraitATL@DV?$ChTraitsCRT@D@ATL@@@ATL@@@ATL@@AAE_NPBX@Z 00429ff0 f i CodeTypeBuilder.obj
 0001:00029090       ?CheckImplicitLoad@?$CStringT@_WV?$StrTraitATL@_WV?$ChTraitsCRT@_W@ATL@@@ATL@@@ATL@@AAE_NPBX@Z 0042a090 f i CodeTypeBuilder.obj
 0001:00029130       ?CheckNameMap@CCodeTypeBuilder@@AAEJAAV?$CAtlMap@V?$CStringT@DV?$StrTraitATL@DV?$ChTraitsCRT@D@ATL@@@ATL@@@ATL@@HV?$CStringRefElementTraits@V?$CStringT@DV?$StrTraitATL@DV?$ChTraitsCRT@D@ATL@@@ATL@@@ATL@@@2@V?$CElementTraits@H@2@@ATL@@AAV?$CStringT@DV?$StrTraitATL@DV?$ChTraitsCRT@D@ATL@@@ATL@@@3@_N@Z 0042a130 f   CodeTypeBuilder.obj
 0001:00029280       ?ClearDims@CCodeTypedElement@@QAEXXZ 0042a280 f i CodeTypeBuilder.obj
 0001:000292b0       ?CloneData@?$CSimpleStringT@D$0A@@ATL@@CAPAUCStringData@2@PAU32@@Z 0042a2b0 f i CodeTypeBuilder.obj
 0001:000293a0       ?CloneData@?$CSimpleStringT@_W$0A@@ATL@@CAPAUCStringData@2@PAU32@@Z 0042a3a0 f i CodeTypeBuilder.obj
 0001:00029490       ?Compare@?$CStringT@DV?$StrTraitATL@DV?$ChTraitsCRT@D@ATL@@@ATL@@@ATL@@QBEHPBD@Z 0042a490 f i CodeTypeBuilder.obj
 0001:00029550       ?Compare@?$CStringT@_WV?$StrTraitATL@_WV?$ChTraitsCRT@_W@ATL@@@ATL@@@ATL@@QBEHPB_W@Z 0042a550 f i CodeTypeBuilder.obj
 0001:00029610       ?CompareElements@?$CDefaultCompareTraits@PAVCWSDLMessagePart@@@ATL@@SA_NABQAVCWSDLMessagePart@@0@Z 0042a610 f i CodeTypeBuilder.obj
 0001:00029670       ?CompareElements@?$CDefaultCompareTraits@PAVCXSDElement@@@ATL@@SA_NABQAVCXSDElement@@0@Z 0042a670 f i CodeTypeBuilder.obj
 0001:000296d0       ?CompareElements@?$CStringRefElementTraits@V?$CStringT@DV?$StrTraitATL@DV?$ChTraitsCRT@D@ATL@@@ATL@@@ATL@@@ATL@@SA_NABV?$CStringT@DV?$StrTraitATL@DV?$ChTraitsCRT@D@ATL@@@ATL@@@2@0@Z 0042a6d0 f i CodeTypeBuilder.obj
 0001:00029700       ?CompareElements@?$CStringRefElementTraits@V?$CStringT@_WV?$StrTraitATL@_WV?$ChTraitsCRT@_W@ATL@@@ATL@@@ATL@@@ATL@@SA_NABV?$CStringT@_WV?$StrTraitATL@_WV?$ChTraitsCRT@_W@ATL@@@ATL@@@2@0@Z 0042a700 f i CodeTypeBuilder.obj
 0001:00029730       ?CompareElements@?$CXSDElementPtrTraits@VCComplexType@@@@SA_NPAVCComplexType@@0@Z 0042a730 f i CodeTypeBuilder.obj
 0001:000298b0       ?CompareElements@?$CXSDElementPtrTraits@VCSimpleType@@@@SA_NPAVCSimpleType@@0@Z 0042a8b0 f i CodeTypeBuilder.obj
 0001:00029a30       ?ConvertToBaseType@?$ChTraitsCRT@D@ATL@@SAXPADHPB_WH@Z 0042aa30 f i CodeTypeBuilder.obj
 0001:00029a70       ?ConvertToBaseType@?$ChTraitsCRT@_W@ATL@@SAXPA_WHPB_WH@Z 0042aa70 f i CodeTypeBuilder.obj
 0001:00029ac0       ?CopyChars@?$CSimpleStringT@D$0A@@ATL@@SAXPADIPBDH@Z 0042aac0 f i CodeTypeBuilder.obj
 0001:00029b00       ?CopyCharsOverlapped@?$CSimpleStringT@D$0A@@ATL@@SAXPADIPBDH@Z 0042ab00 f i CodeTypeBuilder.obj
 0001:00029b40       ?Create@CAtlPlex@ATL@@SAPAU12@AAPAU12@II@Z 0042ab40 f i CodeTypeBuilder.obj
 0001:00029c50       ?CreateNode@?$CAtlMap@PAVCComplexType@@HV?$CXSDElementPtrTraits@VCComplexType@@@@V?$CElementTraits@H@ATL@@@ATL@@AAEPAVCNode@12@PAVCComplexType@@II@Z 0042ac50 f i CodeTypeBuilder.obj
 0001:00029cd0       ?CreateNode@?$CAtlMap@PAVCComplexType@@PAVCCodeElementContainer@@V?$CXSDElementPtrTraits@VCComplexType@@@@V?$CElementTraits@PAVCCodeElementContainer@@@ATL@@@ATL@@AAEPAVCNode@12@PAVCComplexType@@II@Z 0042acd0 f i CodeTypeBuilder.obj
 0001:00029d50       ?CreateNode@?$CAtlMap@PAVCComplexType@@VCCodeTypedElement@@V?$CXSDElementPtrTraits@VCComplexType@@@@V?$CElementTraits@VCCodeTypedElement@@@ATL@@@ATL@@AAEPAVCNode@12@PAVCComplexType@@II@Z 0042ad50 f i CodeTypeBuilder.obj
 0001:00029dd0       ?CreateNode@?$CAtlMap@PAVCSimpleType@@PAVCCodeElementContainer@@V?$CXSDElementPtrTraits@VCSimpleType@@@@V?$CElementTraits@PAVCCodeElementContainer@@@ATL@@@ATL@@AAEPAVCNode@12@PAVCSimpleType@@II@Z 0042add0 f i CodeTypeBuilder.obj
 0001:00029e50       ?CreateNode@?$CAtlMap@PAVCSimpleType@@VCCodeTypedElement@@V?$CXSDElementPtrTraits@VCSimpleType@@@@V?$CElementTraits@VCCodeTypedElement@@@ATL@@@ATL@@AAEPAVCNode@12@PAVCSimpleType@@II@Z 0042ae50 f i CodeTypeBuilder.obj
 0001:00029ed0       ?CreateNode@?$CAtlMap@PAVCWSDLMessagePart@@PAVCCodeTypedElement@@V?$CElementTraits@PAVCWSDLMessagePart@@@ATL@@V?$CElementTraits@PAVCCodeTypedElement@@@4@@ATL@@AAEPAVCNode@12@ABQAVCWSDLMessagePart@@II@Z 0042aed0 f i CodeTypeBuilder.obj
 0001:00029f50       ?CreateNode@?$CAtlMap@PAVCXSDElement@@PAVCCodeTypedElement@@V?$CElementTraits@PAVCXSDElement@@@ATL@@V?$CElementTraits@PAVCCodeTypedElement@@@4@@ATL@@AAEPAVCNode@12@ABQAVCXSDElement@@II@Z 0042af50 f i CodeTypeBuilder.obj
 0001:00029fd0       ?CreateNode@?$CAtlMap@V?$CStringT@DV?$StrTraitATL@DV?$ChTraitsCRT@D@ATL@@@ATL@@@ATL@@HV?$CStringRefElementTraits@V?$CStringT@DV?$StrTraitATL@DV?$ChTraitsCRT@D@ATL@@@ATL@@@ATL@@@2@V?$CElementTraits@H@2@@ATL@@AAEPAVCNode@12@ABV?$CStringT@DV?$StrTraitATL@DV?$ChTraitsCRT@D@ATL@@@ATL@@@2@II@Z 0042afd0 f i CodeTypeBuilder.obj
 0001:0002a050       ?CreateSafeNames@CCodeTypeBuilder@@AAEJPAVCCodeElementContainer@@@Z 0042b050 f   CodeTypeBuilder.obj
 0001:0002a310       ?Detach@?$CAutoPtr@VCCodeElementContainer@@@ATL@@QAEPAVCCodeElementContainer@@XZ 0042b310 f i CodeTypeBuilder.obj
 0001:0002a340       ?Detach@?$CAutoPtr@VCCodeTypedElement@@@ATL@@QAEPAVCCodeTypedElement@@XZ 0042b340 f i CodeTypeBuilder.obj
 0001:0002a370       ?DisableAutoRehash@?$CAtlMap@PAVCComplexType@@PAVCCodeElementContainer@@V?$CXSDElementPtrTraits@VCComplexType@@@@V?$CElementTraits@PAVCCodeElementContainer@@@ATL@@@ATL@@QAEXXZ 0042b370 f i CodeTypeBuilder.obj
 0001:0002a3a0       ?DisableAutoRehash@?$CAtlMap@PAVCSimpleType@@PAVCCodeElementContainer@@V?$CXSDElementPtrTraits@VCSimpleType@@@@V?$CElementTraits@PAVCCodeElementContainer@@@ATL@@@ATL@@QAEXXZ 0042b3a0 f i CodeTypeBuilder.obj
 0001:0002a3d0       ?DisableAutoRehash@?$CAtlMap@PAVCXSDElement@@PAVCCodeTypedElement@@V?$CElementTraits@PAVCXSDElement@@@ATL@@V?$CElementTraits@PAVCCodeTypedElement@@@4@@ATL@@QAEXXZ 0042b3d0 f i CodeTypeBuilder.obj
 0001:0002a400       ?DisableAutoRehash@?$CAtlMap@V?$CStringT@DV?$StrTraitATL@DV?$ChTraitsCRT@D@ATL@@@ATL@@@ATL@@HV?$CStringRefElementTraits@V?$CStringT@DV?$StrTraitATL@DV?$ChTraitsCRT@D@ATL@@@ATL@@@ATL@@@2@V?$CElementTraits@H@2@@ATL@@QAEXXZ 0042b400 f i CodeTypeBuilder.obj
 0001:0002a430       ?Empty@?$CSimpleStringT@D$0A@@ATL@@QAEXXZ 0042b430 f i CodeTypeBuilder.obj
 0001:0002a4c0       ?EnableAutoRehash@?$CAtlMap@PAVCComplexType@@PAVCCodeElementContainer@@V?$CXSDElementPtrTraits@VCComplexType@@@@V?$CElementTraits@PAVCCodeElementContainer@@@ATL@@@ATL@@QAEXXZ 0042b4c0 f i CodeTypeBuilder.obj
 0001:0002a530       ?EnableAutoRehash@?$CAtlMap@PAVCSimpleType@@PAVCCodeElementContainer@@V?$CXSDElementPtrTraits@VCSimpleType@@@@V?$CElementTraits@PAVCCodeElementContainer@@@ATL@@@ATL@@QAEXXZ 0042b530 f i CodeTypeBuilder.obj
 0001:0002a5a0       ?EnableAutoRehash@?$CAtlMap@PAVCXSDElement@@PAVCCodeTypedElement@@V?$CElementTraits@PAVCXSDElement@@@ATL@@V?$CElementTraits@PAVCCodeTypedElement@@@4@@ATL@@QAEXXZ 0042b5a0 f i CodeTypeBuilder.obj
 0001:0002a610       ?EnableAutoRehash@?$CAtlMap@V?$CStringT@DV?$StrTraitATL@DV?$ChTraitsCRT@D@ATL@@@ATL@@@ATL@@HV?$CStringRefElementTraits@V?$CStringT@DV?$StrTraitATL@DV?$ChTraitsCRT@D@ATL@@@ATL@@@ATL@@@2@V?$CElementTraits@H@2@@ATL@@QAEXXZ 0042b610 f i CodeTypeBuilder.obj
 0001:0002a680       ?FindNextNode@?$CAtlMap@PAVCComplexType@@PAVCCodeElementContainer@@V?$CXSDElementPtrTraits@VCComplexType@@@@V?$CElementTraits@PAVCCodeElementContainer@@@ATL@@@ATL@@ABEPAVCNode@12@PAV312@@Z 0042b680 f i CodeTypeBuilder.obj
 0001:0002a770       ?FindNextNode@?$CAtlMap@PAVCSimpleType@@PAVCCodeElementContainer@@V?$CXSDElementPtrTraits@VCSimpleType@@@@V?$CElementTraits@PAVCCodeElementContainer@@@ATL@@@ATL@@ABEPAVCNode@12@PAV312@@Z 0042b770 f i CodeTypeBuilder.obj
 0001:0002a860       ?FindNextNode@?$CAtlMap@PAVCXSDElement@@PAVCCodeTypedElement@@V?$CElementTraits@PAVCXSDElement@@@ATL@@V?$CElementTraits@PAVCCodeTypedElement@@@4@@ATL@@ABEPAVCNode@12@PAV312@@Z 0042b860 f i CodeTypeBuilder.obj
 0001:0002a950       ?FindNextNode@?$CAtlMap@V?$CStringT@_WV?$StrTraitATL@_WV?$ChTraitsCRT@_W@ATL@@@ATL@@@ATL@@PAVCWSDLPortTypeOperation@@V?$CStringRefElementTraits@V?$CStringT@_WV?$StrTraitATL@_WV?$ChTraitsCRT@_W@ATL@@@ATL@@@ATL@@@2@V?$CElementTraits@PAVCWSDLPortTypeOperation@@@2@@ATL@@ABEPAVCNode@12@PAV312@@Z 0042b950 f i CodeTypeBuilder.obj
 0001:0002aa40       ?FindNextNode@?$CAtlMap@V?$CStringT@_WV?$StrTraitATL@_WV?$ChTraitsCRT@_W@ATL@@@ATL@@@ATL@@PAVCWSDLService@@V?$CStringRefElementTraits@V?$CStringT@_WV?$StrTraitATL@_WV?$ChTraitsCRT@_W@ATL@@@ATL@@@ATL@@@2@V?$CElementTraits@PAVCWSDLService@@@2@@ATL@@ABEPAVCNode@12@PAV312@@Z 0042ba40 f i CodeTypeBuilder.obj
 0001:0002ab30       ?FindStringResourceInstance@?$StrTraitATL@DV?$ChTraitsCRT@D@ATL@@@ATL@@SAPAUHINSTANCE__@@I@Z 0042bb30 f i CodeTypeBuilder.obj
 0001:0002ab60       ?FindStringResourceInstance@?$StrTraitATL@_WV?$ChTraitsCRT@_W@ATL@@@ATL@@SAPAUHINSTANCE__@@I@Z 0042bb60 f i CodeTypeBuilder.obj
 0001:0002ab90       ?Fork@?$CSimpleStringT@D$0A@@ATL@@AAEXH@Z 0042bb90 f i CodeTypeBuilder.obj
 0001:0002ac80       ?Free@?$CAutoPtr@VCCodeElementContainer@@@ATL@@QAEXXZ 0042bc80 f i CodeTypeBuilder.obj
 0001:0002ace0       ?Free@?$CAutoPtr@VCCodeTypedElement@@@ATL@@QAEXXZ 0042bce0 f i CodeTypeBuilder.obj
 0001:0002ad40       ?FreeNode@?$CAtlList@PAVCCodeElementContainer@@V?$CElementTraits@PAVCCodeElementContainer@@@ATL@@@ATL@@AAEXPAVCNode@12@@Z 0042bd40 f i CodeTypeBuilder.obj
 0001:0002adf0       ?FreeNode@?$CAtlList@PAVCCodeTypedElement@@V?$CElementTraits@PAVCCodeTypedElement@@@ATL@@@ATL@@AAEXPAVCNode@12@@Z 0042bdf0 f i CodeTypeBuilder.obj
 0001:0002aea0       ?FreeNode@?$CAtlMap@PAVCComplexType@@HV?$CXSDElementPtrTraits@VCComplexType@@@@V?$CElementTraits@H@ATL@@@ATL@@AAEXPAVCNode@12@@Z 0042bea0 f i CodeTypeBuilder.obj
 0001:0002b000       ?FreeNode@?$CAtlMap@PAVCComplexType@@PAVCCodeElementContainer@@V?$CXSDElementPtrTraits@VCComplexType@@@@V?$CElementTraits@PAVCCodeElementContainer@@@ATL@@@ATL@@AAEXPAVCNode@12@@Z 0042c000 f i CodeTypeBuilder.obj
 0001:0002b160       ?FreeNode@?$CAtlMap@PAVCComplexType@@VCCodeTypedElement@@V?$CXSDElementPtrTraits@VCComplexType@@@@V?$CElementTraits@VCCodeTypedElement@@@ATL@@@ATL@@AAEXPAVCNode@12@@Z 0042c160 f i CodeTypeBuilder.obj
 0001:0002b2d0       ?FreeNode@?$CAtlMap@PAVCSimpleType@@PAVCCodeElementContainer@@V?$CXSDElementPtrTraits@VCSimpleType@@@@V?$CElementTraits@PAVCCodeElementContainer@@@ATL@@@ATL@@AAEXPAVCNode@12@@Z 0042c2d0 f i CodeTypeBuilder.obj
 0001:0002b430       ?FreeNode@?$CAtlMap@PAVCSimpleType@@VCCodeTypedElement@@V?$CXSDElementPtrTraits@VCSimpleType@@@@V?$CElementTraits@VCCodeTypedElement@@@ATL@@@ATL@@AAEXPAVCNode@12@@Z 0042c430 f i CodeTypeBuilder.obj
 0001:0002b5a0       ?FreeNode@?$CAtlMap@PAVCWSDLMessagePart@@PAVCCodeTypedElement@@V?$CElementTraits@PAVCWSDLMessagePart@@@ATL@@V?$CElementTraits@PAVCCodeTypedElement@@@4@@ATL@@AAEXPAVCNode@12@@Z 0042c5a0 f i CodeTypeBuilder.obj
 0001:0002b700       ?FreeNode@?$CAtlMap@PAVCXSDElement@@PAVCCodeTypedElement@@V?$CElementTraits@PAVCXSDElement@@@ATL@@V?$CElementTraits@PAVCCodeTypedElement@@@4@@ATL@@AAEXPAVCNode@12@@Z 0042c700 f i CodeTypeBuilder.obj
 0001:0002b860       ?FreeNode@?$CAtlMap@V?$CStringT@DV?$StrTraitATL@DV?$ChTraitsCRT@D@ATL@@@ATL@@@ATL@@HV?$CStringRefElementTraits@V?$CStringT@DV?$StrTraitATL@DV?$ChTraitsCRT@D@ATL@@@ATL@@@ATL@@@2@V?$CElementTraits@H@2@@ATL@@AAEXPAVCNode@12@@Z 0042c860 f i CodeTypeBuilder.obj
 0001:0002b9d0       ?FreePlexes@?$CAtlMap@PAVCComplexType@@HV?$CXSDElementPtrTraits@VCComplexType@@@@V?$CElementTraits@H@ATL@@@ATL@@AAEXXZ 0042c9d0 f i CodeTypeBuilder.obj
 0001:0002ba20       ?FreePlexes@?$CAtlMap@PAVCComplexType@@PAVCCodeElementContainer@@V?$CXSDElementPtrTraits@VCComplexType@@@@V?$CElementTraits@PAVCCodeElementContainer@@@ATL@@@ATL@@AAEXXZ 0042ca20 f i CodeTypeBuilder.obj
 0001:0002ba70       ?FreePlexes@?$CAtlMap@PAVCComplexType@@VCCodeTypedElement@@V?$CXSDElementPtrTraits@VCComplexType@@@@V?$CElementTraits@VCCodeTypedElement@@@ATL@@@ATL@@AAEXXZ 0042ca70 f i CodeTypeBuilder.obj
 0001:0002bac0       ?FreePlexes@?$CAtlMap@PAVCSimpleType@@PAVCCodeElementContainer@@V?$CXSDElementPtrTraits@VCSimpleType@@@@V?$CElementTraits@PAVCCodeElementContainer@@@ATL@@@ATL@@AAEXXZ 0042cac0 f i CodeTypeBuilder.obj
 0001:0002bb10       ?FreePlexes@?$CAtlMap@PAVCSimpleType@@VCCodeTypedElement@@V?$CXSDElementPtrTraits@VCSimpleType@@@@V?$CElementTraits@VCCodeTypedElement@@@ATL@@@ATL@@AAEXXZ 0042cb10 f i CodeTypeBuilder.obj
 0001:0002bb60       ?FreePlexes@?$CAtlMap@PAVCWSDLMessagePart@@PAVCCodeTypedElement@@V?$CElementTraits@PAVCWSDLMessagePart@@@ATL@@V?$CElementTraits@PAVCCodeTypedElement@@@4@@ATL@@AAEXXZ 0042cb60 f i CodeTypeBuilder.obj
 0001:0002bbb0       ?FreePlexes@?$CAtlMap@PAVCXSDElement@@PAVCCodeTypedElement@@V?$CElementTraits@PAVCXSDElement@@@ATL@@V?$CElementTraits@PAVCCodeTypedElement@@@4@@ATL@@AAEXXZ 0042cbb0 f i CodeTypeBuilder.obj
 0001:0002bc00       ?FreePlexes@?$CAtlMap@V?$CStringT@DV?$StrTraitATL@DV?$ChTraitsCRT@D@ATL@@@ATL@@@ATL@@HV?$CStringRefElementTraits@V?$CStringT@DV?$StrTraitATL@DV?$ChTraitsCRT@D@ATL@@@ATL@@@ATL@@@2@V?$CElementTraits@H@2@@ATL@@AAEXXZ 0042cc00 f i CodeTypeBuilder.obj
 0001:0002bc50       ?GetAllocLength@?$CSimpleStringT@D$0A@@ATL@@QBEHXZ 0042cc50 f i CodeTypeBuilder.obj
 0001:0002bc80       ?GetArrayDimensions@CCodeTypeBuilder@@AAEJPAVCAttribute@@PAVCCodeTypedElement@@@Z 0042cc80 f   CodeTypeBuilder.obj
 0001:0002bee0       ?GetArrayType@CElement@@QAEABV?$CStringT@_WV?$StrTraitATL@_WV?$ChTraitsCRT@_W@ATL@@@ATL@@@ATL@@XZ 0042cee0 f i CodeTypeBuilder.obj
 0001:0002bf10       ?GetAt@?$CAtlList@PAVCCodeElementContainer@@V?$CElementTraits@PAVCCodeElementContainer@@@ATL@@@ATL@@QAEAAPAVCCodeElementContainer@@PAU__POSITION@@@Z 0042cf10 f i CodeTypeBuilder.obj
 0001:0002bfc0       ?GetAt@?$CAtlList@PAVCCodeTypedElement@@V?$CElementTraits@PAVCCodeTypedElement@@@ATL@@@ATL@@QAEAAPAVCCodeTypedElement@@PAU__POSITION@@@Z 0042cfc0 f i CodeTypeBuilder.obj
 0001:0002c070       ?GetAt@?$CAtlList@PAVCWSDLMessagePart@@V?$CElementTraits@PAVCWSDLMessagePart@@@ATL@@@ATL@@QAEAAPAVCWSDLMessagePart@@PAU__POSITION@@@Z 0042d070 f i CodeTypeBuilder.obj
 0001:0002c120       ?GetBase@CComplexType@@QAEAAVCQName@@XZ 0042d120 f i CodeTypeBuilder.obj
 0001:0002c140       ?GetBase@CSimpleType@@QAEAAVCQName@@XZ 0042d140 f i CodeTypeBuilder.obj
 0001:0002c160       ?GetBaseTypeLength@?$ChTraitsCRT@D@ATL@@SAHPB_W@Z 0042d160 f i CodeTypeBuilder.obj
 0001:0002c1a0       ?GetBaseTypeLength@?$ChTraitsCRT@D@ATL@@SAHPB_WH@Z 0042d1a0 f i CodeTypeBuilder.obj
 0001:0002c1e0       ?GetBaseTypeLength@?$ChTraitsCRT@_W@ATL@@SAHPB_W@Z 0042d1e0 f i CodeTypeBuilder.obj
 0001:0002c210       ?GetBaseTypeLength@?$ChTraitsCRT@_W@ATL@@SAHPB_WH@Z 0042d210 f i CodeTypeBuilder.obj
 0001:0002c230       ?GetBuffer@?$CSimpleStringT@D$0A@@ATL@@QAEPADH@Z 0042d230 f i CodeTypeBuilder.obj
 0001:0002c260       ?GetCallFlags@CCodeElementContainer@@QAEKXZ 0042d260 f i CodeTypeBuilder.obj
 0001:0002c280       ?GetCallFlags@CCodeTypeBuilder@@AAEJPAVCWSDLMessage@@PAVCWSDLMessagePart@@PAVCWSDLPortTypeIO@@PAVCWSDLPortTypeOperation@@PAVCWSDLBinding@@PAK@Z 0042d280 f   CodeTypeBuilder.obj
 0001:0002c820       ?GetCallFlags@CCodeTypeBuilder@@AAEJPB_WPAVCWSDLMessage@@PAVCWSDLPortTypeIO@@PAVCWSDLPortTypeOperation@@PAVCWSDLBinding@@PAK@Z 0042d820 f   CodeTypeBuilder.obj
 0001:0002ca00       ?GetClassNameA@CCodeProxy@@QAEABV?$CStringT@DV?$StrTraitATL@DV?$ChTraitsCRT@D@ATL@@@ATL@@@ATL@@XZ 0042da00 f i CodeTypeBuilder.obj
 0001:0002ca20       ?GetCodeType@CCodeElement@@QAE?AW4CODETYPE@@XZ 0042da20 f i CodeTypeBuilder.obj
 0001:0002ca40       ?GetCodeTypeName@CCodeType@@QAEABV?$CStringT@DV?$StrTraitATL@DV?$ChTraitsCRT@D@ATL@@@ATL@@@ATL@@XZ 0042da40 f i CodeTypeBuilder.obj
 0001:0002ca60       ?GetComplexType@CSchema@@QAEPAVCComplexType@@ABV?$CStringT@_WV?$StrTraitATL@_WV?$ChTraitsCRT@_W@ATL@@@ATL@@@ATL@@0@Z 0042da60 f i CodeTypeBuilder.obj
 0001:0002cae0       ?GetContent@CComplexType@@QAEPAVCContent@@XZ 0042dae0 f i CodeTypeBuilder.obj
 0001:0002cb10       ?GetCount@?$CAtlArray@HV?$CElementTraits@H@ATL@@@ATL@@QBEIXZ 0042db10 f i CodeTypeBuilder.obj
 0001:0002cb30       ?GetCount@?$CAtlList@PAVCAttribute@@V?$CElementTraits@PAVCAttribute@@@ATL@@@ATL@@QBEIXZ 0042db30 f i CodeTypeBuilder.obj
 0001:0002cb50       ?GetCount@?$CAtlList@PAVCWSDLMessagePart@@V?$CElementTraits@PAVCWSDLMessagePart@@@ATL@@@ATL@@QBEIXZ 0042db50 f i CodeTypeBuilder.obj
 0001:0002cb70       ?GetCount@?$CAtlList@PAVCWSDLSoapHeaderElement@@V?$CElementTraits@PAVCWSDLSoapHeaderElement@@@ATL@@@ATL@@QBEIXZ 0042db70 f i CodeTypeBuilder.obj
 0001:0002cb90       ?GetCount@?$CAtlList@PAVCXSDElement@@V?$CElementTraits@PAVCXSDElement@@@ATL@@@ATL@@QBEIXZ 0042db90 f i CodeTypeBuilder.obj
 0001:0002cbb0       ?GetData@?$CSimpleStringT@D$0A@@ATL@@ABEPAUCStringData@2@XZ 0042dbb0 f i CodeTypeBuilder.obj
 0001:0002cbe0       ?GetDefaultManager@?$StrTraitATL@DV?$ChTraitsCRT@D@ATL@@@ATL@@SAPAUIAtlStringMgr@2@XZ 0042dbe0 f i CodeTypeBuilder.obj
 0001:0002cc00       ?GetDefaultManager@?$StrTraitATL@_WV?$ChTraitsCRT@_W@ATL@@@ATL@@SAPAUIAtlStringMgr@2@XZ 0042dc00 f i CodeTypeBuilder.obj
 0001:0002cc20       ?GetDocumentUri@CXMLDocument@@QAEABV?$CStringT@_WV?$StrTraitATL@_WV?$ChTraitsCRT@_W@ATL@@@ATL@@@ATL@@XZ 0042dc20 f i CodeTypeBuilder.obj
 0001:0002cc40       ?GetElement@CCodeTypedElement@@QAEPAVCXSDElement@@XZ 0042dc40 f i CodeTypeBuilder.obj
 0001:0002cc60       ?GetElement@CSchema@@QAEPAVCElement@@ABV?$CStringT@_WV?$StrTraitATL@_WV?$ChTraitsCRT@_W@ATL@@@ATL@@@ATL@@0@Z 0042dc60 f i CodeTypeBuilder.obj
 0001:0002cce0       ?GetElementInfo@CCodeTypeBuilder@@AAEJPAVCXMLElement@@AAVCQName@@AAV?$CStringT@_WV?$StrTraitATL@_WV?$ChTraitsCRT@_W@ATL@@@ATL@@@ATL@@@Z 0042dce0 f   CodeTypeBuilder.obj
 0001:0002cd50       ?GetElementName@CWSDLMessagePart@@QAEAAVCQName@@XZ 0042dd50 f i CodeTypeBuilder.obj
 0001:0002cd70       ?GetElementType@CXSDElement@@QAE?AW4XSDELEMENT_TYPE@@XZ 0042dd70 f i CodeTypeBuilder.obj
 0001:0002cd90       ?GetEncodingStyle@CWSDLSoapElement@@QAEAAV?$CStringT@_WV?$StrTraitATL@_WV?$ChTraitsCRT@_W@ATL@@@ATL@@@ATL@@XZ 0042dd90 f i CodeTypeBuilder.obj
 0001:0002cdb0       ?GetFirstAttribute@CComplexType@@QAEPAU__POSITION@@XZ 0042ddb0 f i CodeTypeBuilder.obj
 0001:0002cde0       ?GetFirstElement@CCodeElementContainer@@QAEPAU__POSITION@@XZ 0042dde0 f i CodeTypeBuilder.obj
 0001:0002ce10       ?GetFirstElement@CComplexType@@QAEPAU__POSITION@@XZ 0042de10 f i CodeTypeBuilder.obj
 0001:0002ce40       ?GetFirstElement@CElement@@QAEPAU__POSITION@@XZ 0042de40 f i CodeTypeBuilder.obj
 0001:0002ce70       ?GetFirstEnumeration@CSimpleType@@QAEPAU__POSITION@@XZ 0042de70 f i CodeTypeBuilder.obj
 0001:0002cea0       ?GetFirstHeader@CCodeElementContainer@@QAEPAU__POSITION@@XZ 0042dea0 f i CodeTypeBuilder.obj
 0001:0002ced0       ?GetFirstOperation@CWSDLPortType@@QAEPAU__POSITION@@XZ 0042ded0 f i CodeTypeBuilder.obj
 0001:0002cf00       ?GetFirstPart@CWSDLMessage@@QAEPAU__POSITION@@XZ 0042df00 f i CodeTypeBuilder.obj
 0001:0002cf30       ?GetFirstPort@CWSDLService@@QAEPAU__POSITION@@XZ 0042df30 f i CodeTypeBuilder.obj
 0001:0002cf60       ?GetFirstService@CWSDLDocument@@QAEPAU__POSITION@@XZ 0042df60 f i CodeTypeBuilder.obj
 0001:0002cf90       ?GetFirstSoapHeader@CWSDLPortTypeIO@@QAEPAU__POSITION@@XZ 0042df90 f i CodeTypeBuilder.obj
 0001:0002cfc0       ?GetFlags@CCodeElement@@QAEKXZ 0042dfc0 f i CodeTypeBuilder.obj
 0001:0002cfe0       ?GetFreeNode@?$CAtlList@PAVCCodeElementContainer@@V?$CElementTraits@PAVCCodeElementContainer@@@ATL@@@ATL@@AAEXXZ 0042dfe0 f i CodeTypeBuilder.obj
 0001:0002d0f0       ?GetFreeNode@?$CAtlList@PAVCCodeTypedElement@@V?$CElementTraits@PAVCCodeTypedElement@@@ATL@@@ATL@@AAEXXZ 0042e0f0 f i CodeTypeBuilder.obj
 0001:0002d200       ?GetHash@CNode@?$CAtlMap@PAVCComplexType@@HV?$CXSDElementPtrTraits@VCComplexType@@@@V?$CElementTraits@H@ATL@@@ATL@@QBEIXZ 0042e200 f i CodeTypeBuilder.obj
 0001:0002d220       ?GetHash@CNode@?$CAtlMap@PAVCComplexType@@PAVCCodeElementContainer@@V?$CXSDElementPtrTraits@VCComplexType@@@@V?$CElementTraits@PAVCCodeElementContainer@@@ATL@@@ATL@@QBEIXZ 0042e220 f i CodeTypeBuilder.obj
 0001:0002d240       ?GetHash@CNode@?$CAtlMap@PAVCComplexType@@VCCodeTypedElement@@V?$CXSDElementPtrTraits@VCComplexType@@@@V?$CElementTraits@VCCodeTypedElement@@@ATL@@@ATL@@QBEIXZ 0042e240 f i CodeTypeBuilder.obj
 0001:0002d260       ?GetHash@CNode@?$CAtlMap@PAVCSimpleType@@PAVCCodeElementContainer@@V?$CXSDElementPtrTraits@VCSimpleType@@@@V?$CElementTraits@PAVCCodeElementContainer@@@ATL@@@ATL@@QBEIXZ 0042e260 f i CodeTypeBuilder.obj
 0001:0002d280       ?GetHash@CNode@?$CAtlMap@PAVCSimpleType@@VCCodeTypedElement@@V?$CXSDElementPtrTraits@VCSimpleType@@@@V?$CElementTraits@VCCodeTypedElement@@@ATL@@@ATL@@QBEIXZ 0042e280 f i CodeTypeBuilder.obj
 0001:0002d2a0       ?GetHash@CNode@?$CAtlMap@PAVCWSDLMessagePart@@PAVCCodeTypedElement@@V?$CElementTraits@PAVCWSDLMessagePart@@@ATL@@V?$CElementTraits@PAVCCodeTypedElement@@@4@@ATL@@QBEIXZ 0042e2a0 f i CodeTypeBuilder.obj
 0001:0002d2c0       ?GetHash@CNode@?$CAtlMap@PAVCXSDElement@@PAVCCodeTypedElement@@V?$CElementTraits@PAVCXSDElement@@@ATL@@V?$CElementTraits@PAVCCodeTypedElement@@@4@@ATL@@QBEIXZ 0042e2c0 f i CodeTypeBuilder.obj
 0001:0002d2e0       ?GetHash@CNode@?$CAtlMap@V?$CStringT@DV?$StrTraitATL@DV?$ChTraitsCRT@D@ATL@@@ATL@@@ATL@@HV?$CStringRefElementTraits@V?$CStringT@DV?$StrTraitATL@DV?$ChTraitsCRT@D@ATL@@@ATL@@@ATL@@@2@V?$CElementTraits@H@2@@ATL@@QBEIXZ 0042e2e0 f i CodeTypeBuilder.obj
 0001:0002d300       ?GetHash@CNode@?$CAtlMap@V?$CStringT@_WV?$StrTraitATL@_WV?$ChTraitsCRT@_W@ATL@@@ATL@@@ATL@@PAVCComplexType@@V?$CStringRefElementTraits@V?$CStringT@_WV?$StrTraitATL@_WV?$ChTraitsCRT@_W@ATL@@@ATL@@@ATL@@@2@V?$CElementTraits@PAVCComplexType@@@2@@ATL@@QBEIXZ 0042e300 f i CodeTypeBuilder.obj
 0001:0002d320       ?GetHash@CNode@?$CAtlMap@V?$CStringT@_WV?$StrTraitATL@_WV?$ChTraitsCRT@_W@ATL@@@ATL@@@ATL@@PAVCElement@@V?$CStringRefElementTraits@V?$CStringT@_WV?$StrTraitATL@_WV?$ChTraitsCRT@_W@ATL@@@ATL@@@ATL@@@2@V?$CElementTraits@PAVCElement@@@2@@ATL@@QBEIXZ 0042e320 f i CodeTypeBuilder.obj
 0001:0002d340       ?GetHash@CNode@?$CAtlMap@V?$CStringT@_WV?$StrTraitATL@_WV?$ChTraitsCRT@_W@ATL@@@ATL@@@ATL@@PAVCSimpleType@@V?$CStringRefElementTraits@V?$CStringT@_WV?$StrTraitATL@_WV?$ChTraitsCRT@_W@ATL@@@ATL@@@ATL@@@2@V?$CElementTraits@PAVCSimpleType@@@2@@ATL@@QBEIXZ 0042e340 f i CodeTypeBuilder.obj
 0001:0002d360       ?GetHash@CNode@?$CAtlMap@V?$CStringT@_WV?$StrTraitATL@_WV?$ChTraitsCRT@_W@ATL@@@ATL@@@ATL@@PAVCWSDLPortTypeOperation@@V?$CStringRefElementTraits@V?$CStringT@_WV?$StrTraitATL@_WV?$ChTraitsCRT@_W@ATL@@@ATL@@@ATL@@@2@V?$CElementTraits@PAVCWSDLPortTypeOperation@@@2@@ATL@@QBEIXZ 0042e360 f i CodeTypeBuilder.obj
 0001:0002d380       ?GetHash@CNode@?$CAtlMap@V?$CStringT@_WV?$StrTraitATL@_WV?$ChTraitsCRT@_W@ATL@@@ATL@@@ATL@@PAVCWSDLService@@V?$CStringRefElementTraits@V?$CStringT@_WV?$StrTraitATL@_WV?$ChTraitsCRT@_W@ATL@@@ATL@@@ATL@@@2@V?$CElementTraits@PAVCWSDLService@@@2@@ATL@@QBEIXZ 0042e380 f i CodeTypeBuilder.obj
 0001:0002d3a0       ?GetHeadPosition@?$CAtlList@PAVCAttribute@@V?$CElementTraits@PAVCAttribute@@@ATL@@@ATL@@QBEPAU__POSITION@@XZ 0042e3a0 f i CodeTypeBuilder.obj
 0001:0002d3c0       ?GetHeadPosition@?$CAtlList@PAVCCodeElementContainer@@V?$CElementTraits@PAVCCodeElementContainer@@@ATL@@@ATL@@QBEPAU__POSITION@@XZ 0042e3c0 f i CodeTypeBuilder.obj
 0001:0002d3e0       ?GetHeadPosition@?$CAtlList@PAVCCodeTypedElement@@V?$CElementTraits@PAVCCodeTypedElement@@@ATL@@@ATL@@QBEPAU__POSITION@@XZ 0042e3e0 f i CodeTypeBuilder.obj
 0001:0002d400       ?GetHeadPosition@?$CAtlList@PAVCElement@@V?$CElementTraits@PAVCElement@@@ATL@@@ATL@@QBEPAU__POSITION@@XZ 0042e400 f i CodeTypeBuilder.obj
 0001:0002d420       ?GetHeadPosition@?$CAtlList@PAVCWSDLMessagePart@@V?$CElementTraits@PAVCWSDLMessagePart@@@ATL@@@ATL@@QBEPAU__POSITION@@XZ 0042e420 f i CodeTypeBuilder.obj
 0001:0002d440       ?GetHeadPosition@?$CAtlList@PAVCWSDLPort@@V?$CElementTraits@PAVCWSDLPort@@@ATL@@@ATL@@QBEPAU__POSITION@@XZ 0042e440 f i CodeTypeBuilder.obj
 0001:0002d460       ?GetHeadPosition@?$CAtlList@PAVCWSDLSoapHeaderElement@@V?$CElementTraits@PAVCWSDLSoapHeaderElement@@@ATL@@@ATL@@QBEPAU__POSITION@@XZ 0042e460 f i CodeTypeBuilder.obj
 0001:0002d480       ?GetHeadPosition@?$CAtlList@PAVCXSDElement@@V?$CElementTraits@PAVCXSDElement@@@ATL@@@ATL@@QBEPAU__POSITION@@XZ 0042e480 f i CodeTypeBuilder.obj
 0001:0002d4a0       ?GetHeadPosition@?$CAtlList@VCEnumeration@@VCEnumerationElementTraits@@@ATL@@QBEPAU__POSITION@@XZ 0042e4a0 f i CodeTypeBuilder.obj
 0001:0002d4c0       ?GetHeaderByName@CCodeTypeBuilder@@AAEPAVCCodeTypedElement@@PAVCCodeElementContainer@@ABV?$CStringT@_WV?$StrTraitATL@_WV?$ChTraitsCRT@_W@ATL@@@ATL@@@ATL@@@Z 0042e4c0 f   CodeTypeBuilder.obj
 0001:0002d570       ?GetInput@CWSDLPortTypeOperation@@QAEPAVCWSDLPortTypeIO@@XZ 0042e570 f i CodeTypeBuilder.obj
 0001:0002d5a0       ?GetLength@?$CSimpleStringT@D$0A@@ATL@@QBEHXZ 0042e5a0 f i CodeTypeBuilder.obj
 0001:0002d5d0       ?GetManager@?$CSimpleStringT@D$0A@@ATL@@QBEPAUIAtlStringMgr@2@XZ 0042e5d0 f i CodeTypeBuilder.obj
 0001:0002d630       ?GetManager@?$CStringT@DV?$StrTraitATL@DV?$ChTraitsCRT@D@ATL@@@ATL@@@ATL@@QBEPAUIAtlStringMgr@2@XZ 0042e630 f i CodeTypeBuilder.obj
 0001:0002d680       ?GetMaxOccurs@CElement@@QAEHXZ 0042e680 f i CodeTypeBuilder.obj
 0001:0002d6b0       ?GetMessageName@CWSDLSoapHeaderElement@@QAEAAVCQName@@XZ 0042e6b0 f i CodeTypeBuilder.obj
 0001:0002d6d0       ?GetMinOccurs@CElement@@QAEHXZ 0042e6d0 f i CodeTypeBuilder.obj
 0001:0002d700       ?GetName@CCodeElement@@QAEABV?$CStringT@_WV?$StrTraitATL@_WV?$ChTraitsCRT@_W@ATL@@@ATL@@@ATL@@XZ 0042e700 f i CodeTypeBuilder.obj
 0001:0002d720       ?GetName@CCodeElementContainer@@QAEABV?$CStringT@DV?$StrTraitATL@DV?$ChTraitsCRT@D@ATL@@@ATL@@@ATL@@XZ 0042e720 f i CodeTypeBuilder.obj
 0001:0002d740       ?GetName@CComplexType@@QAEABV?$CStringT@_WV?$StrTraitATL@_WV?$ChTraitsCRT@_W@ATL@@@ATL@@@ATL@@XZ 0042e740 f i CodeTypeBuilder.obj
 0001:0002d760       ?GetName@CElement@@QAEABV?$CStringT@_WV?$StrTraitATL@_WV?$ChTraitsCRT@_W@ATL@@@ATL@@@ATL@@XZ 0042e760 f i CodeTypeBuilder.obj
 0001:0002d780       ?GetName@CQName@@QAEAAV?$CStringT@_WV?$StrTraitATL@_WV?$ChTraitsCRT@_W@ATL@@@ATL@@@ATL@@XZ 0042e780 f i CodeTypeBuilder.obj
 0001:0002d7a0       ?GetName@CSimpleType@@QAEABV?$CStringT@_WV?$StrTraitATL@_WV?$ChTraitsCRT@_W@ATL@@@ATL@@@ATL@@XZ 0042e7a0 f i CodeTypeBuilder.obj
 0001:0002d7c0       ?GetName@CWSDLMessagePart@@QAEABV?$CStringT@_WV?$StrTraitATL@_WV?$ChTraitsCRT@_W@ATL@@@ATL@@@ATL@@XZ 0042e7c0 f i CodeTypeBuilder.obj
 0001:0002d7e0       ?GetName@CWSDLPortTypeOperation@@QAEABV?$CStringT@_WV?$StrTraitATL@_WV?$ChTraitsCRT@_W@ATL@@@ATL@@@ATL@@XZ 0042e7e0 f i CodeTypeBuilder.obj
 0001:0002d800       ?GetName@CWSDLService@@QAEABV?$CStringT@_WV?$StrTraitATL@_WV?$ChTraitsCRT@_W@ATL@@@ATL@@@ATL@@XZ 0042e800 f i CodeTypeBuilder.obj
 0001:0002d820       ?GetNameFromSchemaElement@CCodeTypeBuilder@@AAEJPAVCXSDElement@@AAV?$CStringT@_WV?$StrTraitATL@_WV?$ChTraitsCRT@_W@ATL@@@ATL@@@ATL@@@Z 0042e820 f   CodeTypeBuilder.obj
 0001:0002d920       ?GetNamedItem@CSchema@@QAEPAVCXSDElement@@ABV?$CStringT@_WV?$StrTraitATL@_WV?$ChTraitsCRT@_W@ATL@@@ATL@@@ATL@@0@Z 0042e920 f i CodeTypeBuilder.obj
 0001:0002da50       ?GetNamespace@CCodeElementContainer@@QAEAAV?$CStringT@DV?$StrTraitATL@DV?$ChTraitsCRT@D@ATL@@@ATL@@@ATL@@XZ 0042ea50 f i CodeTypeBuilder.obj
 0001:0002da70       ?GetNamespace@CCodeTypedElement@@QAEAAV?$CStringT@_WV?$StrTraitATL@_WV?$ChTraitsCRT@_W@ATL@@@ATL@@@ATL@@XZ 0042ea70 f i CodeTypeBuilder.obj
 0001:0002da90       ?GetNamespace@CWSDLSoapElement@@QAEAAV?$CStringT@_WV?$StrTraitATL@_WV?$ChTraitsCRT@_W@ATL@@@ATL@@@ATL@@XZ 0042ea90 f i CodeTypeBuilder.obj
 0001:0002dab0       ?GetNext@?$CAtlList@PAVCAttribute@@V?$CElementTraits@PAVCAttribute@@@ATL@@@ATL@@QAEAAPAVCAttribute@@AAPAU__POSITION@@@Z 0042eab0 f i CodeTypeBuilder.obj
 0001:0002db70       ?GetNext@?$CAtlList@PAVCCodeElementContainer@@V?$CElementTraits@PAVCCodeElementContainer@@@ATL@@@ATL@@QAEAAPAVCCodeElementContainer@@AAPAU__POSITION@@@Z 0042eb70 f i CodeTypeBuilder.obj
 0001:0002dc30       ?GetNext@?$CAtlList@PAVCCodeTypedElement@@V?$CElementTraits@PAVCCodeTypedElement@@@ATL@@@ATL@@QAEAAPAVCCodeTypedElement@@AAPAU__POSITION@@@Z 0042ec30 f i CodeTypeBuilder.obj
 0001:0002dcf0       ?GetNext@?$CAtlList@PAVCElement@@V?$CElementTraits@PAVCElement@@@ATL@@@ATL@@QAEAAPAVCElement@@AAPAU__POSITION@@@Z 0042ecf0 f i CodeTypeBuilder.obj
 0001:0002ddb0       ?GetNext@?$CAtlList@PAVCWSDLMessagePart@@V?$CElementTraits@PAVCWSDLMessagePart@@@ATL@@@ATL@@QAEAAPAVCWSDLMessagePart@@AAPAU__POSITION@@@Z 0042edb0 f i CodeTypeBuilder.obj
 0001:0002de70       ?GetNext@?$CAtlList@PAVCWSDLPort@@V?$CElementTraits@PAVCWSDLPort@@@ATL@@@ATL@@QAEAAPAVCWSDLPort@@AAPAU__POSITION@@@Z 0042ee70 f i CodeTypeBuilder.obj
 0001:0002df30       ?GetNext@?$CAtlList@PAVCWSDLSoapHeaderElement@@V?$CElementTraits@PAVCWSDLSoapHeaderElement@@@ATL@@@ATL@@QAEAAPAVCWSDLSoapHeaderElement@@AAPAU__POSITION@@@Z 0042ef30 f i CodeTypeBuilder.obj
 0001:0002dff0       ?GetNext@?$CAtlList@PAVCXSDElement@@V?$CElementTraits@PAVCXSDElement@@@ATL@@@ATL@@QAEAAPAVCXSDElement@@AAPAU__POSITION@@@Z 0042eff0 f i CodeTypeBuilder.obj
 0001:0002e0b0       ?GetNext@?$CAtlList@VCEnumeration@@VCEnumerationElementTraits@@@ATL@@QAEAAVCEnumeration@@AAPAU__POSITION@@@Z 0042f0b0 f i CodeTypeBuilder.obj
 0001:0002e170       ?GetNext@?$CAtlMap@PAVCComplexType@@PAVCCodeElementContainer@@V?$CXSDElementPtrTraits@VCComplexType@@@@V?$CElementTraits@PAVCCodeElementContainer@@@ATL@@@ATL@@QAEPAVCPair@12@AAPAU__POSITION@@@Z 0042f170 f i CodeTypeBuilder.obj
 0001:0002e230       ?GetNext@?$CAtlMap@PAVCSimpleType@@PAVCCodeElementContainer@@V?$CXSDElementPtrTraits@VCSimpleType@@@@V?$CElementTraits@PAVCCodeElementContainer@@@ATL@@@ATL@@QAEPAVCPair@12@AAPAU__POSITION@@@Z 0042f230 f i CodeTypeBuilder.obj
 0001:0002e2f0       ?GetNext@?$CAtlMap@PAVCXSDElement@@PAVCCodeTypedElement@@V?$CElementTraits@PAVCXSDElement@@@ATL@@V?$CElementTraits@PAVCCodeTypedElement@@@4@@ATL@@QAEPAVCPair@12@AAPAU__POSITION@@@Z 0042f2f0 f i CodeTypeBuilder.obj
 0001:0002e3b0       ?GetNextAttribute@CComplexType@@QAEPAVCAttribute@@AAPAU__POSITION@@@Z 0042f3b0 f i CodeTypeBuilder.obj
 0001:0002e3e0       ?GetNextElement@CCodeElementContainer@@QAEPAVCCodeTypedElement@@AAPAU__POSITION@@@Z 0042f3e0 f i CodeTypeBuilder.obj
 0001:0002e410       ?GetNextElement@CComplexType@@QAEPAVCElement@@AAPAU__POSITION@@@Z 0042f410 f i CodeTypeBuilder.obj
 0001:0002e440       ?GetNextElement@CElement@@QAEPAVCXSDElement@@AAPAU__POSITION@@@Z 0042f440 f i CodeTypeBuilder.obj
 0001:0002e470       ?GetNextEnumeration@CSimpleType@@QAEPAVCEnumeration@@AAPAU__POSITION@@@Z 0042f470 f i CodeTypeBuilder.obj
 0001:0002e4a0       ?GetNextHeader@CCodeElementContainer@@QAEPAVCCodeTypedElement@@AAPAU__POSITION@@@Z 0042f4a0 f i CodeTypeBuilder.obj
 0001:0002e4d0       ?GetNextOperation@CWSDLPortType@@QAEPAVCWSDLPortTypeOperation@@AAPAU__POSITION@@@Z 0042f4d0 f i CodeTypeBuilder.obj
 0001:0002e500       ?GetNextPart@CWSDLMessage@@QAEPAVCWSDLMessagePart@@AAPAU__POSITION@@@Z 0042f500 f i CodeTypeBuilder.obj
 0001:0002e530       ?GetNextPort@CWSDLService@@QAEPAVCWSDLPort@@AAPAU__POSITION@@@Z 0042f530 f i CodeTypeBuilder.obj
 0001:0002e560       ?GetNextService@CWSDLDocument@@QAEPAVCWSDLService@@AAPAU__POSITION@@@Z 0042f560 f i CodeTypeBuilder.obj
 0001:0002e5a0       ?GetNextSoapHeader@CWSDLPortTypeIO@@QAEPAVCWSDLSoapHeaderElement@@AAPAU__POSITION@@@Z 0042f5a0 f i CodeTypeBuilder.obj
 0001:0002e5d0       ?GetNextValue@?$CAtlMap@V?$CStringT@_WV?$StrTraitATL@_WV?$ChTraitsCRT@_W@ATL@@@ATL@@@ATL@@PAVCWSDLPortTypeOperation@@V?$CStringRefElementTraits@V?$CStringT@_WV?$StrTraitATL@_WV?$ChTraitsCRT@_W@ATL@@@ATL@@@ATL@@@2@V?$CElementTraits@PAVCWSDLPortTypeOperation@@@2@@ATL@@QAEAAPAVCWSDLPortTypeOperation@@AAPAU__POSITION@@@Z 0042f5d0 f i CodeTypeBuilder.obj
 0001:0002e6e0       ?GetNextValue@?$CAtlMap@V?$CStringT@_WV?$StrTraitATL@_WV?$ChTraitsCRT@_W@ATL@@@ATL@@@ATL@@PAVCWSDLService@@V?$CStringRefElementTraits@V?$CStringT@_WV?$StrTraitATL@_WV?$ChTraitsCRT@_W@ATL@@@ATL@@@ATL@@@2@V?$CElementTraits@PAVCWSDLService@@@2@@ATL@@QAEAAPAVCWSDLService@@AAPAU__POSITION@@@Z 0042f6e0 f i CodeTypeBuilder.obj
 0001:0002e7f0       ?GetNode@?$CAtlMap@PAVCComplexType@@HV?$CXSDElementPtrTraits@VCComplexType@@@@V?$CElementTraits@H@ATL@@@ATL@@ABEPAVCNode@12@PAVCComplexType@@AAI1AAPAV312@@Z 0042f7f0 f i CodeTypeBuilder.obj
 0001:0002e8e0       ?GetNode@?$CAtlMap@PAVCComplexType@@PAVCCodeElementContainer@@V?$CXSDElementPtrTraits@VCComplexType@@@@V?$CElementTraits@PAVCCodeElementContainer@@@ATL@@@ATL@@ABEPAVCNode@12@PAVCComplexType@@AAI1AAPAV312@@Z 0042f8e0 f i CodeTypeBuilder.obj
 0001:0002e9d0       ?GetNode@?$CAtlMap@PAVCComplexType@@VCCodeTypedElement@@V?$CXSDElementPtrTraits@VCComplexType@@@@V?$CElementTraits@VCCodeTypedElement@@@ATL@@@ATL@@ABEPAVCNode@12@PAVCComplexType@@AAI1AAPAV312@@Z 0042f9d0 f i CodeTypeBuilder.obj
 0001:0002eac0       ?GetNode@?$CAtlMap@PAVCSimpleType@@PAVCCodeElementContainer@@V?$CXSDElementPtrTraits@VCSimpleType@@@@V?$CElementTraits@PAVCCodeElementContainer@@@ATL@@@ATL@@ABEPAVCNode@12@PAVCSimpleType@@AAI1AAPAV312@@Z 0042fac0 f i CodeTypeBuilder.obj
 0001:0002ebb0       ?GetNode@?$CAtlMap@PAVCSimpleType@@VCCodeTypedElement@@V?$CXSDElementPtrTraits@VCSimpleType@@@@V?$CElementTraits@VCCodeTypedElement@@@ATL@@@ATL@@ABEPAVCNode@12@PAVCSimpleType@@AAI1AAPAV312@@Z 0042fbb0 f i CodeTypeBuilder.obj
 0001:0002eca0       ?GetNode@?$CAtlMap@PAVCWSDLMessagePart@@PAVCCodeTypedElement@@V?$CElementTraits@PAVCWSDLMessagePart@@@ATL@@V?$CElementTraits@PAVCCodeTypedElement@@@4@@ATL@@ABEPAVCNode@12@ABQAVCWSDLMessagePart@@AAI1AAPAV312@@Z 0042fca0 f i CodeTypeBuilder.obj
 0001:0002ed80       ?GetNode@?$CAtlMap@PAVCXSDElement@@PAVCCodeTypedElement@@V?$CElementTraits@PAVCXSDElement@@@ATL@@V?$CElementTraits@PAVCCodeTypedElement@@@4@@ATL@@ABEPAVCNode@12@ABQAVCXSDElement@@AAI1AAPAV312@@Z 0042fd80 f i CodeTypeBuilder.obj
 0001:0002ee60       ?GetNode@?$CAtlMap@V?$CStringT@DV?$StrTraitATL@DV?$ChTraitsCRT@D@ATL@@@ATL@@@ATL@@HV?$CStringRefElementTraits@V?$CStringT@DV?$StrTraitATL@DV?$ChTraitsCRT@D@ATL@@@ATL@@@ATL@@@2@V?$CElementTraits@H@2@@ATL@@ABEPAVCNode@12@ABV?$CStringT@DV?$StrTraitATL@DV?$ChTraitsCRT@D@ATL@@@ATL@@@2@AAI1AAPAV312@@Z 0042fe60 f i CodeTypeBuilder.obj
 0001:0002ef40       ?GetNode@?$CAtlMap@V?$CStringT@_WV?$StrTraitATL@_WV?$ChTraitsCRT@_W@ATL@@@ATL@@@ATL@@PAVCComplexType@@V?$CStringRefElementTraits@V?$CStringT@_WV?$StrTraitATL@_WV?$ChTraitsCRT@_W@ATL@@@ATL@@@ATL@@@2@V?$CElementTraits@PAVCComplexType@@@2@@ATL@@ABEPAVCNode@12@ABV?$CStringT@_WV?$StrTraitATL@_WV?$ChTraitsCRT@_W@ATL@@@ATL@@@2@AAI1AAPAV312@@Z 0042ff40 f i CodeTypeBuilder.obj
 0001:0002f020       ?GetNode@?$CAtlMap@V?$CStringT@_WV?$StrTraitATL@_WV?$ChTraitsCRT@_W@ATL@@@ATL@@@ATL@@PAVCElement@@V?$CStringRefElementTraits@V?$CStringT@_WV?$StrTraitATL@_WV?$ChTraitsCRT@_W@ATL@@@ATL@@@ATL@@@2@V?$CElementTraits@PAVCElement@@@2@@ATL@@ABEPAVCNode@12@ABV?$CStringT@_WV?$StrTraitATL@_WV?$ChTraitsCRT@_W@ATL@@@ATL@@@2@AAI1AAPAV312@@Z 00430020 f i CodeTypeBuilder.obj
 0001:0002f100       ?GetNode@?$CAtlMap@V?$CStringT@_WV?$StrTraitATL@_WV?$ChTraitsCRT@_W@ATL@@@ATL@@@ATL@@PAVCSimpleType@@V?$CStringRefElementTraits@V?$CStringT@_WV?$StrTraitATL@_WV?$ChTraitsCRT@_W@ATL@@@ATL@@@ATL@@@2@V?$CElementTraits@PAVCSimpleType@@@2@@ATL@@ABEPAVCNode@12@ABV?$CStringT@_WV?$StrTraitATL@_WV?$ChTraitsCRT@_W@ATL@@@ATL@@@2@AAI1AAPAV312@@Z 00430100 f i CodeTypeBuilder.obj
 0001:0002f1e0       ?GetNode@?$CAtlMap@V?$CStringT@_WV?$StrTraitATL@_WV?$ChTraitsCRT@_W@ATL@@@ATL@@@ATL@@PAVCWSDLPortTypeOperation@@V?$CStringRefElementTraits@V?$CStringT@_WV?$StrTraitATL@_WV?$ChTraitsCRT@_W@ATL@@@ATL@@@ATL@@@2@V?$CElementTraits@PAVCWSDLPortTypeOperation@@@2@@ATL@@ABEPAVCNode@12@ABV?$CStringT@_WV?$StrTraitATL@_WV?$ChTraitsCRT@_W@ATL@@@ATL@@@2@AAI1AAPAV312@@Z 004301e0 f i CodeTypeBuilder.obj
 0001:0002f2c0       ?GetNullable@CElement@@QAEHXZ 004302c0 f i CodeTypeBuilder.obj
 0001:0002f2f0       ?GetNumAttributes@CComplexType@@QAEIXZ 004302f0 f i CodeTypeBuilder.obj
 0001:0002f320       ?GetNumChildren@CElement@@QAEIXZ 00430320 f i CodeTypeBuilder.obj
 0001:0002f350       ?GetNumParts@CWSDLMessage@@QAEIXZ 00430350 f i CodeTypeBuilder.obj
 0001:0002f380       ?GetNumSoapHeaders@CWSDLPortTypeIO@@QAEIXZ 00430380 f i CodeTypeBuilder.obj
 0001:0002f3b0       ?GetOperation@CWSDLBinding@@QAEPAVCWSDLPortTypeOperation@@ABV?$CStringT@_WV?$StrTraitATL@_WV?$ChTraitsCRT@_W@ATL@@@ATL@@@ATL@@@Z 004303b0 f i CodeTypeBuilder.obj
 0001:0002f400       ?GetOutput@CWSDLPortTypeOperation@@QAEPAVCWSDLPortTypeIO@@XZ 00430400 f i CodeTypeBuilder.obj
 0001:0002f430       ?GetParameterByName@CCodeTypeBuilder@@AAEPAVCCodeTypedElement@@PAVCCodeElementContainer@@ABV?$CStringT@_WV?$StrTraitATL@_WV?$ChTraitsCRT@_W@ATL@@@ATL@@@ATL@@@Z 00430430 f   CodeTypeBuilder.obj
 0001:0002f520       ?GetParentDocument@CXMLElement@@QAEPAVCXMLDocument@@XZ 00430520 f i CodeTypeBuilder.obj
 0001:0002f540       ?GetParentSchema@CXSDElement@@QAEPAVCSchema@@XZ 00430540 f i CodeTypeBuilder.obj
 0001:0002f560       ?GetPartByName@CWSDLMessage@@QAEPAVCWSDLMessagePart@@AAV?$CStringT@_WV?$StrTraitATL@_WV?$ChTraitsCRT@_W@ATL@@@ATL@@@ATL@@@Z 00430560 f i CodeTypeBuilder.obj
 0001:0002f610       ?GetParts@CWSDLSoapElementEx@@QAEAAV?$CStringT@_WV?$StrTraitATL@_WV?$ChTraitsCRT@_W@ATL@@@ATL@@@ATL@@XZ 00430610 f i CodeTypeBuilder.obj
 0001:0002f630       ?GetPrefix@CQName@@QAEAAV?$CStringT@_WV?$StrTraitATL@_WV?$ChTraitsCRT@_W@ATL@@@ATL@@@ATL@@XZ 00430630 f i CodeTypeBuilder.obj
 0001:0002f650       ?GetRefName@CAttribute@@QAEAAVCQName@@XZ 00430650 f i CodeTypeBuilder.obj
 0001:0002f670       ?GetRequired@CWSDLSoapHeaderElement@@QAE_NXZ 00430670 f i CodeTypeBuilder.obj
 0001:0002f690       ?GetSafeCodeTypeName@CCodeType@@QAEAAV?$CStringT@DV?$StrTraitATL@DV?$ChTraitsCRT@D@ATL@@@ATL@@@ATL@@XZ 00430690 f i CodeTypeBuilder.obj
 0001:0002f6b0       ?GetSafeName@CCodeElement@@QAEAAV?$CStringT@DV?$StrTraitATL@DV?$ChTraitsCRT@D@ATL@@@ATL@@@ATL@@XZ 004306b0 f i CodeTypeBuilder.obj
 0001:0002f6d0       ?GetSafeName@CCodeElementContainer@@QAEAAV?$CStringT@DV?$StrTraitATL@DV?$ChTraitsCRT@D@ATL@@@ATL@@@ATL@@XZ 004306d0 f i CodeTypeBuilder.obj
 0001:0002f6f0       ?GetSimpleType@CSchema@@QAEPAVCSimpleType@@ABV?$CStringT@_WV?$StrTraitATL@_WV?$ChTraitsCRT@_W@ATL@@@ATL@@@ATL@@0@Z 004306f0 f i CodeTypeBuilder.obj
 0001:0002f770       ?GetSizeIs@CElement@@QAEABV?$CStringT@_WV?$StrTraitATL@_WV?$ChTraitsCRT@_W@ATL@@@ATL@@@ATL@@XZ 00430770 f i CodeTypeBuilder.obj
 0001:0002f7a0       ?GetSoapAction@CSoapOperation@@QAEABV?$CStringT@_WV?$StrTraitATL@_WV?$ChTraitsCRT@_W@ATL@@@ATL@@@ATL@@XZ 004307a0 f i CodeTypeBuilder.obj
 0001:0002f7c0       ?GetSoapAddress@CWSDLPort@@QAEABV?$CStringT@_WV?$StrTraitATL@_WV?$ChTraitsCRT@_W@ATL@@@ATL@@@ATL@@XZ 004307c0 f i CodeTypeBuilder.obj
 0001:0002f7e0       ?GetSoapBinding@CWSDLBinding@@QAEPAVCSoapBinding@@XZ 004307e0 f i CodeTypeBuilder.obj
 0001:0002f810       ?GetSoapBody@CWSDLPortTypeIO@@QAEPAVCWSDLSoapElementEx@@XZ 00430810 f i CodeTypeBuilder.obj
 0001:0002f840       ?GetSoapOperation@CWSDLPortTypeOperation@@QAEPAVCSoapOperation@@XZ 00430840 f i CodeTypeBuilder.obj
 0001:0002f870       ?GetStartPosition@?$CAtlMap@PAVCComplexType@@PAVCCodeElementContainer@@V?$CXSDElementPtrTraits@VCComplexType@@@@V?$CElementTraits@PAVCCodeElementContainer@@@ATL@@@ATL@@QBEPAU__POSITION@@XZ 00430870 f i CodeTypeBuilder.obj
 0001:0002f920       ?GetStartPosition@?$CAtlMap@PAVCSimpleType@@PAVCCodeElementContainer@@V?$CXSDElementPtrTraits@VCSimpleType@@@@V?$CElementTraits@PAVCCodeElementContainer@@@ATL@@@ATL@@QBEPAU__POSITION@@XZ 00430920 f i CodeTypeBuilder.obj
 0001:0002f9d0       ?GetStartPosition@?$CAtlMap@PAVCXSDElement@@PAVCCodeTypedElement@@V?$CElementTraits@PAVCXSDElement@@@ATL@@V?$CElementTraits@PAVCCodeTypedElement@@@4@@ATL@@QBEPAU__POSITION@@XZ 004309d0 f i CodeTypeBuilder.obj
 0001:0002fa80       ?GetStartPosition@?$CAtlMap@V?$CStringT@_WV?$StrTraitATL@_WV?$ChTraitsCRT@_W@ATL@@@ATL@@@ATL@@PAVCWSDLPortTypeOperation@@V?$CStringRefElementTraits@V?$CStringT@_WV?$StrTraitATL@_WV?$ChTraitsCRT@_W@ATL@@@ATL@@@ATL@@@2@V?$CElementTraits@PAVCWSDLPortTypeOperation@@@2@@ATL@@QBEPAU__POSITION@@XZ 00430a80 f i CodeTypeBuilder.obj
 0001:0002fb30       ?GetStartPosition@?$CAtlMap@V?$CStringT@_WV?$StrTraitATL@_WV?$ChTraitsCRT@_W@ATL@@@ATL@@@ATL@@PAVCWSDLService@@V?$CStringRefElementTraits@V?$CStringT@_WV?$StrTraitATL@_WV?$ChTraitsCRT@_W@ATL@@@ATL@@@ATL@@@2@V?$CElementTraits@PAVCWSDLService@@@2@@ATL@@QBEPAU__POSITION@@XZ 00430b30 f i CodeTypeBuilder.obj
 0001:0002fbe0       ?GetString@?$CSimpleStringT@D$0A@@ATL@@QBEPBDXZ 00430be0 f i CodeTypeBuilder.obj
 0001:0002fc00       ?GetStyle@CSoapBinding@@QAE?BW4SOAPSTYLE@@XZ 00430c00 f i CodeTypeBuilder.obj
 0001:0002fc20       ?GetStyle@CSoapOperation@@QAE?BW4SOAPSTYLE@@XZ 00430c20 f i CodeTypeBuilder.obj
 0001:0002fc40       ?GetTargetNamespace@CSchema@@QAEABV?$CStringT@_WV?$StrTraitATL@_WV?$ChTraitsCRT@_W@ATL@@@ATL@@@ATL@@XZ 00430c40 f i CodeTypeBuilder.obj
 0001:0002fc70       ?GetTargetNamespace@CXMLDocument@@QAEABV?$CStringT@_WV?$StrTraitATL@_WV?$ChTraitsCRT@_W@ATL@@@ATL@@@ATL@@XZ 00430c70 f i CodeTypeBuilder.obj
 0001:0002fc90       ?GetTypeFromElement@CCodeTypeBuilder@@AAEJPAVCElement@@PAVCCodeTypedElement@@PAVCCodeElementContainer@@K@Z 00430c90 f   CodeTypeBuilder.obj
 0001:0002fdd0       ?GetTypeFromQName@CCodeTypeBuilder@@AAEJAAVCQName@@PAVCXSDElement@@PAPAV3@PAW4XSDTYPE@@@Z 00430dd0 f   CodeTypeBuilder.obj
 0001:00030000       ?GetTypeName@CElement@@QAEAAVCQName@@XZ 00431000 f i CodeTypeBuilder.obj
 0001:00030020       ?GetTypeName@CWSDLMessagePart@@QAEAAVCQName@@XZ 00431020 f i CodeTypeBuilder.obj
 0001:00030040       ?GetUse@CWSDLSoapElement@@QAE?BW4SOAPUSE@@XZ 00431040 f i CodeTypeBuilder.obj
 0001:00030060       ?GetValue@CEnumeration@@QAEABV?$CStringT@_WV?$StrTraitATL@_WV?$ChTraitsCRT@_W@ATL@@@ATL@@@ATL@@XZ 00431060 f i CodeTypeBuilder.obj
 0001:00030080       ?GetValueAt@?$CAtlMap@PAVCComplexType@@PAVCCodeElementContainer@@V?$CXSDElementPtrTraits@VCComplexType@@@@V?$CElementTraits@PAVCCodeElementContainer@@@ATL@@@ATL@@QAEAAPAVCCodeElementContainer@@PAU__POSITION@@@Z 00431080 f i CodeTypeBuilder.obj
 0001:00030130       ?GetXSDType@@YAJABV?$CStringT@_WV?$StrTraitATL@_WV?$ChTraitsCRT@_W@ATL@@@ATL@@@ATL@@0PAW4XSDTYPE@@@Z 00431130 f i CodeTypeBuilder.obj
 0001:00030220       ?GrowBuffer@?$CAtlArray@HV?$CElementTraits@H@ATL@@@ATL@@AAE_NI@Z 00431220 f i CodeTypeBuilder.obj
 0001:000303d0       ?HasMaxOccurs@CElement@@QAEHXZ 004313d0 f i CodeTypeBuilder.obj
 0001:00030410       ?HasMinOccurs@CElement@@QAEHXZ 00431410 f i CodeTypeBuilder.obj
 0001:00030450       ?Hash@?$CDefaultHashTraits@PAVCWSDLMessagePart@@@ATL@@SAKABQAVCWSDLMessagePart@@@Z 00431450 f i CodeTypeBuilder.obj
 0001:00030470       ?Hash@?$CDefaultHashTraits@PAVCXSDElement@@@ATL@@SAKABQAVCXSDElement@@@Z 00431470 f i CodeTypeBuilder.obj
 0001:00030490       ?Hash@?$CStringRefElementTraits@V?$CStringT@DV?$StrTraitATL@DV?$ChTraitsCRT@D@ATL@@@ATL@@@ATL@@@ATL@@SAKABV?$CStringT@DV?$StrTraitATL@DV?$ChTraitsCRT@D@ATL@@@ATL@@@2@@Z 00431490 f i CodeTypeBuilder.obj
 0001:00030570       ?Hash@?$CStringRefElementTraits@V?$CStringT@_WV?$StrTraitATL@_WV?$ChTraitsCRT@_W@ATL@@@ATL@@@ATL@@@ATL@@SAKABV?$CStringT@_WV?$StrTraitATL@_WV?$ChTraitsCRT@_W@ATL@@@ATL@@@2@@Z 00431570 f i CodeTypeBuilder.obj
 0001:00030650       ?Hash@?$CXSDElementPtrTraits@VCComplexType@@@@SAKPAVCComplexType@@@Z 00431650 f i CodeTypeBuilder.obj
 0001:00030750       ?Hash@?$CXSDElementPtrTraits@VCSimpleType@@@@SAKPAVCSimpleType@@@Z 00431750 f i CodeTypeBuilder.obj
 0001:00030850       ?Hash@CXSDTypeLookup@@SAKPB_W@Z 00431850 f i CodeTypeBuilder.obj
 0001:000308b0       ?Init@?$CA2WEX@$0IA@@ATL@@AAEXPBDI@Z 004318b0 f i CodeTypeBuilder.obj
 0001:00030a40       ?Init@?$CW2AEX@$0IA@@ATL@@AAEXPB_WI@Z 00431a40 f i CodeTypeBuilder.obj
 0001:00030be0       ?InitHashTable@?$CAtlMap@PAVCComplexType@@HV?$CXSDElementPtrTraits@VCComplexType@@@@V?$CElementTraits@H@ATL@@@ATL@@QAE_NI_N@Z 00431be0 f i CodeTypeBuilder.obj
 0001:00030db0       ?InitHashTable@?$CAtlMap@PAVCComplexType@@PAVCCodeElementContainer@@V?$CXSDElementPtrTraits@VCComplexType@@@@V?$CElementTraits@PAVCCodeElementContainer@@@ATL@@@ATL@@QAE_NI_N@Z 00431db0 f i CodeTypeBuilder.obj
 0001:00030f80       ?InitHashTable@?$CAtlMap@PAVCComplexType@@VCCodeTypedElement@@V?$CXSDElementPtrTraits@VCComplexType@@@@V?$CElementTraits@VCCodeTypedElement@@@ATL@@@ATL@@QAE_NI_N@Z 00431f80 f i CodeTypeBuilder.obj
 0001:00031150       ?InitHashTable@?$CAtlMap@PAVCSimpleType@@PAVCCodeElementContainer@@V?$CXSDElementPtrTraits@VCSimpleType@@@@V?$CElementTraits@PAVCCodeElementContainer@@@ATL@@@ATL@@QAE_NI_N@Z 00432150 f i CodeTypeBuilder.obj
 0001:00031320       ?InitHashTable@?$CAtlMap@PAVCSimpleType@@VCCodeTypedElement@@V?$CXSDElementPtrTraits@VCSimpleType@@@@V?$CElementTraits@VCCodeTypedElement@@@ATL@@@ATL@@QAE_NI_N@Z 00432320 f i CodeTypeBuilder.obj
 0001:000314f0       ?InitHashTable@?$CAtlMap@PAVCWSDLMessagePart@@PAVCCodeTypedElement@@V?$CElementTraits@PAVCWSDLMessagePart@@@ATL@@V?$CElementTraits@PAVCCodeTypedElement@@@4@@ATL@@QAE_NI_N@Z 004324f0 f i CodeTypeBuilder.obj
 0001:000316c0       ?InitHashTable@?$CAtlMap@PAVCXSDElement@@PAVCCodeTypedElement@@V?$CElementTraits@PAVCXSDElement@@@ATL@@V?$CElementTraits@PAVCCodeTypedElement@@@4@@ATL@@QAE_NI_N@Z 004326c0 f i CodeTypeBuilder.obj
 0001:00031890       ?InitHashTable@?$CAtlMap@V?$CStringT@DV?$StrTraitATL@DV?$ChTraitsCRT@D@ATL@@@ATL@@@ATL@@HV?$CStringRefElementTraits@V?$CStringT@DV?$StrTraitATL@DV?$ChTraitsCRT@D@ATL@@@ATL@@@ATL@@@2@V?$CElementTraits@H@2@@ATL@@QAE_NI_N@Z 00432890 f i CodeTypeBuilder.obj
 0001:00031a60       ?IsArrayDefinition@CCodeTypeBuilder@@AAE?AW4CODEFLAGS@@PAVCComplexType@@@Z 00432a60 f   CodeTypeBuilder.obj
 0001:00031d80       ?IsEmpty@?$CAtlList@PAVCCodeElementContainer@@V?$CElementTraits@PAVCCodeElementContainer@@@ATL@@@ATL@@QBE_NXZ 00432d80 f i CodeTypeBuilder.obj
 0001:00031dc0       ?IsEmpty@?$CAtlMap@PAVCComplexType@@PAVCCodeElementContainer@@V?$CXSDElementPtrTraits@VCComplexType@@@@V?$CElementTraits@PAVCCodeElementContainer@@@ATL@@@ATL@@QBE_NXZ 00432dc0 f i CodeTypeBuilder.obj
 0001:00031e00       ?IsEmpty@?$CAtlMap@PAVCSimpleType@@PAVCCodeElementContainer@@V?$CXSDElementPtrTraits@VCSimpleType@@@@V?$CElementTraits@PAVCCodeElementContainer@@@ATL@@@ATL@@QBE_NXZ 00432e00 f i CodeTypeBuilder.obj
 0001:00031e40       ?IsEmpty@?$CAtlMap@PAVCXSDElement@@PAVCCodeTypedElement@@V?$CElementTraits@PAVCXSDElement@@@ATL@@V?$CElementTraits@PAVCCodeTypedElement@@@4@@ATL@@QBE_NXZ 00432e40 f i CodeTypeBuilder.obj
 0001:00031e80       ?IsEmpty@?$CAtlMap@V?$CStringT@_WV?$StrTraitATL@_WV?$ChTraitsCRT@_W@ATL@@@ATL@@@ATL@@PAVCWSDLPortTypeOperation@@V?$CStringRefElementTraits@V?$CStringT@_WV?$StrTraitATL@_WV?$ChTraitsCRT@_W@ATL@@@ATL@@@ATL@@@2@V?$CElementTraits@PAVCWSDLPortTypeOperation@@@2@@ATL@@QBE_NXZ 00432e80 f i CodeTypeBuilder.obj
 0001:00031ec0       ?IsEmpty@?$CAtlMap@V?$CStringT@_WV?$StrTraitATL@_WV?$ChTraitsCRT@_W@ATL@@@ATL@@@ATL@@PAVCWSDLService@@V?$CStringRefElementTraits@V?$CStringT@_WV?$StrTraitATL@_WV?$ChTraitsCRT@_W@ATL@@@ATL@@@ATL@@@2@V?$CElementTraits@PAVCWSDLService@@@2@@ATL@@QBE_NXZ 00432ec0 f i CodeTypeBuilder.obj
 0001:00031f00       ?IsEmpty@?$CSimpleStringT@_W$0A@@ATL@@QBE_NXZ 00432f00 f i CodeTypeBuilder.obj
 0001:00031f40       ?IsLocked@?$CAtlMap@PAVCComplexType@@HV?$CXSDElementPtrTraits@VCComplexType@@@@V?$CElementTraits@H@ATL@@@ATL@@ABE_NXZ 00432f40 f i CodeTypeBuilder.obj
 0001:00031f80       ?IsLocked@?$CAtlMap@PAVCComplexType@@PAVCCodeElementContainer@@V?$CXSDElementPtrTraits@VCComplexType@@@@V?$CElementTraits@PAVCCodeElementContainer@@@ATL@@@ATL@@ABE_NXZ 00432f80 f i CodeTypeBuilder.obj
 0001:00031fc0       ?IsLocked@?$CAtlMap@PAVCComplexType@@VCCodeTypedElement@@V?$CXSDElementPtrTraits@VCComplexType@@@@V?$CElementTraits@VCCodeTypedElement@@@ATL@@@ATL@@ABE_NXZ 00432fc0 f i CodeTypeBuilder.obj
 0001:00032000       ?IsLocked@?$CAtlMap@PAVCSimpleType@@PAVCCodeElementContainer@@V?$CXSDElementPtrTraits@VCSimpleType@@@@V?$CElementTraits@PAVCCodeElementContainer@@@ATL@@@ATL@@ABE_NXZ 00433000 f i CodeTypeBuilder.obj
 0001:00032040       ?IsLocked@?$CAtlMap@PAVCSimpleType@@VCCodeTypedElement@@V?$CXSDElementPtrTraits@VCSimpleType@@@@V?$CElementTraits@VCCodeTypedElement@@@ATL@@@ATL@@ABE_NXZ 00433040 f i CodeTypeBuilder.obj
 0001:00032080       ?IsLocked@?$CAtlMap@PAVCWSDLMessagePart@@PAVCCodeTypedElement@@V?$CElementTraits@PAVCWSDLMessagePart@@@ATL@@V?$CElementTraits@PAVCCodeTypedElement@@@4@@ATL@@ABE_NXZ 00433080 f i CodeTypeBuilder.obj
 0001:000320c0       ?IsLocked@?$CAtlMap@PAVCXSDElement@@PAVCCodeTypedElement@@V?$CElementTraits@PAVCXSDElement@@@ATL@@V?$CElementTraits@PAVCCodeTypedElement@@@4@@ATL@@ABE_NXZ 004330c0 f i CodeTypeBuilder.obj
 0001:00032100       ?IsLocked@?$CAtlMap@V?$CStringT@DV?$StrTraitATL@DV?$ChTraitsCRT@D@ATL@@@ATL@@@ATL@@HV?$CStringRefElementTraits@V?$CStringT@DV?$StrTraitATL@DV?$ChTraitsCRT@D@ATL@@@ATL@@@ATL@@@2@V?$CElementTraits@H@2@@ATL@@ABE_NXZ 00433100 f i CodeTypeBuilder.obj
 0001:00032140       ?IsVarArrayDefinition@CCodeTypeBuilder@@AAEHPAVCComplexType@@KPAPAVCElement@@@Z 00433140 f   CodeTypeBuilder.obj
 0001:00032330       ?LoadStringA@?$CStringT@DV?$StrTraitATL@DV?$ChTraitsCRT@D@ATL@@@ATL@@@ATL@@QAEHI@Z 00433330 f i CodeTypeBuilder.obj
 0001:00032380       ?LoadStringA@?$CStringT@DV?$StrTraitATL@DV?$ChTraitsCRT@D@ATL@@@ATL@@@ATL@@QAEHPAUHINSTANCE__@@I@Z 00433380 f i CodeTypeBuilder.obj
 0001:00032430       ?LoadStringA@?$CStringT@_WV?$StrTraitATL@_WV?$ChTraitsCRT@_W@ATL@@@ATL@@@ATL@@QAEHI@Z 00433430 f i CodeTypeBuilder.obj
 0001:00032480       ?LoadStringA@?$CStringT@_WV?$StrTraitATL@_WV?$ChTraitsCRT@_W@ATL@@@ATL@@@ATL@@QAEHPAUHINSTANCE__@@I@Z 00433480 f i CodeTypeBuilder.obj
 0001:00032530       ?Lookup@?$CAtlMap@PAVCComplexType@@HV?$CXSDElementPtrTraits@VCComplexType@@@@V?$CElementTraits@H@ATL@@@ATL@@QAEPAVCPair@12@PAVCComplexType@@@Z 00433530 f i CodeTypeBuilder.obj
 0001:00032570       ?Lookup@?$CAtlMap@PAVCComplexType@@PAVCCodeElementContainer@@V?$CXSDElementPtrTraits@VCComplexType@@@@V?$CElementTraits@PAVCCodeElementContainer@@@ATL@@@ATL@@QAEPAVCPair@12@PAVCComplexType@@@Z 00433570 f i CodeTypeBuilder.obj
 0001:000325b0       ?Lookup@?$CAtlMap@PAVCComplexType@@VCCodeTypedElement@@V?$CXSDElementPtrTraits@VCComplexType@@@@V?$CElementTraits@VCCodeTypedElement@@@ATL@@@ATL@@QAEPAVCPair@12@PAVCComplexType@@@Z 004335b0 f i CodeTypeBuilder.obj
 0001:000325f0       ?Lookup@?$CAtlMap@PAVCSimpleType@@PAVCCodeElementContainer@@V?$CXSDElementPtrTraits@VCSimpleType@@@@V?$CElementTraits@PAVCCodeElementContainer@@@ATL@@@ATL@@QAEPAVCPair@12@PAVCSimpleType@@@Z 004335f0 f i CodeTypeBuilder.obj
 0001:00032630       ?Lookup@?$CAtlMap@PAVCSimpleType@@VCCodeTypedElement@@V?$CXSDElementPtrTraits@VCSimpleType@@@@V?$CElementTraits@VCCodeTypedElement@@@ATL@@@ATL@@QAEPAVCPair@12@PAVCSimpleType@@@Z 00433630 f i CodeTypeBuilder.obj
 0001:00032670       ?Lookup@?$CAtlMap@PAVCWSDLMessagePart@@PAVCCodeTypedElement@@V?$CElementTraits@PAVCWSDLMessagePart@@@ATL@@V?$CElementTraits@PAVCCodeTypedElement@@@4@@ATL@@QAEPAVCPair@12@ABQAVCWSDLMessagePart@@@Z 00433670 f i CodeTypeBuilder.obj
 0001:000326b0       ?Lookup@?$CAtlMap@PAVCXSDElement@@PAVCCodeTypedElement@@V?$CElementTraits@PAVCXSDElement@@@ATL@@V?$CElementTraits@PAVCCodeTypedElement@@@4@@ATL@@QAEPAVCPair@12@ABQAVCXSDElement@@@Z 004336b0 f i CodeTypeBuilder.obj
 0001:000326f0       ?Lookup@?$CAtlMap@V?$CStringT@DV?$StrTraitATL@DV?$ChTraitsCRT@D@ATL@@@ATL@@@ATL@@HV?$CStringRefElementTraits@V?$CStringT@DV?$StrTraitATL@DV?$ChTraitsCRT@D@ATL@@@ATL@@@ATL@@@2@V?$CElementTraits@H@2@@ATL@@QAEPAVCPair@12@ABV?$CStringT@DV?$StrTraitATL@DV?$ChTraitsCRT@D@ATL@@@ATL@@@2@@Z 004336f0 f i CodeTypeBuilder.obj
 0001:00032730       ?Lookup@?$CAtlMap@V?$CStringT@_WV?$StrTraitATL@_WV?$ChTraitsCRT@_W@ATL@@@ATL@@@ATL@@PAVCComplexType@@V?$CStringRefElementTraits@V?$CStringT@_WV?$StrTraitATL@_WV?$ChTraitsCRT@_W@ATL@@@ATL@@@ATL@@@2@V?$CElementTraits@PAVCComplexType@@@2@@ATL@@QAEPAVCPair@12@ABV?$CStringT@_WV?$StrTraitATL@_WV?$ChTraitsCRT@_W@ATL@@@ATL@@@2@@Z 00433730 f i CodeTypeBuilder.obj
 0001:00032770       ?Lookup@?$CAtlMap@V?$CStringT@_WV?$StrTraitATL@_WV?$ChTraitsCRT@_W@ATL@@@ATL@@@ATL@@PAVCElement@@V?$CStringRefElementTraits@V?$CStringT@_WV?$StrTraitATL@_WV?$ChTraitsCRT@_W@ATL@@@ATL@@@ATL@@@2@V?$CElementTraits@PAVCElement@@@2@@ATL@@QAEPAVCPair@12@ABV?$CStringT@_WV?$StrTraitATL@_WV?$ChTraitsCRT@_W@ATL@@@ATL@@@2@@Z 00433770 f i CodeTypeBuilder.obj
 0001:000327b0       ?Lookup@?$CAtlMap@V?$CStringT@_WV?$StrTraitATL@_WV?$ChTraitsCRT@_W@ATL@@@ATL@@@ATL@@PAVCSimpleType@@V?$CStringRefElementTraits@V?$CStringT@_WV?$StrTraitATL@_WV?$ChTraitsCRT@_W@ATL@@@ATL@@@ATL@@@2@V?$CElementTraits@PAVCSimpleType@@@2@@ATL@@QAEPAVCPair@12@ABV?$CStringT@_WV?$StrTraitATL@_WV?$ChTraitsCRT@_W@ATL@@@ATL@@@2@@Z 004337b0 f i CodeTypeBuilder.obj
 0001:000327f0       ?Lookup@?$CAtlMap@V?$CStringT@_WV?$StrTraitATL@_WV?$ChTraitsCRT@_W@ATL@@@ATL@@@ATL@@PAVCWSDLPortTypeOperation@@V?$CStringRefElementTraits@V?$CStringT@_WV?$StrTraitATL@_WV?$ChTraitsCRT@_W@ATL@@@ATL@@@ATL@@@2@V?$CElementTraits@PAVCWSDLPortTypeOperation@@@2@@ATL@@QAEPAVCPair@12@ABV?$CStringT@_WV?$StrTraitATL@_WV?$ChTraitsCRT@_W@ATL@@@ATL@@@2@@Z 004337f0 f i CodeTypeBuilder.obj
 0001:00032830       ?Lookup@CXSDTypeLookup@@SAPBUHashNode@1@PB_W@Z 00433830 f i CodeTypeBuilder.obj
 0001:00032900       ?NewNode@?$CAtlList@PAVCCodeElementContainer@@V?$CElementTraits@PAVCCodeElementContainer@@@ATL@@@ATL@@AAEPAVCNode@12@ABQAVCCodeElementContainer@@PAV312@1@Z 00433900 f i CodeTypeBuilder.obj
 0001:00032a40       ?NewNode@?$CAtlList@PAVCCodeTypedElement@@V?$CElementTraits@PAVCCodeTypedElement@@@ATL@@@ATL@@AAEPAVCNode@12@ABQAVCCodeTypedElement@@PAV312@1@Z 00433a40 f i CodeTypeBuilder.obj
 0001:00032b80       ?NewNode@?$CAtlMap@PAVCComplexType@@HV?$CXSDElementPtrTraits@VCComplexType@@@@V?$CElementTraits@H@ATL@@@ATL@@AAEPAVCNode@12@PAVCComplexType@@II@Z 00433b80 f i CodeTypeBuilder.obj
 0001:00032e50       ?NewNode@?$CAtlMap@PAVCComplexType@@PAVCCodeElementContainer@@V?$CXSDElementPtrTraits@VCComplexType@@@@V?$CElementTraits@PAVCCodeElementContainer@@@ATL@@@ATL@@AAEPAVCNode@12@PAVCComplexType@@II@Z 00433e50 f i CodeTypeBuilder.obj
 0001:00033120       ?NewNode@?$CAtlMap@PAVCComplexType@@VCCodeTypedElement@@V?$CXSDElementPtrTraits@VCComplexType@@@@V?$CElementTraits@VCCodeTypedElement@@@ATL@@@ATL@@AAEPAVCNode@12@PAVCComplexType@@II@Z 00434120 f i CodeTypeBuilder.obj
 0001:000333f0       ?NewNode@?$CAtlMap@PAVCSimpleType@@PAVCCodeElementContainer@@V?$CXSDElementPtrTraits@VCSimpleType@@@@V?$CElementTraits@PAVCCodeElementContainer@@@ATL@@@ATL@@AAEPAVCNode@12@PAVCSimpleType@@II@Z 004343f0 f i CodeTypeBuilder.obj
 0001:000336c0       ?NewNode@?$CAtlMap@PAVCSimpleType@@VCCodeTypedElement@@V?$CXSDElementPtrTraits@VCSimpleType@@@@V?$CElementTraits@VCCodeTypedElement@@@ATL@@@ATL@@AAEPAVCNode@12@PAVCSimpleType@@II@Z 004346c0 f i CodeTypeBuilder.obj
 0001:00033990       ?NewNode@?$CAtlMap@PAVCWSDLMessagePart@@PAVCCodeTypedElement@@V?$CElementTraits@PAVCWSDLMessagePart@@@ATL@@V?$CElementTraits@PAVCCodeTypedElement@@@4@@ATL@@AAEPAVCNode@12@ABQAVCWSDLMessagePart@@II@Z 00434990 f i CodeTypeBuilder.obj
 0001:00033c60       ?NewNode@?$CAtlMap@PAVCXSDElement@@PAVCCodeTypedElement@@V?$CElementTraits@PAVCXSDElement@@@ATL@@V?$CElementTraits@PAVCCodeTypedElement@@@4@@ATL@@AAEPAVCNode@12@ABQAVCXSDElement@@II@Z 00434c60 f i CodeTypeBuilder.obj
 0001:00033f30       ?NewNode@?$CAtlMap@V?$CStringT@DV?$StrTraitATL@DV?$ChTraitsCRT@D@ATL@@@ATL@@@ATL@@HV?$CStringRefElementTraits@V?$CStringT@DV?$StrTraitATL@DV?$ChTraitsCRT@D@ATL@@@ATL@@@ATL@@@2@V?$CElementTraits@H@2@@ATL@@AAEPAVCNode@12@ABV?$CStringT@DV?$StrTraitATL@DV?$ChTraitsCRT@D@ATL@@@ATL@@@2@II@Z 00434f30 f i CodeTypeBuilder.obj
 0001:00034200       ?PickSize@?$CAtlMap@PAVCComplexType@@HV?$CXSDElementPtrTraits@VCComplexType@@@@V?$CElementTraits@H@ATL@@@ATL@@ABEII@Z 00435200 f i CodeTypeBuilder.obj
 0001:000342d0       ?PickSize@?$CAtlMap@PAVCComplexType@@PAVCCodeElementContainer@@V?$CXSDElementPtrTraits@VCComplexType@@@@V?$CElementTraits@PAVCCodeElementContainer@@@ATL@@@ATL@@ABEII@Z 004352d0 f i CodeTypeBuilder.obj
 0001:000343a0       ?PickSize@?$CAtlMap@PAVCComplexType@@VCCodeTypedElement@@V?$CXSDElementPtrTraits@VCComplexType@@@@V?$CElementTraits@VCCodeTypedElement@@@ATL@@@ATL@@ABEII@Z 004353a0 f i CodeTypeBuilder.obj
 0001:00034470       ?PickSize@?$CAtlMap@PAVCSimpleType@@PAVCCodeElementContainer@@V?$CXSDElementPtrTraits@VCSimpleType@@@@V?$CElementTraits@PAVCCodeElementContainer@@@ATL@@@ATL@@ABEII@Z 00435470 f i CodeTypeBuilder.obj
 0001:00034540       ?PickSize@?$CAtlMap@PAVCSimpleType@@VCCodeTypedElement@@V?$CXSDElementPtrTraits@VCSimpleType@@@@V?$CElementTraits@VCCodeTypedElement@@@ATL@@@ATL@@ABEII@Z 00435540 f i CodeTypeBuilder.obj
 0001:00034610       ?PickSize@?$CAtlMap@PAVCWSDLMessagePart@@PAVCCodeTypedElement@@V?$CElementTraits@PAVCWSDLMessagePart@@@ATL@@V?$CElementTraits@PAVCCodeTypedElement@@@4@@ATL@@ABEII@Z 00435610 f i CodeTypeBuilder.obj
 0001:000346e0       ?PickSize@?$CAtlMap@PAVCXSDElement@@PAVCCodeTypedElement@@V?$CElementTraits@PAVCXSDElement@@@ATL@@V?$CElementTraits@PAVCCodeTypedElement@@@4@@ATL@@ABEII@Z 004356e0 f i CodeTypeBuilder.obj
 0001:000347b0       ?PickSize@?$CAtlMap@V?$CStringT@DV?$StrTraitATL@DV?$ChTraitsCRT@D@ATL@@@ATL@@@ATL@@HV?$CStringRefElementTraits@V?$CStringT@DV?$StrTraitATL@DV?$ChTraitsCRT@D@ATL@@@ATL@@@ATL@@@2@V?$CElementTraits@H@2@@ATL@@ABEII@Z 004357b0 f i CodeTypeBuilder.obj
 0001:00034880       ?PrepareWrite2@?$CSimpleStringT@D$0A@@ATL@@AAEXH@Z 00435880 f i CodeTypeBuilder.obj
 0001:00034950       ?PrepareWrite@?$CSimpleStringT@D$0A@@ATL@@AAEPADH@Z 00435950 f i CodeTypeBuilder.obj
 0001:000349d0       ?ProcessArray@CCodeTypeBuilder@@AAEJPAVCComplexType@@PAVCCodeElementContainer@@PAVCCodeTypedElement@@K@Z 004359d0 f   CodeTypeBuilder.obj
 0001:00034e80       ?ProcessArrayDefintion@CCodeTypeBuilder@@AAEJPAVCElement@@PAVCCodeElementContainer@@PAVCCodeTypedElement@@K@Z 00435e80 f   CodeTypeBuilder.obj
 0001:000350d0       ?ProcessBinding@CCodeTypeBuilder@@AAEJPAVCWSDLBinding@@@Z 004360d0 f   CodeTypeBuilder.obj
 0001:00035150       ?ProcessComplexType@CCodeTypeBuilder@@AAEJPAVCComplexType@@PAVCCodeElementContainer@@K@Z 00436150 f   CodeTypeBuilder.obj
 0001:000357a0       ?ProcessElement@CCodeTypeBuilder@@AAEJPAVCElement@@PAVCCodeElementContainer@@KW4CODETYPE@@HPAVCWSDLMessagePart@@@Z 004367a0 f   CodeTypeBuilder.obj
 0001:00036130       ?ProcessMessage@CCodeTypeBuilder@@AAEJPAVCWSDLPortTypeIO@@PAVCWSDLPortTypeOperation@@PAVCWSDLBinding@@PAVCWSDLMessage@@PAVCCodeElementContainer@@K@Z 00437130 f   CodeTypeBuilder.obj
 0001:00036460       ?ProcessMessagePart_PAD@CCodeTypeBuilder@@AAEJPAVCWSDLMessagePart@@PAVCCodeElementContainer@@KK@Z 00437460 f   CodeTypeBuilder.obj
 0001:000367a0       ?ProcessMessagePart_PID@CCodeTypeBuilder@@AAEJPAVCWSDLMessagePart@@PAVCCodeElementContainer@@KK@Z 004377a0 f   CodeTypeBuilder.obj
 0001:000369b0       ?ProcessMessagePart_RPC_Encoded@CCodeTypeBuilder@@AAEJPAVCWSDLMessagePart@@PAVCCodeElementContainer@@KK@Z 004379b0 f   CodeTypeBuilder.obj
 0001:00036ab0       ?ProcessMessagePart_Type@CCodeTypeBuilder@@AAEJPAVCWSDLMessagePart@@PAVCXSDElement@@W4XSDTYPE@@W4CODETYPE@@ABV?$CStringT@_WV?$StrTraitATL@_WV?$ChTraitsCRT@_W@ATL@@@ATL@@@ATL@@PAVCCodeElementContainer@@KK@Z 00437ab0 f   CodeTypeBuilder.obj
 0001:00036db0       ?ProcessMessage_PAD@CCodeTypeBuilder@@AAEJPAVCWSDLMessage@@PAVCCodeElementContainer@@KK@Z 00437db0 f   CodeTypeBuilder.obj
 0001:00037100       ?ProcessMessage_PID@CCodeTypeBuilder@@AAEJPAVCWSDLMessage@@PAVCCodeElementContainer@@KK@Z 00438100 f   CodeTypeBuilder.obj
 0001:00037280       ?ProcessMessage_RPC_Encoded@CCodeTypeBuilder@@AAEJPAVCWSDLMessage@@PAVCCodeElementContainer@@KK@Z 00438280 f   CodeTypeBuilder.obj
 0001:00037440       ?ProcessPort@CCodeTypeBuilder@@AAEJPAVCWSDLPort@@@Z 00438440 f   CodeTypeBuilder.obj
 0001:00037520       ?ProcessPortType@CCodeTypeBuilder@@AAEJPAVCWSDLPortType@@PAVCWSDLBinding@@@Z 00438520 f   CodeTypeBuilder.obj
 0001:00037c40       ?ProcessSchemaElement@CCodeTypeBuilder@@AAEJPAVCXSDElement@@PAVCCodeTypedElement@@PAVCCodeElementContainer@@K@Z 00438c40 f   CodeTypeBuilder.obj
 0001:000380b0       ?ProcessService@CCodeTypeBuilder@@AAEJPAVCWSDLService@@@Z 004390b0 f   CodeTypeBuilder.obj
 0001:000382f0       ?ProcessSimpleType@CCodeTypeBuilder@@AAEJPAVCSimpleType@@PAW4XSDTYPE@@PAK@Z 004392f0 f   CodeTypeBuilder.obj
 0001:00038a80       ?ProcessSoapHeaders@CCodeTypeBuilder@@AAEJPAVCCodeElementContainer@@PAVCWSDLPortTypeIO@@PAVCWSDLPortTypeOperation@@PAVCWSDLBinding@@K@Z 00439a80 f   CodeTypeBuilder.obj
 0001:00039140       ?ProcessVarArray@CCodeTypeBuilder@@AAEJPAVCElement@@PAVCCodeElementContainer@@PAVCCodeTypedElement@@K@Z 0043a140 f   CodeTypeBuilder.obj
 0001:00039320       ?ProcessXSDElement@CCodeTypeBuilder@@AAEJPAVCXMLElement@@AAVCQName@@PAVCCodeTypedElement@@@Z 0043a320 f   CodeTypeBuilder.obj
 0001:00039590       ?Reallocate@?$CSimpleStringT@D$0A@@ATL@@AAEXH@Z 0043a590 f i CodeTypeBuilder.obj
 0001:00039660       ?Rehash@?$CAtlMap@PAVCComplexType@@HV?$CXSDElementPtrTraits@VCComplexType@@@@V?$CElementTraits@H@ATL@@@ATL@@QAEXI@Z 0043a660 f i CodeTypeBuilder.obj
 0001:000398b0       ?Rehash@?$CAtlMap@PAVCComplexType@@PAVCCodeElementContainer@@V?$CXSDElementPtrTraits@VCComplexType@@@@V?$CElementTraits@PAVCCodeElementContainer@@@ATL@@@ATL@@QAEXI@Z 0043a8b0 f i CodeTypeBuilder.obj
 0001:00039b00       ?Rehash@?$CAtlMap@PAVCComplexType@@VCCodeTypedElement@@V?$CXSDElementPtrTraits@VCComplexType@@@@V?$CElementTraits@VCCodeTypedElement@@@ATL@@@ATL@@QAEXI@Z 0043ab00 f i CodeTypeBuilder.obj
 0001:00039d50       ?Rehash@?$CAtlMap@PAVCSimpleType@@PAVCCodeElementContainer@@V?$CXSDElementPtrTraits@VCSimpleType@@@@V?$CElementTraits@PAVCCodeElementContainer@@@ATL@@@ATL@@QAEXI@Z 0043ad50 f i CodeTypeBuilder.obj
 0001:00039fa0       ?Rehash@?$CAtlMap@PAVCSimpleType@@VCCodeTypedElement@@V?$CXSDElementPtrTraits@VCSimpleType@@@@V?$CElementTraits@VCCodeTypedElement@@@ATL@@@ATL@@QAEXI@Z 0043afa0 f i CodeTypeBuilder.obj
 0001:0003a1f0       ?Rehash@?$CAtlMap@PAVCWSDLMessagePart@@PAVCCodeTypedElement@@V?$CElementTraits@PAVCWSDLMessagePart@@@ATL@@V?$CElementTraits@PAVCCodeTypedElement@@@4@@ATL@@QAEXI@Z 0043b1f0 f i CodeTypeBuilder.obj
 0001:0003a440       ?Rehash@?$CAtlMap@PAVCXSDElement@@PAVCCodeTypedElement@@V?$CElementTraits@PAVCXSDElement@@@ATL@@V?$CElementTraits@PAVCCodeTypedElement@@@4@@ATL@@QAEXI@Z 0043b440 f i CodeTypeBuilder.obj
 0001:0003a690       ?Rehash@?$CAtlMap@V?$CStringT@DV?$StrTraitATL@DV?$ChTraitsCRT@D@ATL@@@ATL@@@ATL@@HV?$CStringRefElementTraits@V?$CStringT@DV?$StrTraitATL@DV?$ChTraitsCRT@D@ATL@@@ATL@@@ATL@@@2@V?$CElementTraits@H@2@@ATL@@QAEXI@Z 0043b690 f i CodeTypeBuilder.obj
 0001:0003a8e0       ?ReleaseBufferSetLength@?$CSimpleStringT@D$0A@@ATL@@QAEXH@Z 0043b8e0 f i CodeTypeBuilder.obj
 0001:0003a940       ?RelocateElements@?$CElementTraitsBase@H@ATL@@SAXPAH0I@Z 0043b940 f i CodeTypeBuilder.obj
 0001:0003a980       ?RemoveAll@?$CAtlArray@HV?$CElementTraits@H@ATL@@@ATL@@QAEXXZ 0043b980 f i CodeTypeBuilder.obj
 0001:0003a9b0       ?RemoveAll@?$CAtlList@PAVCCodeElementContainer@@V?$CElementTraits@PAVCCodeElementContainer@@@ATL@@@ATL@@QAEXXZ 0043b9b0 f i CodeTypeBuilder.obj
 0001:0003ab10       ?RemoveAll@?$CAtlList@PAVCCodeTypedElement@@V?$CElementTraits@PAVCCodeTypedElement@@@ATL@@@ATL@@QAEXXZ 0043bb10 f i CodeTypeBuilder.obj
 0001:0003ac70       ?RemoveAll@?$CAtlMap@V?$CStringT@DV?$StrTraitATL@DV?$ChTraitsCRT@D@ATL@@@ATL@@@ATL@@HV?$CStringRefElementTraits@V?$CStringT@DV?$StrTraitATL@DV?$ChTraitsCRT@D@ATL@@@ATL@@@ATL@@@2@V?$CElementTraits@H@2@@ATL@@QAEXXZ 0043bc70 f i CodeTypeBuilder.obj
 0001:0003ad80       ?RemoveAll@?$CAtlPtrList@PAVCCodeTypedElement@@V?$CElementTraits@PAVCCodeTypedElement@@@ATL@@@@QAEXXZ 0043bd80 f i CodeTypeBuilder.obj
 0001:0003ae30       ?RemoveAt@?$CAtlList@PAVCCodeElementContainer@@V?$CElementTraits@PAVCCodeElementContainer@@@ATL@@@ATL@@QAEXPAU__POSITION@@@Z 0043be30 f i CodeTypeBuilder.obj
 0001:0003afe0       ?RemoveAtPos@?$CAtlMap@PAVCComplexType@@HV?$CXSDElementPtrTraits@VCComplexType@@@@V?$CElementTraits@H@ATL@@@ATL@@QAEXPAU__POSITION@@@Z 0043bfe0 f i CodeTypeBuilder.obj
 0001:0003b180       ?RemoveAtPos@?$CAtlMap@PAVCComplexType@@PAVCCodeElementContainer@@V?$CXSDElementPtrTraits@VCComplexType@@@@V?$CElementTraits@PAVCCodeElementContainer@@@ATL@@@ATL@@QAEXPAU__POSITION@@@Z 0043c180 f i CodeTypeBuilder.obj
 0001:0003b320       ?RemoveAtPos@?$CAtlMap@PAVCComplexType@@VCCodeTypedElement@@V?$CXSDElementPtrTraits@VCComplexType@@@@V?$CElementTraits@VCCodeTypedElement@@@ATL@@@ATL@@QAEXPAU__POSITION@@@Z 0043c320 f i CodeTypeBuilder.obj
 0001:0003b4c0       ?RemoveAtPos@?$CAtlMap@PAVCSimpleType@@PAVCCodeElementContainer@@V?$CXSDElementPtrTraits@VCSimpleType@@@@V?$CElementTraits@PAVCCodeElementContainer@@@ATL@@@ATL@@QAEXPAU__POSITION@@@Z 0043c4c0 f i CodeTypeBuilder.obj
 0001:0003b660       ?RemoveAtPos@?$CAtlMap@PAVCSimpleType@@VCCodeTypedElement@@V?$CXSDElementPtrTraits@VCSimpleType@@@@V?$CElementTraits@VCCodeTypedElement@@@ATL@@@ATL@@QAEXPAU__POSITION@@@Z 0043c660 f i CodeTypeBuilder.obj
 0001:0003b800       ?RemoveAtPos@?$CAtlMap@PAVCWSDLMessagePart@@PAVCCodeTypedElement@@V?$CElementTraits@PAVCWSDLMessagePart@@@ATL@@V?$CElementTraits@PAVCCodeTypedElement@@@4@@ATL@@QAEXPAU__POSITION@@@Z 0043c800 f i CodeTypeBuilder.obj
 0001:0003b9a0       ?RemoveAtPos@?$CAtlMap@PAVCXSDElement@@PAVCCodeTypedElement@@V?$CElementTraits@PAVCXSDElement@@@ATL@@V?$CElementTraits@PAVCCodeTypedElement@@@4@@ATL@@QAEXPAU__POSITION@@@Z 0043c9a0 f i CodeTypeBuilder.obj
 0001:0003bb40       ?RemoveAtPos@?$CAtlMap@V?$CStringT@DV?$StrTraitATL@DV?$ChTraitsCRT@D@ATL@@@ATL@@@ATL@@HV?$CStringRefElementTraits@V?$CStringT@DV?$StrTraitATL@DV?$ChTraitsCRT@D@ATL@@@ATL@@@ATL@@@2@V?$CElementTraits@H@2@@ATL@@QAEXPAU__POSITION@@@Z 0043cb40 f i CodeTypeBuilder.obj
 0001:0003bce0       ?RemoveKey@?$CAtlMap@PAVCComplexType@@HV?$CXSDElementPtrTraits@VCComplexType@@@@V?$CElementTraits@H@ATL@@@ATL@@QAE_NPAVCComplexType@@@Z 0043cce0 f i CodeTypeBuilder.obj
 0001:0003bd50       ?RemoveNode@?$CAtlMap@PAVCComplexType@@HV?$CXSDElementPtrTraits@VCComplexType@@@@V?$CElementTraits@H@ATL@@@ATL@@AAEXPAVCNode@12@0@Z 0043cd50 f i CodeTypeBuilder.obj
 0001:0003bec0       ?RemoveNode@?$CAtlMap@PAVCComplexType@@PAVCCodeElementContainer@@V?$CXSDElementPtrTraits@VCComplexType@@@@V?$CElementTraits@PAVCCodeElementContainer@@@ATL@@@ATL@@AAEXPAVCNode@12@0@Z 0043cec0 f i CodeTypeBuilder.obj
 0001:0003c030       ?RemoveNode@?$CAtlMap@PAVCComplexType@@VCCodeTypedElement@@V?$CXSDElementPtrTraits@VCComplexType@@@@V?$CElementTraits@VCCodeTypedElement@@@ATL@@@ATL@@AAEXPAVCNode@12@0@Z 0043d030 f i CodeTypeBuilder.obj
 0001:0003c1a0       ?RemoveNode@?$CAtlMap@PAVCSimpleType@@PAVCCodeElementContainer@@V?$CXSDElementPtrTraits@VCSimpleType@@@@V?$CElementTraits@PAVCCodeElementContainer@@@ATL@@@ATL@@AAEXPAVCNode@12@0@Z 0043d1a0 f i CodeTypeBuilder.obj
 0001:0003c310       ?RemoveNode@?$CAtlMap@PAVCSimpleType@@VCCodeTypedElement@@V?$CXSDElementPtrTraits@VCSimpleType@@@@V?$CElementTraits@VCCodeTypedElement@@@ATL@@@ATL@@AAEXPAVCNode@12@0@Z 0043d310 f i CodeTypeBuilder.obj
 0001:0003c480       ?RemoveNode@?$CAtlMap@PAVCWSDLMessagePart@@PAVCCodeTypedElement@@V?$CElementTraits@PAVCWSDLMessagePart@@@ATL@@V?$CElementTraits@PAVCCodeTypedElement@@@4@@ATL@@AAEXPAVCNode@12@0@Z 0043d480 f i CodeTypeBuilder.obj
 0001:0003c5f0       ?RemoveNode@?$CAtlMap@PAVCXSDElement@@PAVCCodeTypedElement@@V?$CElementTraits@PAVCXSDElement@@@ATL@@V?$CElementTraits@PAVCCodeTypedElement@@@4@@ATL@@AAEXPAVCNode@12@0@Z 0043d5f0 f i CodeTypeBuilder.obj
 0001:0003c760       ?RemoveNode@?$CAtlMap@V?$CStringT@DV?$StrTraitATL@DV?$ChTraitsCRT@D@ATL@@@ATL@@@ATL@@HV?$CStringRefElementTraits@V?$CStringT@DV?$StrTraitATL@DV?$ChTraitsCRT@D@ATL@@@ATL@@@ATL@@@2@V?$CElementTraits@H@2@@ATL@@AAEXPAVCNode@12@0@Z 0043d760 f i CodeTypeBuilder.obj
 0001:0003c8d0       ?SetAddressUri@CCodeProxy@@QAEJABV?$CStringT@_WV?$StrTraitATL@_WV?$ChTraitsCRT@_W@ATL@@@ATL@@@ATL@@@Z 0043d8d0 f i CodeTypeBuilder.obj
 0001:0003c9a0       ?SetArrayType@CElement@@QAEJABV?$CStringT@_WV?$StrTraitATL@_WV?$ChTraitsCRT@_W@ATL@@@ATL@@@ATL@@@Z 0043d9a0 f i CodeTypeBuilder.obj
 0001:0003c9e0       ?SetAt@?$CAtlMap@PAVCComplexType@@HV?$CXSDElementPtrTraits@VCComplexType@@@@V?$CElementTraits@H@ATL@@@ATL@@QAEPAU__POSITION@@PAVCComplexType@@H@Z 0043d9e0 f i CodeTypeBuilder.obj
 0001:0003cae0       ?SetAt@?$CAtlMap@PAVCComplexType@@PAVCCodeElementContainer@@V?$CXSDElementPtrTraits@VCComplexType@@@@V?$CElementTraits@PAVCCodeElementContainer@@@ATL@@@ATL@@QAEPAU__POSITION@@PAVCComplexType@@ABQAVCCodeElementContainer@@@Z 0043dae0 f i CodeTypeBuilder.obj
 0001:0003cbe0       ?SetAt@?$CAtlMap@PAVCComplexType@@VCCodeTypedElement@@V?$CXSDElementPtrTraits@VCComplexType@@@@V?$CElementTraits@VCCodeTypedElement@@@ATL@@@ATL@@QAEPAU__POSITION@@PAVCComplexType@@ABVCCodeTypedElement@@@Z 0043dbe0 f i CodeTypeBuilder.obj
 0001:0003ccf0       ?SetAt@?$CAtlMap@PAVCSimpleType@@PAVCCodeElementContainer@@V?$CXSDElementPtrTraits@VCSimpleType@@@@V?$CElementTraits@PAVCCodeElementContainer@@@ATL@@@ATL@@QAEPAU__POSITION@@PAVCSimpleType@@ABQAVCCodeElementContainer@@@Z 0043dcf0 f i CodeTypeBuilder.obj
 0001:0003cdf0       ?SetAt@?$CAtlMap@PAVCSimpleType@@VCCodeTypedElement@@V?$CXSDElementPtrTraits@VCSimpleType@@@@V?$CElementTraits@VCCodeTypedElement@@@ATL@@@ATL@@QAEPAU__POSITION@@PAVCSimpleType@@ABVCCodeTypedElement@@@Z 0043ddf0 f i CodeTypeBuilder.obj
 0001:0003cf00       ?SetAt@?$CAtlMap@PAVCWSDLMessagePart@@PAVCCodeTypedElement@@V?$CElementTraits@PAVCWSDLMessagePart@@@ATL@@V?$CElementTraits@PAVCCodeTypedElement@@@4@@ATL@@QAEPAU__POSITION@@ABQAVCWSDLMessagePart@@ABQAVCCodeTypedElement@@@Z 0043df00 f i CodeTypeBuilder.obj
 0001:0003d000       ?SetAt@?$CAtlMap@PAVCXSDElement@@PAVCCodeTypedElement@@V?$CElementTraits@PAVCXSDElement@@@ATL@@V?$CElementTraits@PAVCCodeTypedElement@@@4@@ATL@@QAEPAU__POSITION@@ABQAVCXSDElement@@ABQAVCCodeTypedElement@@@Z 0043e000 f i CodeTypeBuilder.obj
 0001:0003d100       ?SetAt@?$CAtlMap@V?$CStringT@DV?$StrTraitATL@DV?$ChTraitsCRT@D@ATL@@@ATL@@@ATL@@HV?$CStringRefElementTraits@V?$CStringT@DV?$StrTraitATL@DV?$ChTraitsCRT@D@ATL@@@ATL@@@ATL@@@2@V?$CElementTraits@H@2@@ATL@@QAEPAU__POSITION@@ABV?$CStringT@DV?$StrTraitATL@DV?$ChTraitsCRT@D@ATL@@@ATL@@@2@H@Z 0043e100 f i CodeTypeBuilder.obj
 0001:0003d200       ?SetCallFlags@CCodeElementContainer@@QAEXK@Z 0043e200 f i CodeTypeBuilder.obj
 0001:0003d230       ?SetClassName@CCodeProxy@@QAEJPBD@Z 0043e230 f i CodeTypeBuilder.obj
 0001:0003d260       ?SetCodeType@CCodeElement@@QAEXW4CODETYPE@@@Z 0043e260 f i CodeTypeBuilder.obj
 0001:0003d290       ?SetCodeTypeName@CCodeType@@QAEJABV?$CStringT@_WV?$StrTraitATL@_WV?$ChTraitsCRT@_W@ATL@@@ATL@@@ATL@@@Z 0043e290 f i CodeTypeBuilder.obj
 0001:0003d2d0       ?SetCount@?$CAtlArray@HV?$CElementTraits@H@ATL@@@ATL@@QAE_NIH@Z 0043e2d0 f i CodeTypeBuilder.obj
 0001:0003d4a0       ?SetDimension@CCodeTypedElement@@QAEXHH@Z 0043e4a0 f i CodeTypeBuilder.obj
 0001:0003d4e0       ?SetElement@CCodeTypedElement@@QAEXPAVCXSDElement@@@Z 0043e4e0 f i CodeTypeBuilder.obj
 0001:0003d510       ?SetFlags@CCodeElement@@QAEKK@Z 0043e510 f i CodeTypeBuilder.obj
 0001:0003d540       ?SetLength@?$CSimpleStringT@D$0A@@ATL@@AAEXH@Z 0043e540 f i CodeTypeBuilder.obj
 0001:0003d620       ?SetName@CCodeElement@@QAEJABV?$CStringT@_WV?$StrTraitATL@_WV?$ChTraitsCRT@_W@ATL@@@ATL@@@ATL@@@Z 0043e620 f i CodeTypeBuilder.obj
 0001:0003d650       ?SetName@CCodeElementContainer@@QAEJABV?$CStringT@_WV?$StrTraitATL@_WV?$ChTraitsCRT@_W@ATL@@@ATL@@@ATL@@@Z 0043e650 f i CodeTypeBuilder.obj
 0001:0003d720       ?SetNamespace@CCodeElementContainer@@QAEJABV?$CStringT@_WV?$StrTraitATL@_WV?$ChTraitsCRT@_W@ATL@@@ATL@@@ATL@@@Z 0043e720 f i CodeTypeBuilder.obj
 0001:0003d7f0       ?SetNamespace@CCodeTypedElement@@QAEJABV?$CStringT@_WV?$StrTraitATL@_WV?$ChTraitsCRT@_W@ATL@@@ATL@@@ATL@@@Z 0043e7f0 f i CodeTypeBuilder.obj
 0001:0003d820       ?SetOptimalLoad@?$CAtlMap@V?$CStringT@DV?$StrTraitATL@DV?$ChTraitsCRT@D@ATL@@@ATL@@@ATL@@HV?$CStringRefElementTraits@V?$CStringT@DV?$StrTraitATL@DV?$ChTraitsCRT@D@ATL@@@ATL@@@ATL@@@2@V?$CElementTraits@H@2@@ATL@@QAEXMMM_N@Z 0043e820 f i CodeTypeBuilder.obj
 0001:0003d990       ?SetResponseName@CCodeElementContainer@@QAEJABV?$CStringT@_WV?$StrTraitATL@_WV?$ChTraitsCRT@_W@ATL@@@ATL@@@ATL@@@Z 0043e990 f i CodeTypeBuilder.obj
 0001:0003da60       ?SetSafeCodeTypeName@CCodeType@@QAEJABV?$CStringT@DV?$StrTraitATL@DV?$ChTraitsCRT@D@ATL@@@ATL@@@ATL@@@Z 0043ea60 f i CodeTypeBuilder.obj
 0001:0003da90       ?SetSafeName@CCodeElement@@QAEJABV?$CStringT@DV?$StrTraitATL@DV?$ChTraitsCRT@D@ATL@@@ATL@@@ATL@@@Z 0043ea90 f i CodeTypeBuilder.obj
 0001:0003dac0       ?SetSendName@CCodeElementContainer@@QAEJABV?$CStringT@_WV?$StrTraitATL@_WV?$ChTraitsCRT@_W@ATL@@@ATL@@@ATL@@@Z 0043eac0 f i CodeTypeBuilder.obj
 0001:0003db90       ?SetServiceName@CCodeProxy@@QAEJABV?$CStringT@_WV?$StrTraitATL@_WV?$ChTraitsCRT@_W@ATL@@@ATL@@@ATL@@@Z 0043eb90 f i CodeTypeBuilder.obj
 0001:0003dbd0       ?SetServiceName@CCodeProxy@@QAEJPBD@Z 0043ebd0 f i CodeTypeBuilder.obj
 0001:0003dc10       ?SetSizeIs@CCodeTypedElement@@QAEXABV?$CStringT@_WV?$StrTraitATL@_WV?$ChTraitsCRT@_W@ATL@@@ATL@@@ATL@@@Z 0043ec10 f i CodeTypeBuilder.obj
 0001:0003dce0       ?SetSoapAction@CCodeElementContainer@@QAEJABV?$CStringT@_WV?$StrTraitATL@_WV?$ChTraitsCRT@_W@ATL@@@ATL@@@ATL@@@Z 0043ece0 f i CodeTypeBuilder.obj
 0001:0003ddb0       ?SetString@?$CSimpleStringT@D$0A@@ATL@@QAEXPBD@Z 0043edb0 f i CodeTypeBuilder.obj
 0001:0003ddf0       ?SetString@?$CSimpleStringT@D$0A@@ATL@@QAEXPBDH@Z 0043edf0 f i CodeTypeBuilder.obj
 0001:0003dee0       ?SetString@?$CSimpleStringT@_W$0A@@ATL@@QAEXPB_W@Z 0043eee0 f i CodeTypeBuilder.obj
 0001:0003df20       ?SetTargetNamespace@CCodeProxy@@QAEJABV?$CStringT@_WV?$StrTraitATL@_WV?$ChTraitsCRT@_W@ATL@@@ATL@@@ATL@@@Z 0043ef20 f i CodeTypeBuilder.obj
 0001:0003dff0       ?SetXSDType@CCodeType@@QAEXW4XSDTYPE@@@Z 0043eff0 f i CodeTypeBuilder.obj
 0001:0003e020       ?SortStructHelper@CCodeTypeBuilder@@AAEJPAU__POSITION@@@Z 0043f020 f   CodeTypeBuilder.obj
 0001:0003e1e0       ?SortStructs@CCodeTypeBuilder@@AAEJXZ 0043f1e0 f   CodeTypeBuilder.obj
 0001:0003e280       ?StringCompare@?$ChTraitsCRT@D@ATL@@SAHPBD0@Z 0043f280 f i CodeTypeBuilder.obj
 0001:0003e2b0       ?StringCompare@?$ChTraitsCRT@_W@ATL@@SAHPB_W0@Z 0043f2b0 f i CodeTypeBuilder.obj
 0001:0003e2e0       ?StringLength@?$CSimpleStringT@D$0A@@ATL@@SAHPBD@Z 0043f2e0 f i CodeTypeBuilder.obj
 0001:0003e310       ?StringLength@?$CSimpleStringT@_W$0A@@ATL@@SAHPB_W@Z 0043f310 f i CodeTypeBuilder.obj
 0001:0003e340       ?StringLengthN@?$CSimpleStringT@D$0A@@ATL@@SAHPBDI@Z 0043f340 f i CodeTypeBuilder.obj
 0001:0003e380       ?StringLengthN@?$CSimpleStringT@_W$0A@@ATL@@SAHPB_WI@Z 0043f380 f i CodeTypeBuilder.obj
 0001:0003e3c0       ?ThrowMemoryException@?$CSimpleStringT@D$0A@@ATL@@KAXXZ 0043f3c0 f i CodeTypeBuilder.obj
 0001:0003e3e0       ?UpdateRehashThresholds@?$CAtlMap@PAVCComplexType@@HV?$CXSDElementPtrTraits@VCComplexType@@@@V?$CElementTraits@H@ATL@@@ATL@@AAEXXZ 0043f3e0 f i CodeTypeBuilder.obj
 0001:0003e4a0       ?UpdateRehashThresholds@?$CAtlMap@PAVCComplexType@@PAVCCodeElementContainer@@V?$CXSDElementPtrTraits@VCComplexType@@@@V?$CElementTraits@PAVCCodeElementContainer@@@ATL@@@ATL@@AAEXXZ 0043f4a0 f i CodeTypeBuilder.obj
 0001:0003e560       ?UpdateRehashThresholds@?$CAtlMap@PAVCComplexType@@VCCodeTypedElement@@V?$CXSDElementPtrTraits@VCComplexType@@@@V?$CElementTraits@VCCodeTypedElement@@@ATL@@@ATL@@AAEXXZ 0043f560 f i CodeTypeBuilder.obj
 0001:0003e620       ?UpdateRehashThresholds@?$CAtlMap@PAVCSimpleType@@PAVCCodeElementContainer@@V?$CXSDElementPtrTraits@VCSimpleType@@@@V?$CElementTraits@PAVCCodeElementContainer@@@ATL@@@ATL@@AAEXXZ 0043f620 f i CodeTypeBuilder.obj
 0001:0003e6e0       ?UpdateRehashThresholds@?$CAtlMap@PAVCSimpleType@@VCCodeTypedElement@@V?$CXSDElementPtrTraits@VCSimpleType@@@@V?$CElementTraits@VCCodeTypedElement@@@ATL@@@ATL@@AAEXXZ 0043f6e0 f i CodeTypeBuilder.obj
 0001:0003e7a0       ?UpdateRehashThresholds@?$CAtlMap@PAVCWSDLMessagePart@@PAVCCodeTypedElement@@V?$CElementTraits@PAVCWSDLMessagePart@@@ATL@@V?$CElementTraits@PAVCCodeTypedElement@@@4@@ATL@@AAEXXZ 0043f7a0 f i CodeTypeBuilder.obj
 0001:0003e860       ?UpdateRehashThresholds@?$CAtlMap@PAVCXSDElement@@PAVCCodeTypedElement@@V?$CElementTraits@PAVCXSDElement@@@ATL@@V?$CElementTraits@PAVCCodeTypedElement@@@4@@ATL@@AAEXXZ 0043f860 f i CodeTypeBuilder.obj
 0001:0003e920       ?UpdateRehashThresholds@?$CAtlMap@V?$CStringT@DV?$StrTraitATL@DV?$ChTraitsCRT@D@ATL@@@ATL@@@ATL@@HV?$CStringRefElementTraits@V?$CStringT@DV?$StrTraitATL@DV?$ChTraitsCRT@D@ATL@@@ATL@@@ATL@@@2@V?$CElementTraits@H@2@@ATL@@AAEXXZ 0043f920 f i CodeTypeBuilder.obj
 0001:0003e9e0       ?XSDHash@@YAKPB_WK@Z       0043f9e0 f i CodeTypeBuilder.obj
 0001:0003ea30       ?_AtlGetConversionACP@ATL@@YGIXZ 0043fa30 f i CodeTypeBuilder.obj
 0001:0003ea50       ?_AtlGetStringResourceImage@ATL@@YAPBUATLSTRINGRESOURCEIMAGE@1@PAUHINSTANCE__@@PAUHRSRC__@@I@Z 0043fa50 f i CodeTypeBuilder.obj
 0001:0003eb30       ?data@CAtlPlex@ATL@@QAEPAXXZ 0043fb30 f i CodeTypeBuilder.obj
 0001:0003eb50       ?memmove_s@Checked@ATL@@YAXPAXIPBXI@Z 0043fb50 f i CodeTypeBuilder.obj
 0001:0003eb90       ?wmemcpy_s@Checked@ATL@@YAXPA_WIPB_WI@Z 0043fb90 f i CodeTypeBuilder.obj
 0001:0003ee50       ??0?$CAtlList@PAVCXSDElement@@V?$CElementTraits@PAVCXSDElement@@@ATL@@@ATL@@QAE@I@Z 0043fe50 f i ComplexType.obj
 0001:0003eef0       ??0?$CAtlMap@V?$CStringT@_WV?$StrTraitATL@_WV?$ChTraitsCRT@_W@ATL@@@ATL@@@ATL@@V12@V?$CStringRefElementTraits@V?$CStringT@_WV?$StrTraitATL@_WV?$ChTraitsCRT@_W@ATL@@@ATL@@@ATL@@@2@V32@@ATL@@QAE@IMMMI@Z 0043fef0 f i ComplexType.obj
 0001:0003f050       ??0?$CAtlPtrList@PAVCXSDElement@@V?$CElementTraits@PAVCXSDElement@@@ATL@@@@QAE@XZ 00440050 f i ComplexType.obj
 0001:0003f090       ??0?$CAutoPtr@VCAttribute@@@ATL@@QAE@XZ 00440090 f i ComplexType.obj
 0001:0003f0c0       ??0?$CAutoPtr@VCElement@@@ATL@@QAE@XZ 004400c0 f i ComplexType.obj
 0001:0003f0f0       ??0CAttribute@@QAE@XZ      004400f0 f i ComplexType.obj
 0001:0003f1f0       ??0CContent@@QAE@XZ        004401f0 f i ComplexType.obj
 0001:0003f250       ??0CElement@@QAE@XZ        00440250 f i ComplexType.obj
 0001:0003f3a0       ??0CNode@?$CAtlList@PAVCAttribute@@V?$CElementTraits@PAVCAttribute@@@ATL@@@ATL@@QAE@ABQAVCAttribute@@@Z 004403a0 f i ComplexType.obj
 0001:0003f3d0       ??0CNode@?$CAtlList@PAVCElement@@V?$CElementTraits@PAVCElement@@@ATL@@@ATL@@QAE@ABQAVCElement@@@Z 004403d0 f i ComplexType.obj
 0001:0003f400       ??0CQName@@QAE@XZ          00440400 f i ComplexType.obj
 0001:0003f440       ??0CXMLElement@@QAE@PAVCXMLDocument@@PAV0@@Z 00440440 f i ComplexType.obj
 0001:0003f520       ??0CXSDElement@@QAE@PAVCXMLElement@@W4XSDELEMENT_TYPE@@@Z 00440520 f i ComplexType.obj
 0001:0003f5c0       ??0LOCATORINFO@@QAE@XZ     004405c0 f i ComplexType.obj
 0001:0003f600       ??1?$CAtlList@PAVCAttribute@@V?$CElementTraits@PAVCAttribute@@@ATL@@@ATL@@QAE@XZ 00440600 f i ComplexType.obj
 0001:0003f670       ??1?$CAtlList@PAVCElement@@V?$CElementTraits@PAVCElement@@@ATL@@@ATL@@QAE@XZ 00440670 f i ComplexType.obj
 0001:0003f6e0       ??1?$CAtlList@PAVCXSDElement@@V?$CElementTraits@PAVCXSDElement@@@ATL@@@ATL@@QAE@XZ 004406e0 f i ComplexType.obj
 0001:0003f750       ??1?$CAtlMap@V?$CStringT@_WV?$StrTraitATL@_WV?$ChTraitsCRT@_W@ATL@@@ATL@@@ATL@@V12@V?$CStringRefElementTraits@V?$CStringT@_WV?$StrTraitATL@_WV?$ChTraitsCRT@_W@ATL@@@ATL@@@ATL@@@2@V32@@ATL@@QAE@XZ 00440750 f i ComplexType.obj
 0001:0003f810       ??1?$CAtlPtrList@PAVCAttribute@@V?$CElementTraits@PAVCAttribute@@@ATL@@@@QAE@XZ 00440810 f i ComplexType.obj
 0001:0003f870       ??1?$CAtlPtrList@PAVCElement@@V?$CElementTraits@PAVCElement@@@ATL@@@@QAE@XZ 00440870 f i ComplexType.obj
 0001:0003f8d0       ??1?$CAtlPtrList@PAVCXSDElement@@V?$CElementTraits@PAVCXSDElement@@@ATL@@@@QAE@XZ 004408d0 f i ComplexType.obj
 0001:0003f930       ??1?$CAutoPtr@VCAttribute@@@ATL@@QAE@XZ 00440930 f i ComplexType.obj
 0001:0003f960       ??1?$CAutoPtr@VCElement@@@ATL@@QAE@XZ 00440960 f i ComplexType.obj
 0001:0003f990       ??1CAttribute@@UAE@XZ      00440990 f i ComplexType.obj
 0001:0003fa10       ??1CComplexType@@UAE@XZ    00440a10 f   ComplexType.obj
 0001:0003fac0       ??1CElement@@UAE@XZ        00440ac0 f i ComplexType.obj
 0001:0003fb50       ??1CNode@?$CAtlList@PAVCAttribute@@V?$CElementTraits@PAVCAttribute@@@ATL@@@ATL@@QAE@XZ 00440b50 f i ComplexType.obj
 0001:0003fb70       ??1CNode@?$CAtlList@PAVCElement@@V?$CElementTraits@PAVCElement@@@ATL@@@ATL@@QAE@XZ 00440b70 f i ComplexType.obj
 0001:0003fb90       ??1CNode@?$CAtlList@PAVCXSDElement@@V?$CElementTraits@PAVCXSDElement@@@ATL@@@ATL@@QAE@XZ 00440b90 f i ComplexType.obj
 0001:0003fbb0       ??1CNode@?$CAtlMap@V?$CStringT@_WV?$StrTraitATL@_WV?$ChTraitsCRT@_W@ATL@@@ATL@@@ATL@@V12@V?$CStringRefElementTraits@V?$CStringT@_WV?$StrTraitATL@_WV?$ChTraitsCRT@_W@ATL@@@ATL@@@ATL@@@2@V32@@ATL@@QAE@XZ 00440bb0 f i ComplexType.obj
 0001:0003fbe0       ??1CPair@?$CAtlMap@V?$CStringT@_WV?$StrTraitATL@_WV?$ChTraitsCRT@_W@ATL@@@ATL@@@ATL@@V12@V?$CStringRefElementTraits@V?$CStringT@_WV?$StrTraitATL@_WV?$ChTraitsCRT@_W@ATL@@@ATL@@@ATL@@@2@V32@@ATL@@QAE@XZ 00440be0 f i ComplexType.obj
 0001:0003fc10       ??1CXMLElement@@UAE@XZ     00440c10 f i ComplexType.obj
 0001:0003fc40       ??1CXSDElement@@UAE@XZ     00440c40 f i ComplexType.obj
 0001:0003fc70       ??B?$CAutoPtr@VCAttribute@@@ATL@@QBEPAVCAttribute@@XZ 00440c70 f i ComplexType.obj
 0001:0003fc90       ??B?$CAutoPtr@VCElement@@@ATL@@QBEPAVCElement@@XZ 00440c90 f i ComplexType.obj
 0001:0003fcb0       ??_ECAttribute@@UAEPAXI@Z  00440cb0 f i ComplexType.obj
 0001:0003fcb0       ??_GCAttribute@@UAEPAXI@Z  00440cb0 f i ComplexType.obj
 0001:0003fd00       ??_ECComplexType@@UAEPAXI@Z 00440d00 f i ComplexType.obj
 0001:0003fd00       ??_GCComplexType@@UAEPAXI@Z 00440d00 f i ComplexType.obj
 0001:0003fd50       ??_ECContent@@UAEPAXI@Z    00440d50 f i ComplexType.obj
 0001:0003fd50       ??_GCContent@@UAEPAXI@Z    00440d50 f i ComplexType.obj
 0001:0003fda0       ??_GCElement@@UAEPAXI@Z    00440da0 f i ComplexType.obj
 0001:0003fda0       ??_ECElement@@UAEPAXI@Z    00440da0 f i ComplexType.obj
 0001:0003fdf0       ??_GCNode@?$CAtlList@PAVCAttribute@@V?$CElementTraits@PAVCAttribute@@@ATL@@@ATL@@QAEPAXI@Z 00440df0 f i ComplexType.obj
 0001:0003fe40       ??_GCNode@?$CAtlList@PAVCElement@@V?$CElementTraits@PAVCElement@@@ATL@@@ATL@@QAEPAXI@Z 00440e40 f i ComplexType.obj
 0001:0003fe90       ??_GCNode@?$CAtlList@PAVCXSDElement@@V?$CElementTraits@PAVCXSDElement@@@ATL@@@ATL@@QAEPAXI@Z 00440e90 f i ComplexType.obj
 0001:0003fee0       ??_GCNode@?$CAtlMap@V?$CStringT@_WV?$StrTraitATL@_WV?$ChTraitsCRT@_W@ATL@@@ATL@@@ATL@@V12@V?$CStringRefElementTraits@V?$CStringT@_WV?$StrTraitATL@_WV?$ChTraitsCRT@_W@ATL@@@ATL@@@ATL@@@2@V32@@ATL@@QAEPAXI@Z 00440ee0 f i ComplexType.obj
 0001:0003ff30       ??_ECXSDElement@@UAEPAXI@Z 00440f30 f i ComplexType.obj
 0001:0003ff30       ??_GCXSDElement@@UAEPAXI@Z 00440f30 f i ComplexType.obj
 0001:0003ff80       ?AddAttribute@CComplexType@@QAEPAVCAttribute@@PAV2@@Z 00440f80 f   ComplexType.obj
 0001:000400c0       ?AddContent@CComplexType@@QAEPAVCContent@@PAV2@@Z 004410c0 f   ComplexType.obj
 0001:000401c0       ?AddElement@CComplexType@@QAEPAVCElement@@PAV2@@Z 004411c0 f   ComplexType.obj
 0001:00040300       ?AddTail@?$CAtlList@PAVCAttribute@@V?$CElementTraits@PAVCAttribute@@@ATL@@@ATL@@QAEPAU__POSITION@@ABQAVCAttribute@@@Z 00441300 f i ComplexType.obj
 0001:00040370       ?AddTail@?$CAtlList@PAVCElement@@V?$CElementTraits@PAVCElement@@@ATL@@@ATL@@QAEPAU__POSITION@@ABQAVCElement@@@Z 00441370 f i ComplexType.obj
 0001:000403e0       ?Attach@?$CAutoPtr@VCAttribute@@@ATL@@QAEXPAVCAttribute@@@Z 004413e0 f i ComplexType.obj
 0001:00040450       ?Attach@?$CAutoPtr@VCElement@@@ATL@@QAEXPAVCElement@@@Z 00441450 f i ComplexType.obj
 0001:000404c0       ?Detach@?$CAutoPtr@VCAttribute@@@ATL@@QAEPAVCAttribute@@XZ 004414c0 f i ComplexType.obj
 0001:000404f0       ?Detach@?$CAutoPtr@VCElement@@@ATL@@QAEPAVCElement@@XZ 004414f0 f i ComplexType.obj
 0001:00040520       ?DisableAutoRehash@?$CAtlMap@V?$CStringT@_WV?$StrTraitATL@_WV?$ChTraitsCRT@_W@ATL@@@ATL@@@ATL@@V12@V?$CStringRefElementTraits@V?$CStringT@_WV?$StrTraitATL@_WV?$ChTraitsCRT@_W@ATL@@@ATL@@@ATL@@@2@V32@@ATL@@QAEXXZ 00441520 f i ComplexType.obj
 0001:00040550       ?EnableAutoRehash@?$CAtlMap@V?$CStringT@_WV?$StrTraitATL@_WV?$ChTraitsCRT@_W@ATL@@@ATL@@@ATL@@V12@V?$CStringRefElementTraits@V?$CStringT@_WV?$StrTraitATL@_WV?$ChTraitsCRT@_W@ATL@@@ATL@@@ATL@@@2@V32@@ATL@@QAEXXZ 00441550 f i ComplexType.obj
 0001:000405c0       ?Free@?$CAutoPtr@VCAttribute@@@ATL@@QAEXXZ 004415c0 f i ComplexType.obj
 0001:00040620       ?Free@?$CAutoPtr@VCElement@@@ATL@@QAEXXZ 00441620 f i ComplexType.obj
 0001:00040680       ?FreeNode@?$CAtlList@PAVCAttribute@@V?$CElementTraits@PAVCAttribute@@@ATL@@@ATL@@AAEXPAVCNode@12@@Z 00441680 f i ComplexType.obj
 0001:00040730       ?FreeNode@?$CAtlList@PAVCElement@@V?$CElementTraits@PAVCElement@@@ATL@@@ATL@@AAEXPAVCNode@12@@Z 00441730 f i ComplexType.obj
 0001:000407e0       ?FreeNode@?$CAtlList@PAVCXSDElement@@V?$CElementTraits@PAVCXSDElement@@@ATL@@@ATL@@AAEXPAVCNode@12@@Z 004417e0 f i ComplexType.obj
 0001:00040890       ?FreeNode@?$CAtlMap@V?$CStringT@_WV?$StrTraitATL@_WV?$ChTraitsCRT@_W@ATL@@@ATL@@@ATL@@V12@V?$CStringRefElementTraits@V?$CStringT@_WV?$StrTraitATL@_WV?$ChTraitsCRT@_W@ATL@@@ATL@@@ATL@@@2@V32@@ATL@@AAEXPAVCNode@12@@Z 00441890 f i ComplexType.obj
 0001:00040a00       ?FreePlexes@?$CAtlMap@V?$CStringT@_WV?$StrTraitATL@_WV?$ChTraitsCRT@_W@ATL@@@ATL@@@ATL@@V12@V?$CStringRefElementTraits@V?$CStringT@_WV?$StrTraitATL@_WV?$ChTraitsCRT@_W@ATL@@@ATL@@@ATL@@@2@V32@@ATL@@AAEXXZ 00441a00 f i ComplexType.obj
 0001:00040a50       ?GetAt@?$CAtlList@PAVCAttribute@@V?$CElementTraits@PAVCAttribute@@@ATL@@@ATL@@QAEAAPAVCAttribute@@PAU__POSITION@@@Z 00441a50 f i ComplexType.obj
 0001:00040b00       ?GetAt@?$CAtlList@PAVCElement@@V?$CElementTraits@PAVCElement@@@ATL@@@ATL@@QAEAAPAVCElement@@PAU__POSITION@@@Z 00441b00 f i ComplexType.obj
 0001:00040bb0       ?GetAt@?$CAtlList@PAVCXSDElement@@V?$CElementTraits@PAVCXSDElement@@@ATL@@@ATL@@QAEAAPAVCXSDElement@@PAU__POSITION@@@Z 00441bb0 f i ComplexType.obj
 0001:00040c60       ?GetFreeNode@?$CAtlList@PAVCAttribute@@V?$CElementTraits@PAVCAttribute@@@ATL@@@ATL@@AAEXXZ 00441c60 f i ComplexType.obj
 0001:00040d70       ?GetFreeNode@?$CAtlList@PAVCElement@@V?$CElementTraits@PAVCElement@@@ATL@@@ATL@@AAEXXZ 00441d70 f i ComplexType.obj
 0001:00040e80       ?GetHash@CNode@?$CAtlMap@V?$CStringT@_WV?$StrTraitATL@_WV?$ChTraitsCRT@_W@ATL@@@ATL@@@ATL@@V12@V?$CStringRefElementTraits@V?$CStringT@_WV?$StrTraitATL@_WV?$ChTraitsCRT@_W@ATL@@@ATL@@@ATL@@@2@V32@@ATL@@QBEIXZ 00441e80 f i ComplexType.obj
 0001:00040ea0       ?InitHashTable@?$CAtlMap@V?$CStringT@_WV?$StrTraitATL@_WV?$ChTraitsCRT@_W@ATL@@@ATL@@@ATL@@V12@V?$CStringRefElementTraits@V?$CStringT@_WV?$StrTraitATL@_WV?$ChTraitsCRT@_W@ATL@@@ATL@@@ATL@@@2@V32@@ATL@@QAE_NI_N@Z 00441ea0 f i ComplexType.obj
 0001:00041070       ?IsLocked@?$CAtlMap@V?$CStringT@_WV?$StrTraitATL@_WV?$ChTraitsCRT@_W@ATL@@@ATL@@@ATL@@V12@V?$CStringRefElementTraits@V?$CStringT@_WV?$StrTraitATL@_WV?$ChTraitsCRT@_W@ATL@@@ATL@@@ATL@@@2@V32@@ATL@@ABE_NXZ 00442070 f i ComplexType.obj
 0001:000410b0       ?NewNode@?$CAtlList@PAVCAttribute@@V?$CElementTraits@PAVCAttribute@@@ATL@@@ATL@@AAEPAVCNode@12@ABQAVCAttribute@@PAV312@1@Z 004420b0 f i ComplexType.obj
 0001:000411f0       ?NewNode@?$CAtlList@PAVCElement@@V?$CElementTraits@PAVCElement@@@ATL@@@ATL@@AAEPAVCNode@12@ABQAVCElement@@PAV312@1@Z 004421f0 f i ComplexType.obj
 0001:00041330       ?PickSize@?$CAtlMap@V?$CStringT@_WV?$StrTraitATL@_WV?$ChTraitsCRT@_W@ATL@@@ATL@@@ATL@@V12@V?$CStringRefElementTraits@V?$CStringT@_WV?$StrTraitATL@_WV?$ChTraitsCRT@_W@ATL@@@ATL@@@ATL@@@2@V32@@ATL@@ABEII@Z 00442330 f i ComplexType.obj
 0001:00041400       ?Rehash@?$CAtlMap@V?$CStringT@_WV?$StrTraitATL@_WV?$ChTraitsCRT@_W@ATL@@@ATL@@@ATL@@V12@V?$CStringRefElementTraits@V?$CStringT@_WV?$StrTraitATL@_WV?$ChTraitsCRT@_W@ATL@@@ATL@@@ATL@@@2@V32@@ATL@@QAEXI@Z 00442400 f i ComplexType.obj
 0001:00041650       ?RemoveAll@?$CAtlList@PAVCAttribute@@V?$CElementTraits@PAVCAttribute@@@ATL@@@ATL@@QAEXXZ 00442650 f i ComplexType.obj
 0001:000417b0       ?RemoveAll@?$CAtlList@PAVCElement@@V?$CElementTraits@PAVCElement@@@ATL@@@ATL@@QAEXXZ 004427b0 f i ComplexType.obj
 0001:00041910       ?RemoveAll@?$CAtlList@PAVCXSDElement@@V?$CElementTraits@PAVCXSDElement@@@ATL@@@ATL@@QAEXXZ 00442910 f i ComplexType.obj
 0001:00041a70       ?RemoveAll@?$CAtlMap@V?$CStringT@_WV?$StrTraitATL@_WV?$ChTraitsCRT@_W@ATL@@@ATL@@@ATL@@V12@V?$CStringRefElementTraits@V?$CStringT@_WV?$StrTraitATL@_WV?$ChTraitsCRT@_W@ATL@@@ATL@@@ATL@@@2@V32@@ATL@@QAEXXZ 00442a70 f i ComplexType.obj
 0001:00041b80       ?RemoveAll@?$CAtlPtrList@PAVCAttribute@@V?$CElementTraits@PAVCAttribute@@@ATL@@@@QAEXXZ 00442b80 f i ComplexType.obj
 0001:00041c30       ?RemoveAll@?$CAtlPtrList@PAVCElement@@V?$CElementTraits@PAVCElement@@@ATL@@@@QAEXXZ 00442c30 f i ComplexType.obj
 0001:00041ce0       ?RemoveAll@?$CAtlPtrList@PAVCXSDElement@@V?$CElementTraits@PAVCXSDElement@@@ATL@@@@QAEXXZ 00442ce0 f i ComplexType.obj
 0001:00041d90       ?SetElementType@CXSDElement@@QAEXW4XSDELEMENT_TYPE@@@Z 00442d90 f i ComplexType.obj
 0001:00041dc0       ?SetOptimalLoad@?$CAtlMap@V?$CStringT@_WV?$StrTraitATL@_WV?$ChTraitsCRT@_W@ATL@@@ATL@@@ATL@@V12@V?$CStringRefElementTraits@V?$CStringT@_WV?$StrTraitATL@_WV?$ChTraitsCRT@_W@ATL@@@ATL@@@ATL@@@2@V32@@ATL@@QAEXMMM_N@Z 00442dc0 f i ComplexType.obj
 0001:00041f30       ?SetParentElement@CXMLElement@@QAEXPAV1@@Z 00442f30 f i ComplexType.obj
 0001:00041f60       ?UpdateRehashThresholds@?$CAtlMap@V?$CStringT@_WV?$StrTraitATL@_WV?$ChTraitsCRT@_W@ATL@@@ATL@@@ATL@@V12@V?$CStringRefElementTraits@V?$CStringT@_WV?$StrTraitATL@_WV?$ChTraitsCRT@_W@ATL@@@ATL@@@ATL@@@2@V32@@ATL@@AAEXXZ 00442f60 f i ComplexType.obj
 0001:00042020       ??0?$CAutoPtr@VCAttributeParser@@@ATL@@QAE@PAVCAttributeParser@@@Z 00443020 f i ComplexTypeParser.obj
 0001:00042050       ??0?$CAutoPtr@VCContentParser@@@ATL@@QAE@PAVCContentParser@@@Z 00443050 f i ComplexTypeParser.obj
 0001:00042080       ??0?$CAutoPtr@VCElementParser@@@ATL@@QAE@PAVCElementParser@@@Z 00443080 f i ComplexTypeParser.obj
 0001:000420b0       ??0?$CComPtr@UISAXLocator@@@ATL@@QAE@XZ 004430b0 f i ComplexTypeParser.obj
 0001:000420e0       ??0?$CComPtr@UISAXXMLReader@@@ATL@@QAE@PAUISAXXMLReader@@@Z 004430e0 f i ComplexTypeParser.obj
 0001:00042110       ??0?$CComPtr@VCParserBase@@@ATL@@QAE@PAVCParserBase@@@Z 00443110 f i ComplexTypeParser.obj
 0001:00042140       ??0?$CComPtrBase@UISAXLocator@@@ATL@@IAE@XZ 00443140 f i ComplexTypeParser.obj
 0001:00042170       ??0?$CComPtrBase@UISAXXMLReader@@@ATL@@IAE@PAUISAXXMLReader@@@Z 00443170 f i ComplexTypeParser.obj
 0001:000421c0       ??0?$CComPtrBase@VCParserBase@@@ATL@@IAE@PAVCParserBase@@@Z 004431c0 f i ComplexTypeParser.obj
 0001:00042210       ??0CAttributeParser@@QAE@PAUISAXXMLReader@@PAVCParserBase@@KPAVCAttribute@@@Z 00443210 f i ComplexTypeParser.obj
 0001:00042260       ??0CContentParser@@QAE@PAUISAXXMLReader@@PAVCParserBase@@KPAVCContent@@@Z 00443260 f i ComplexTypeParser.obj
 0001:000422b0       ??0CElementParser@@QAE@PAUISAXXMLReader@@PAVCParserBase@@KPAVCElement@@@Z 004432b0 f i ComplexTypeParser.obj
 0001:00042300       ??0CNode@?$CAtlList@PAVCParserBase@@V?$CElementTraits@PAVCParserBase@@@ATL@@@ATL@@QAE@ABQAVCParserBase@@@Z 00443300 f i ComplexTypeParser.obj
 0001:00042330       ??0CParserBase@@QAE@PAUISAXXMLReader@@PAV0@K@Z 00443330 f i ComplexTypeParser.obj
 0001:00042450       ??0ISAXContentHandler@@QAE@XZ 00443450 f i ComplexTypeParser.obj
 0001:00042480       ??0IUnknown@@QAE@XZ        00443480 f i ComplexTypeParser.obj
 0001:000424a0       ??1?$CAutoPtr@VCAttributeParser@@@ATL@@QAE@XZ 004434a0 f i ComplexTypeParser.obj
 0001:000424d0       ??1?$CAutoPtr@VCContentParser@@@ATL@@QAE@XZ 004434d0 f i ComplexTypeParser.obj
 0001:00042500       ??1?$CAutoPtr@VCElementParser@@@ATL@@QAE@XZ 00443500 f i ComplexTypeParser.obj
 0001:00042530       ??1?$CComPtr@UISAXLocator@@@ATL@@QAE@XZ 00443530 f i ComplexTypeParser.obj
 0001:00042560       ??1?$CComPtr@UISAXXMLReader@@@ATL@@QAE@XZ 00443560 f i ComplexTypeParser.obj
 0001:00042590       ??1?$CComPtr@VCParserBase@@@ATL@@QAE@XZ 00443590 f i ComplexTypeParser.obj
 0001:000425c0       ??1?$CComPtrBase@UISAXLocator@@@ATL@@QAE@XZ 004435c0 f i ComplexTypeParser.obj
 0001:00042600       ??1?$CComPtrBase@UISAXXMLReader@@@ATL@@QAE@XZ 00443600 f i ComplexTypeParser.obj
 0001:00042640       ??1?$CComPtrBase@VCParserBase@@@ATL@@QAE@XZ 00443640 f i ComplexTypeParser.obj
 0001:00042680       ??1CAttributeParser@@UAE@XZ 00443680 f i ComplexTypeParser.obj
 0001:000426b0       ??1CContentParser@@UAE@XZ  004436b0 f i ComplexTypeParser.obj
 0001:000426e0       ??1CElementParser@@UAE@XZ  004436e0 f i ComplexTypeParser.obj
 0001:00042710       ??1CParserBase@@UAE@XZ     00443710 f i ComplexTypeParser.obj
 0001:000427e0       ??B?$CAutoPtr@VCAttributeParser@@@ATL@@QBEPAVCAttributeParser@@XZ 004437e0 f i ComplexTypeParser.obj
 0001:00042800       ??B?$CAutoPtr@VCContentParser@@@ATL@@QBEPAVCContentParser@@XZ 00443800 f i ComplexTypeParser.obj
 0001:00042820       ??B?$CAutoPtr@VCElementParser@@@ATL@@QBEPAVCElementParser@@XZ 00443820 f i ComplexTypeParser.obj
 0001:00042840       ??B?$CComPtrBase@UISAXLocator@@@ATL@@QBEPAUISAXLocator@@XZ 00443840 f i ComplexTypeParser.obj
 0001:00042860       ??B?$CComPtrBase@UISAXXMLReader@@@ATL@@QBEPAUISAXXMLReader@@XZ 00443860 f i ComplexTypeParser.obj
 0001:00042880       ??B?$CComPtrBase@VCParserBase@@@ATL@@QBEPAVCParserBase@@XZ 00443880 f i ComplexTypeParser.obj
 0001:000428a0       ??C?$CComPtrBase@UISAXXMLReader@@@ATL@@QBEPAV?$_NoAddRefReleaseOnCComPtr@UISAXXMLReader@@@1@XZ 004438a0 f i ComplexTypeParser.obj
 0001:00042900       ??C?$CComPtrBase@VCParserBase@@@ATL@@QBEPAV?$_NoAddRefReleaseOnCComPtr@VCParserBase@@@1@XZ 00443900 f i ComplexTypeParser.obj
 0001:00042960       ??_ECAttributeParser@@UAEPAXI@Z 00443960 f i ComplexTypeParser.obj
 0001:00042960       ??_GCAttributeParser@@UAEPAXI@Z 00443960 f i ComplexTypeParser.obj
 0001:000429b0       ??_ECContentParser@@UAEPAXI@Z 004439b0 f i ComplexTypeParser.obj
 0001:000429b0       ??_GCContentParser@@UAEPAXI@Z 004439b0 f i ComplexTypeParser.obj
 0001:00042a00       ??_GCElementParser@@UAEPAXI@Z 00443a00 f i ComplexTypeParser.obj
 0001:00042a00       ??_ECElementParser@@UAEPAXI@Z 00443a00 f i ComplexTypeParser.obj
 0001:00042a50       ??_GCParserBase@@UAEPAXI@Z 00443a50 f i ComplexTypeParser.obj
 0001:00042a50       ??_ECParserBase@@UAEPAXI@Z 00443a50 f i ComplexTypeParser.obj
 0001:00042aa0       ?AddHead@?$CAtlList@PAVCParserBase@@V?$CElementTraits@PAVCParserBase@@@ATL@@@ATL@@QAEPAU__POSITION@@ABQAVCParserBase@@@Z 00443aa0 f i ComplexTypeParser.obj
 0001:00042b10       ?Detach@?$CAutoPtr@VCAttributeParser@@@ATL@@QAEPAVCAttributeParser@@XZ 00443b10 f i ComplexTypeParser.obj
 0001:00042b40       ?Detach@?$CAutoPtr@VCContentParser@@@ATL@@QAEPAVCContentParser@@XZ 00443b40 f i ComplexTypeParser.obj
 0001:00042b70       ?Detach@?$CAutoPtr@VCElementParser@@@ATL@@QAEPAVCElementParser@@XZ 00443b70 f i ComplexTypeParser.obj
 0001:00042ba0       ?DisableReset@CParserBase@@QAEXK@Z 00443ba0 f i ComplexTypeParser.obj
 0001:00042bd0       ?Free@?$CAutoPtr@VCAttributeParser@@@ATL@@QAEXXZ 00443bd0 f i ComplexTypeParser.obj
 0001:00042c30       ?Free@?$CAutoPtr@VCContentParser@@@ATL@@QAEXXZ 00443c30 f i ComplexTypeParser.obj
 0001:00042c90       ?Free@?$CAutoPtr@VCElementParser@@@ATL@@QAEXXZ 00443c90 f i ComplexTypeParser.obj
 0001:00042cf0       ?GetComplexType@CComplexTypeParser@@QAEPAVCComplexType@@XZ 00443cf0 f i ComplexTypeParser.obj
 0001:00042d10       ?GetContentAttribute@@YA?AW4CONTENT_TYPE@@PB_WH@Z 00443d10 f i ComplexTypeParser.obj
 0001:00042da0       ?GetDerivedByAttribute@@YA?AW4DERIVED_TYPE@@PB_WH@Z 00443da0 f i ComplexTypeParser.obj
 0001:00042e30       ?GetFreeNode@?$CAtlList@PAVCParserBase@@V?$CElementTraits@PAVCParserBase@@@ATL@@@ATL@@AAEXXZ 00443e30 f i ComplexTypeParser.obj
 0001:00042f40       ?GetLocator@CParserBase@@QAEPAUISAXLocator@@XZ 00443f40 f i ComplexTypeParser.obj
 0001:00042fa0       ?GetReader@CParserBase@@QAEPAUISAXXMLReader@@XZ 00443fa0 f i ComplexTypeParser.obj
 0001:00042fd0       ?GetXMLATTRMap@CAttributeParser@@UAEPBUXMLTAG@@XZ 00443fd0 f i ComplexTypeParser.obj
 0001:00043940       ?GetXMLATTRMap@CContentParser@@UAEPBUXMLTAG@@XZ 00444940 f i ComplexTypeParser.obj
 0001:00043b90       ?GetXMLATTRMap@CElementParser@@UAEPBUXMLTAG@@XZ 00444b90 f i ComplexTypeParser.obj
 0001:00044ee0       ?GetXMLATTRMap@CParserBase@@UAEPBUXMLTAG@@XZ 00445ee0 f i ComplexTypeParser.obj
 0001:00044f00       ?GetXMLTAGMap@CAttributeParser@@UAEPBUXMLTAG@@XZ 00445f00 f i ComplexTypeParser.obj
 0001:00045150       ?GetXMLTAGMap@CContentParser@@UAEPBUXMLTAG@@XZ 00446150 f i ComplexTypeParser.obj
 0001:000454d0       ?GetXMLTAGMap@CElementParser@@UAEPBUXMLTAG@@XZ 004464d0 f i ComplexTypeParser.obj
 0001:00045ab0       ?GetXMLTAGMap@CParserBase@@UAEPBUXMLTAG@@XZ 00446ab0 f i ComplexTypeParser.obj
 0001:00045ad0       ?MarkUnsupported@CComplexTypeParser@@QAEXPB_WH@Z 00446ad0 f i ComplexTypeParser.obj
 0001:00045b90       ?NewNode@?$CAtlList@PAVCParserBase@@V?$CElementTraits@PAVCParserBase@@@ATL@@@ATL@@AAEPAVCNode@12@ABQAVCParserBase@@PAV312@1@Z 00446b90 f i ComplexTypeParser.obj
 0001:00045cd0       ?OnAbstract@CComplexTypeParser@@QAEJPB_WH0H0H0HPAUISAXAttributes@@@Z 00446cd0 f   ComplexTypeParser.obj
 0001:00045d70       ?OnAll@CComplexTypeParser@@QAEJPB_WH0H0HPAUISAXAttributes@@@Z 00446d70 f   ComplexTypeParser.obj
 0001:00045de0       ?OnAnnotation@CComplexTypeParser@@QAEJPB_WH0H0HPAUISAXAttributes@@@Z 00446de0 f   ComplexTypeParser.obj
 0001:00045e70       ?OnAny@CComplexTypeParser@@QAEJPB_WH0H0HPAUISAXAttributes@@@Z 00446e70 f   ComplexTypeParser.obj
 0001:00045f50       ?OnAnyAttribute@CComplexTypeParser@@QAEJPB_WH0H0HPAUISAXAttributes@@@Z 00446f50 f   ComplexTypeParser.obj
 0001:00045fe0       ?OnAttribute@CComplexTypeParser@@QAEJPB_WH0H0HPAUISAXAttributes@@@Z 00446fe0 f   ComplexTypeParser.obj
 0001:000461e0       ?OnAttributeGroup@CComplexTypeParser@@QAEJPB_WH0H0HPAUISAXAttributes@@@Z 004471e0 f   ComplexTypeParser.obj
 0001:00046270       ?OnBase@CComplexTypeParser@@QAEJPB_WH0H0H0HPAUISAXAttributes@@@Z 00447270 f   ComplexTypeParser.obj
 0001:00046300       ?OnBlock@CComplexTypeParser@@QAEJPB_WH0H0H0HPAUISAXAttributes@@@Z 00447300 f   ComplexTypeParser.obj
 0001:00046360       ?OnChoice@CComplexTypeParser@@QAEJPB_WH0H0HPAUISAXAttributes@@@Z 00447360 f   ComplexTypeParser.obj
 0001:00046440       ?OnComplexContent@CComplexTypeParser@@QAEJPB_WH0H0HPAUISAXAttributes@@@Z 00447440 f   ComplexTypeParser.obj
 0001:000466a0       ?OnContent@CComplexTypeParser@@QAEJPB_WH0H0H0HPAUISAXAttributes@@@Z 004476a0 f   ComplexTypeParser.obj
 0001:00046750       ?OnDerivedBy@CComplexTypeParser@@QAEJPB_WH0H0H0HPAUISAXAttributes@@@Z 00447750 f   ComplexTypeParser.obj
 0001:00046820       ?OnDuration@CComplexTypeParser@@QAEJPB_WH0H0HPAUISAXAttributes@@@Z 00447820 f   ComplexTypeParser.obj
 0001:000468b0       ?OnElement@CComplexTypeParser@@QAEJPB_WH0H0HPAUISAXAttributes@@@Z 004478b0 f   ComplexTypeParser.obj
 0001:00046ab0       ?OnEncoding@CComplexTypeParser@@QAEJPB_WH0H0HPAUISAXAttributes@@@Z 00447ab0 f   ComplexTypeParser.obj
 0001:00046b40       ?OnEnumeration@CComplexTypeParser@@QAEJPB_WH0H0HPAUISAXAttributes@@@Z 00447b40 f   ComplexTypeParser.obj
 0001:00046bd0       ?OnFinal@CComplexTypeParser@@QAEJPB_WH0H0H0HPAUISAXAttributes@@@Z 00447bd0 f   ComplexTypeParser.obj
 0001:00046c70       ?OnGroup@CComplexTypeParser@@QAEJPB_WH0H0HPAUISAXAttributes@@@Z 00447c70 f   ComplexTypeParser.obj
 0001:00046d00       ?OnID@CComplexTypeParser@@QAEJPB_WH0H0H0HPAUISAXAttributes@@@Z 00447d00 f   ComplexTypeParser.obj
 0001:00046d90       ?OnLength@CComplexTypeParser@@QAEJPB_WH0H0HPAUISAXAttributes@@@Z 00447d90 f   ComplexTypeParser.obj
 0001:00046e10       ?OnMaxExclusive@CComplexTypeParser@@QAEJPB_WH0H0HPAUISAXAttributes@@@Z 00447e10 f   ComplexTypeParser.obj
 0001:00046ea0       ?OnMaxInclusive@CComplexTypeParser@@QAEJPB_WH0H0HPAUISAXAttributes@@@Z 00447ea0 f   ComplexTypeParser.obj
 0001:00046f30       ?OnMaxLength@CComplexTypeParser@@QAEJPB_WH0H0HPAUISAXAttributes@@@Z 00447f30 f   ComplexTypeParser.obj
 0001:00046fc0       ?OnMinExclusive@CComplexTypeParser@@QAEJPB_WH0H0HPAUISAXAttributes@@@Z 00447fc0 f   ComplexTypeParser.obj
 0001:00047050       ?OnMinInclusive@CComplexTypeParser@@QAEJPB_WH0H0HPAUISAXAttributes@@@Z 00448050 f   ComplexTypeParser.obj
 0001:000470e0       ?OnMinLength@CComplexTypeParser@@QAEJPB_WH0H0HPAUISAXAttributes@@@Z 004480e0 f   ComplexTypeParser.obj
 0001:00047170       ?OnName@CComplexTypeParser@@QAEJPB_WH0H0H0HPAUISAXAttributes@@@Z 00448170 f   ComplexTypeParser.obj
 0001:00047220       ?OnPattern@CComplexTypeParser@@QAEJPB_WH0H0HPAUISAXAttributes@@@Z 00448220 f   ComplexTypeParser.obj
 0001:000472b0       ?OnPeriod@CComplexTypeParser@@QAEJPB_WH0H0HPAUISAXAttributes@@@Z 004482b0 f   ComplexTypeParser.obj
 0001:00047340       ?OnPrecision@CComplexTypeParser@@QAEJPB_WH0H0HPAUISAXAttributes@@@Z 00448340 f   ComplexTypeParser.obj
 0001:000473d0       ?OnScale@CComplexTypeParser@@QAEJPB_WH0H0HPAUISAXAttributes@@@Z 004483d0 f   ComplexTypeParser.obj
 0001:00047460       ?OnSequence@CComplexTypeParser@@QAEJPB_WH0H0HPAUISAXAttributes@@@Z 00448460 f   ComplexTypeParser.obj
 0001:000474d0       ?OnSimpleContent@CComplexTypeParser@@QAEJPB_WH0H0HPAUISAXAttributes@@@Z 004484d0 f   ComplexTypeParser.obj
 0001:00047560       ?SetBase@CComplexType@@QAEJPB_WH@Z 00448560 f i ComplexTypeParser.obj
 0001:000475a0       ?SetColumnNumber@CXMLElement@@QAEXH@Z 004485a0 f i ComplexTypeParser.obj
 0001:000475d0       ?SetContentType@CComplexType@@QAE?AW4CONTENT_TYPE@@PB_WH@Z 004485d0 f i ComplexTypeParser.obj
 0001:00047620       ?SetDerivedBy@CComplexType@@QAEJPB_WH@Z 00448620 f i ComplexTypeParser.obj
 0001:00047680       ?SetID@CComplexType@@QAEJPB_WH@Z 00448680 f i ComplexTypeParser.obj
 0001:000476d0       ?SetLineNumber@CXMLElement@@QAEXH@Z 004486d0 f i ComplexTypeParser.obj
 0001:00047700       ?SetLocatorInfo@@YAXPAVCXMLElement@@PAUISAXLocator@@@Z 00448700 f i ComplexTypeParser.obj
 0001:000477f0       ?SetName@CComplexType@@QAEJPB_WH@Z 004487f0 f i ComplexTypeParser.obj
 0001:00047840       ?SetParentDocument@CXMLElement@@QAEXPAVCXMLDocument@@@Z 00448840 f i ComplexTypeParser.obj
 0001:00047870       ?SetParentSchema@CXSDElement@@QAEXPAVCSchema@@@Z 00448870 f i ComplexTypeParser.obj
 0001:000478a0       ?SetXSDElementInfo@@YAXPAVCXSDElement@@0PAUISAXLocator@@@Z 004488a0 f i ComplexTypeParser.obj
 0001:000479c0       ?ValidateElement@CParserBase@@UAEJXZ 004489c0 f i ComplexTypeParser.obj
 0001:000479e0       ?startPrefixMapping@CComplexTypeParser@@UAGJPB_WH0H@Z 004489e0 f   ComplexTypeParser.obj
 0001:00047cc0       ??0?$CAtlList@PAVCAttribute@@V?$CElementTraits@PAVCAttribute@@@ATL@@@ATL@@QAE@I@Z 00448cc0 f i Content.obj
 0001:00047d60       ??0?$CAtlList@PAVCElement@@V?$CElementTraits@PAVCElement@@@ATL@@@ATL@@QAE@I@Z 00448d60 f i Content.obj
 0001:00047e00       ??0?$CAtlPtrList@PAVCAttribute@@V?$CElementTraits@PAVCAttribute@@@ATL@@@@QAE@XZ 00448e00 f i Content.obj
 0001:00047e40       ??0?$CAtlPtrList@PAVCElement@@V?$CElementTraits@PAVCElement@@@ATL@@@@QAE@XZ 00448e40 f i Content.obj
 0001:00047e80       ??0CComplexType@@QAE@XZ    00448e80 f i Content.obj
 0001:00047fa0       ??1CContent@@UAE@XZ        00448fa0 f   Content.obj
 0001:00048020       ?AddType@CContent@@QAEPAVCComplexType@@PAV2@@Z 00449020 f   Content.obj
 0001:00048120       ?GetType@CContent@@QAEPAVCComplexType@@XZ 00449120 f   Content.obj
 0001:00048140       ??0?$CAutoPtr@VCComplexTypeParser@@@ATL@@QAE@PAVCComplexTypeParser@@@Z 00449140 f i ContentParser.obj
 0001:00048170       ??0CComplexTypeParser@@QAE@PAUISAXXMLReader@@PAVCParserBase@@KPAVCComplexType@@@Z 00449170 f i ContentParser.obj
 0001:000481c0       ??1?$CAutoPtr@VCComplexTypeParser@@@ATL@@QAE@XZ 004491c0 f i ContentParser.obj
 0001:000481f0       ??1CComplexTypeParser@@UAE@XZ 004491f0 f i ContentParser.obj
 0001:00048220       ??B?$CAutoPtr@VCComplexTypeParser@@@ATL@@QBEPAVCComplexTypeParser@@XZ 00449220 f i ContentParser.obj
 0001:00048240       ??_ECComplexTypeParser@@UAEPAXI@Z 00449240 f i ContentParser.obj
 0001:00048240       ??_GCComplexTypeParser@@UAEPAXI@Z 00449240 f i ContentParser.obj
 0001:00048290       ?Detach@?$CAutoPtr@VCComplexTypeParser@@@ATL@@QAEPAVCComplexTypeParser@@XZ 00449290 f i ContentParser.obj
 0001:000482c0       ?Free@?$CAutoPtr@VCComplexTypeParser@@@ATL@@QAEXXZ 004492c0 f i ContentParser.obj
 0001:00048320       ?GetBooleanValue@@YAJPA_NPB_WH@Z 00449320 f i ContentParser.obj
 0001:000484c0       ?GetContent@CContentParser@@QAEPAVCContent@@XZ 004494c0 f i ContentParser.obj
 0001:000484e0       ?GetXMLATTRMap@CComplexTypeParser@@UAEPBUXMLTAG@@XZ 004494e0 f i ContentParser.obj
 0001:00048e50       ?GetXMLTAGMap@CComplexTypeParser@@UAEPBUXMLTAG@@XZ 00449e50 f i ContentParser.obj
 0001:0004ad70       ?OnAnnotation@CContentParser@@QAEJPB_WH0H0HPAUISAXAttributes@@@Z 0044bd70 f   ContentParser.obj
 0001:0004ade0       ?OnExtension@CContentParser@@QAEJPB_WH0H0HPAUISAXAttributes@@@Z 0044bde0 f   ContentParser.obj
 0001:0004aef0       ?OnID@CContentParser@@QAEJPB_WH0H0H0HPAUISAXAttributes@@@Z 0044bef0 f   ContentParser.obj
 0001:0004af90       ?OnMixed@CContentParser@@QAEJPB_WH0H0H0HPAUISAXAttributes@@@Z 0044bf90 f   ContentParser.obj
 0001:0004b050       ?OnRestriction@CContentParser@@QAEJPB_WH0H0HPAUISAXAttributes@@@Z 0044c050 f   ContentParser.obj
 0001:0004b260       ?SetID@CContent@@QAEJPB_WH@Z 0044c260 f i ContentParser.obj
 0001:0004b2a0       ?SetMixed@CContent@@QAEJPB_WH@Z 0044c2a0 f i ContentParser.obj
 0001:0004b590       ??$?2UParseError@CStencil@ATL@@@Wrapper@?$CSimpleArray@UParseError@CStencil@ATL@@V?$CSimpleArrayEqualHelper@UParseError@CStencil@ATL@@@3@@ATL@@SAPAXIPAUParseError@CStencil@2@@Z 0044c590 f i CppCodeGenerator.obj
 0001:0004b5b0       ??$?3UParseError@CStencil@ATL@@@Wrapper@?$CSimpleArray@UParseError@CStencil@ATL@@V?$CSimpleArrayEqualHelper@UParseError@CStencil@ATL@@@3@@ATL@@SAXPAXPAUParseError@CStencil@2@@Z 0044c5b0 f i CppCodeGenerator.obj
 0001:0004b5d0       ??$AtlAssertValidObject@V?$CAtlArray@UStencilToken@ATL@@V?$CElementTraits@UStencilToken@ATL@@@2@@ATL@@@ATL@@YAXPBV?$CAtlArray@UStencilToken@ATL@@V?$CElementTraits@UStencilToken@ATL@@@2@@0@@Z 0044c5d0 f i CppCodeGenerator.obj
 0001:0004b680       ??$QueryInterface@UIMultiLanguage2@@@?$CComPtrBase@UIMultiLanguage@@@ATL@@QBEJPAPAUIMultiLanguage2@@@Z 0044c680 f i CppCodeGenerator.obj
 0001:0004b700       ??$SafeStringCopy@$$BY0BAA@D@ATL@@YA_NAAY0BAA@DPBD@Z 0044c700 f i CppCodeGenerator.obj
 0001:0004b730       ??$SafeStringCopy@$$BY0EB@D@ATL@@YA_NAAY0EB@DPBD@Z 0044c730 f i CppCodeGenerator.obj
 0001:0004b760       ??$__vcrt_va_start_verify_argument_type@QBD@@YAXXZ 0044c760 f i CppCodeGenerator.obj
 0001:0004b780       ??0?$CAtlArray@UStencilToken@ATL@@V?$CElementTraits@UStencilToken@ATL@@@2@@ATL@@QAE@XZ 0044c780 f i CppCodeGenerator.obj
 0001:0004b7d0       ??0?$CComObjectRootEx@VCComSingleThreadModel@ATL@@@ATL@@QAE@XZ 0044c7d0 f i CppCodeGenerator.obj
 0001:0004b800       ??0?$CComObjectStackEx@VCParseErrorProvider@CStencil@ATL@@@ATL@@QAE@PAX@Z 0044c800 f i CppCodeGenerator.obj
 0001:0004b8c0       ??0?$CComPtr@UIMultiLanguage2@@@ATL@@QAE@XZ 0044c8c0 f i CppCodeGenerator.obj
 0001:0004b8f0       ??0?$CComPtr@UIMultiLanguage@@@ATL@@QAE@XZ 0044c8f0 f i CppCodeGenerator.obj
 0001:0004b920       ??0?$CComPtr@UITagReplacer@ATL@@@ATL@@QAE@PAUITagReplacer@1@@Z 0044c920 f i CppCodeGenerator.obj
 0001:0004b950       ??0?$CComPtr@UITagReplacer@ATL@@@ATL@@QAE@XZ 0044c950 f i CppCodeGenerator.obj
 0001:0004b980       ??0?$CComPtrBase@UIMultiLanguage2@@@ATL@@IAE@XZ 0044c980 f i CppCodeGenerator.obj
 0001:0004b9b0       ??0?$CComPtrBase@UIMultiLanguage@@@ATL@@IAE@XZ 0044c9b0 f i CppCodeGenerator.obj
 0001:0004b9e0       ??0?$CComPtrBase@UITagReplacer@ATL@@@ATL@@IAE@PAUITagReplacer@1@@Z 0044c9e0 f i CppCodeGenerator.obj
 0001:0004ba30       ??0?$CComPtrBase@UITagReplacer@ATL@@@ATL@@IAE@XZ 0044ca30 f i CppCodeGenerator.obj
 0001:0004ba60       ??0?$CFixedStringT@V?$CStringT@DV?$StrTraitATL@DV?$ChTraitsCRT@D@ATL@@@ATL@@@ATL@@$0BAA@@ATL@@QAE@XZ 0044ca60 f i CppCodeGenerator.obj
 0001:0004bac0       ??0?$CSimpleArray@UParseError@CStencil@ATL@@V?$CSimpleArrayEqualHelper@UParseError@CStencil@ATL@@@3@@ATL@@QAE@XZ 0044cac0 f i CppCodeGenerator.obj
 0001:0004bb00       ??0?$CStringT@DV?$StrTraitATL@DV?$ChTraitsCRT@D@ATL@@@ATL@@@ATL@@QAE@PAUIAtlStringMgr@1@@Z 0044cb00 f i CppCodeGenerator.obj
 0001:0004bb30       ??0?$CStringT@DV?$StrTraitATL@DV?$ChTraitsCRT@D@ATL@@@ATL@@@ATL@@QAE@PB_W@Z 0044cb30 f i CppCodeGenerator.obj
 0001:0004bbd0       ??0?$CStringT@_WV?$StrTraitATL@_WV?$ChTraitsCRT@_W@ATL@@@ATL@@@ATL@@QAE@PBDH@Z 0044cbd0 f i CppCodeGenerator.obj
 0001:0004bd40       ??0?$CStringT@_WV?$StrTraitATL@_WV?$ChTraitsCRT@_W@ATL@@@ATL@@@ATL@@QAE@PBDPAUIAtlStringMgr@1@@Z 0044cd40 f i CppCodeGenerator.obj
 0001:0004bde0       ??0?$ITagReplacerImpl@VCParseErrorProvider@CStencil@ATL@@@ATL@@QAE@XZ 0044cde0 f i CppCodeGenerator.obj
 0001:0004be20       ??0CComBSTR@ATL@@QAE@PB_W@Z 0044ce20 f i CppCodeGenerator.obj
 0001:0004be90       ??0CComObjectRootBase@ATL@@QAE@XZ 0044ce90 f i CppCodeGenerator.obj
 0001:0004bec0       ??0CFixedStringMgr@ATL@@QAE@PAUCStringData@1@HPAUIAtlStringMgr@1@@Z 0044cec0 f i CppCodeGenerator.obj
 0001:0004bf60       ??0CParseErrorProvider@CStencil@ATL@@QAE@XZ 0044cf60 f i CppCodeGenerator.obj
 0001:0004bfc0       ??0CSaveThreadLocale@CStencil@ATL@@QAE@XZ 0044cfc0 f i CppCodeGenerator.obj
 0001:0004bff0       ??0CStencil@ATL@@QAE@PAUIAtlMemMgr@1@@Z 0044cff0 f i CppCodeGenerator.obj
 0001:0004c130       ??0CWriteStreamHelper@ATL@@QAE@PAUIWriteStream@1@@Z 0044d130 f i CppCodeGenerator.obj
 0001:0004c170       ??0CWriteStreamOnFileA@@QAE@XZ 0044d170 f i CppCodeGenerator.obj
 0001:0004c1b0       ??0CWriteStreamOnStdout@@QAE@XZ 0044d1b0 f i CppCodeGenerator.obj
 0001:0004c1e0       ??0Wrapper@?$CSimpleArray@UParseError@CStencil@ATL@@V?$CSimpleArrayEqualHelper@UParseError@CStencil@ATL@@@3@@ATL@@QAE@ABUParseError@CStencil@2@@Z 0044d1e0 f i CppCodeGenerator.obj
 0001:0004c210       ??1?$CAtlArray@UStencilToken@ATL@@V?$CElementTraits@UStencilToken@ATL@@@2@@ATL@@QAE@XZ 0044d210 f i CppCodeGenerator.obj
 0001:0004c260       ??1?$CComObjectRootEx@VCComSingleThreadModel@ATL@@@ATL@@QAE@XZ 0044d260 f i CppCodeGenerator.obj
 0001:0004c290       ??1?$CComObjectStackEx@VCParseErrorProvider@CStencil@ATL@@@ATL@@UAE@XZ 0044d290 f i CppCodeGenerator.obj
 0001:0004c340       ??1?$CComPtr@UIMultiLanguage2@@@ATL@@QAE@XZ 0044d340 f i CppCodeGenerator.obj
 0001:0004c370       ??1?$CComPtr@UIMultiLanguage@@@ATL@@QAE@XZ 0044d370 f i CppCodeGenerator.obj
 0001:0004c3a0       ??1?$CComPtr@UITagReplacer@ATL@@@ATL@@QAE@XZ 0044d3a0 f i CppCodeGenerator.obj
 0001:0004c3d0       ??1?$CComPtrBase@UIMultiLanguage2@@@ATL@@QAE@XZ 0044d3d0 f i CppCodeGenerator.obj
 0001:0004c410       ??1?$CComPtrBase@UIMultiLanguage@@@ATL@@QAE@XZ 0044d410 f i CppCodeGenerator.obj
 0001:0004c450       ??1?$CComPtrBase@UITagReplacer@ATL@@@ATL@@QAE@XZ 0044d450 f i CppCodeGenerator.obj
 0001:0004c490       ??1?$CFixedStringT@V?$CStringT@DV?$StrTraitATL@DV?$ChTraitsCRT@D@ATL@@@ATL@@@ATL@@$0BAA@@ATL@@UAE@XZ 0044d490 f i CppCodeGenerator.obj
 0001:0004c4e0       ??1?$CSimpleArray@UParseError@CStencil@ATL@@V?$CSimpleArrayEqualHelper@UParseError@CStencil@ATL@@@3@@ATL@@QAE@XZ 0044d4e0 f i CppCodeGenerator.obj
 0001:0004c540       ??1CComObjectRootBase@ATL@@QAE@XZ 0044d540 f i CppCodeGenerator.obj
 0001:0004c560       ??1CFixedStringMgr@ATL@@UAE@XZ 0044d560 f i CppCodeGenerator.obj
 0001:0004c590       ??1CParseErrorProvider@CStencil@ATL@@QAE@XZ 0044d590 f i CppCodeGenerator.obj
 0001:0004c5c0       ??1CSaveThreadLocale@CStencil@ATL@@QAE@XZ 0044d5c0 f i CppCodeGenerator.obj
 0001:0004c5f0       ??1CStencil@ATL@@UAE@XZ    0044d5f0 f i CppCodeGenerator.obj
 0001:0004c640       ??1CWriteStreamOnFileA@@QAE@XZ 0044d640 f i CppCodeGenerator.obj
 0001:0004c680       ??4?$CStringT@_WV?$StrTraitATL@_WV?$ChTraitsCRT@_W@ATL@@@ATL@@@ATL@@QAEAAV01@PBD@Z 0044d680 f i CppCodeGenerator.obj
 0001:0004c720       ??6CWriteStreamHelper@ATL@@QAEAAV01@H@Z 0044d720 f i CppCodeGenerator.obj
 0001:0004c760       ??7CComBSTR@ATL@@QBE_NXZ   0044d760 f i CppCodeGenerator.obj
 0001:0004c7a0       ??8ATL@@YA_NABV?$CStringT@_WV?$StrTraitATL@_WV?$ChTraitsCRT@_W@ATL@@@ATL@@@0@PBD@Z 0044d7a0 f i CppCodeGenerator.obj
 0001:0004c800       ??9ATL@@YA_NABV?$CStringT@DV?$StrTraitATL@DV?$ChTraitsCRT@D@ATL@@@ATL@@@0@0@Z 0044d800 f i CppCodeGenerator.obj
 0001:0004c850       ??A?$CAtlArray@UStencilToken@ATL@@V?$CElementTraits@UStencilToken@ATL@@@2@@ATL@@QAEAAUStencilToken@1@I@Z 0044d850 f i CppCodeGenerator.obj
 0001:0004c8d0       ??A?$CAtlArray@UStencilToken@ATL@@V?$CElementTraits@UStencilToken@ATL@@@2@@ATL@@QBEABUStencilToken@1@I@Z 0044d8d0 f i CppCodeGenerator.obj
 0001:0004c950       ??A?$CSimpleArray@UParseError@CStencil@ATL@@V?$CSimpleArrayEqualHelper@UParseError@CStencil@ATL@@@3@@ATL@@QAEAAUParseError@CStencil@1@H@Z 0044d950 f i CppCodeGenerator.obj
 0001:0004c9f0       ??B?$CTraceCategoryEx@$0BAAAA@$0A@@ATL@@QAEIXZ 0044d9f0 f i CppCodeGenerator.obj
 0001:0004ca10       ??BCComBSTR@ATL@@QBEPA_WXZ 0044da10 f i CppCodeGenerator.obj
 0001:0004ca30       ??C?$CComPtrBase@UIMultiLanguage2@@@ATL@@QBEPAV?$_NoAddRefReleaseOnCComPtr@UIMultiLanguage2@@@1@XZ 0044da30 f i CppCodeGenerator.obj
 0001:0004ca90       ??C?$CComPtrBase@UIMultiLanguage@@@ATL@@QBEPAV?$_NoAddRefReleaseOnCComPtr@UIMultiLanguage@@@1@XZ 0044da90 f i CppCodeGenerator.obj
 0001:0004caf0       ??C?$CComPtrBase@UITagReplacer@ATL@@@ATL@@QBEPAV?$_NoAddRefReleaseOnCComPtr@UITagReplacer@ATL@@@1@XZ 0044daf0 f i CppCodeGenerator.obj
 0001:0004cb50       ??I?$CComPtrBase@UIMultiLanguage2@@@ATL@@QAEPAPAUIMultiLanguage2@@XZ 0044db50 f i CppCodeGenerator.obj
 0001:0004cbb0       ??I?$CComPtrBase@UITagReplacer@ATL@@@ATL@@QAEPAPAUITagReplacer@1@XZ 0044dbb0 f i CppCodeGenerator.obj
 0001:0004cc10       ??_E?$CComObjectStackEx@VCParseErrorProvider@CStencil@ATL@@@ATL@@UAEPAXI@Z 0044dc10 f i CppCodeGenerator.obj
 0001:0004cc10       ??_G?$CComObjectStackEx@VCParseErrorProvider@CStencil@ATL@@@ATL@@UAEPAXI@Z 0044dc10 f i CppCodeGenerator.obj
 0001:0004cc60       ??_E?$CFixedStringT@V?$CStringT@DV?$StrTraitATL@DV?$ChTraitsCRT@D@ATL@@@ATL@@@ATL@@$0BAA@@ATL@@UAEPAXI@Z 0044dc60 f i CppCodeGenerator.obj
 0001:0004cc60       ??_G?$CFixedStringT@V?$CStringT@DV?$StrTraitATL@DV?$ChTraitsCRT@D@ATL@@@ATL@@@ATL@@$0BAA@@ATL@@UAEPAXI@Z 0044dc60 f i CppCodeGenerator.obj
 0001:0004ccb0       ??_ECFixedStringMgr@ATL@@UAEPAXI@Z 0044dcb0 f i CppCodeGenerator.obj
 0001:0004ccb0       ??_GCFixedStringMgr@ATL@@UAEPAXI@Z 0044dcb0 f i CppCodeGenerator.obj
 0001:0004cd00       ??_ECStencil@ATL@@UAEPAXI@Z 0044dd00 f i CppCodeGenerator.obj
 0001:0004cd00       ??_GCStencil@ATL@@UAEPAXI@Z 0044dd00 f i CppCodeGenerator.obj
 0001:0004cd50       ?Add@?$CAtlArray@UStencilToken@ATL@@V?$CElementTraits@UStencilToken@ATL@@@2@@ATL@@QAEIABUStencilToken@2@@Z 0044dd50 f i CppCodeGenerator.obj
 0001:0004ce20       ?Add@?$CSimpleArray@UParseError@CStencil@ATL@@V?$CSimpleArrayEqualHelper@UParseError@CStencil@ATL@@@3@@ATL@@QAEHABUParseError@CStencil@2@@Z 0044de20 f i CppCodeGenerator.obj
 0001:0004cfa0       ?AddError@CStencil@ATL@@QAE_NIPBD@Z 0044dfa0 f i CppCodeGenerator.obj
 0001:0004d100       ?AddErrorInternal@CStencil@ATL@@QAE_NPBD0@Z 0044e100 f i CppCodeGenerator.obj
 0001:0004d290       ?AddRef@?$CComObjectStackEx@VCParseErrorProvider@CStencil@ATL@@@ATL@@UAGKXZ 0044e290 f i CppCodeGenerator.obj
 0001:0004d2c0       ?AddRef@CStencil@ATL@@UAGKXZ 0044e2c0 f i CppCodeGenerator.obj
 0001:0004d2e0       ?AddReplacementError@CStencil@ATL@@QAE_NPBD0@Z 0044e2e0 f i CppCodeGenerator.obj
 0001:0004d4d0       ?AddToken@CStencil@ATL@@QAEKPBD0K00KKKKH@Z 0044e4d0 f i CppCodeGenerator.obj
 0001:0004d6e0       ?Allocate@CFixedStringMgr@ATL@@UAEPAUCStringData@2@HH@Z 0044e6e0 f i CppCodeGenerator.obj
 0001:0004d8a0       ?AssertValid@?$CAtlArray@UStencilToken@ATL@@V?$CElementTraits@UStencilToken@ATL@@@2@@ATL@@QBEXXZ 0044e8a0 f i CppCodeGenerator.obj
 0001:0004d9e0       ?AtlHresultFromLastError@ATL@@YAJXZ 0044e9e0 f i CppCodeGenerator.obj
 0001:0004da10       ?AtlInternalQueryInterface@ATL@@YGJPAXPBU_ATL_INTMAP_ENTRY@1@ABU_GUID@@PAPAX@Z 0044ea10 f i CppCodeGenerator.obj
 0001:0004dca0       ?AtlSoapHashStr@CCppCodeGenerator@@QAEKPB_W@Z 0044eca0 f i CppCodeGenerator.obj
 0001:0004dd00       ?AtlsHttpError@ATL@@YAKGG@Z 0044ed00 f i CppCodeGenerator.obj
 0001:0004dd40       ?Attach@CWriteStreamHelper@ATL@@QAEPAUIWriteStream@2@PAU32@@Z 0044ed40 f i CppCodeGenerator.obj
 0001:0004dd80       ?CallConstructors@?$CAtlArray@UStencilToken@ATL@@V?$CElementTraits@UStencilToken@ATL@@@2@@ATL@@CAXPAUStencilToken@2@I@Z 0044ed80 f i CppCodeGenerator.obj
 0001:0004de70       ?CallDestructors@?$CAtlArray@UStencilToken@ATL@@V?$CElementTraits@UStencilToken@ATL@@@2@@ATL@@CAXPAUStencilToken@2@I@Z 0044ee70 f i CppCodeGenerator.obj
 0001:0004deb0       ?CheckRepl@?$CTagReplacerMethodsEx@VCParseErrorProvider@CStencil@ATL@@X@ATL@@SAP8CParseErrorProvider@CStencil@2@AEKPAX@ZP8342@AEKXZ@Z 0044eeb0 f i CppCodeGenerator.obj
 0001:0004ded0       ?CheckTag@CStencil@ATL@@IAEHPBDK0K@Z 0044eed0 f i CppCodeGenerator.obj
 0001:0004df60       ?CheckTopAndPop@CStencil@ATL@@IAEKPAK0K@Z 0044ef60 f i CppCodeGenerator.obj
 0001:0004dfe0       ?Clone@CFixedStringMgr@ATL@@UAEPAUIAtlStringMgr@2@XZ 0044efe0 f i CppCodeGenerator.obj
 0001:0004e000       ?CoCreateInstance@?$CComPtrBase@UIMultiLanguage@@@ATL@@QAEJABU_GUID@@PAUIUnknown@@K@Z 0044f000 f i CppCodeGenerator.obj
 0001:0004e080       ?ConvertToBaseType@?$ChTraitsCRT@_W@ATL@@SAXPA_WHPBDH@Z 0044f080 f i CppCodeGenerator.obj
 0001:0004e0c0       ?Decrement@CComSingleThreadModel@ATL@@SGKPAJ@Z 0044f0c0 f i CppCodeGenerator.obj
 0001:0004e0f0       ?FinalConstruct@CComObjectRootBase@ATL@@QAEJXZ 0044f0f0 f i CppCodeGenerator.obj
 0001:0004e110       ?FinalRelease@CComObjectRootBase@ATL@@QAEXXZ 0044f110 f i CppCodeGenerator.obj
 0001:0004e130       ?FindReplacementOffset@?$ITagReplacerImpl@VCParseErrorProvider@CStencil@ATL@@@ATL@@UAEKPBDPAK011PAPAXPAUIAtlMemMgr@2@@Z 0044f130 f i CppCodeGenerator.obj
 0001:0004e930       ?FindReplacementOffsetInMap@?$ITagReplacerImpl@VCParseErrorProvider@CStencil@ATL@@@ATL@@QAEKPBDPAKPBU?$CTagReplacerMethodEntry@VCParseErrorProvider@CStencil@ATL@@@2@@Z 0044f930 f i CppCodeGenerator.obj
 0001:0004ea20       ?FindTagArgs@CStencil@ATL@@IAEXAAPBD0H@Z 0044fa20 f i CppCodeGenerator.obj
 0001:0004eb60       ?FinishParseReplacements@CStencil@ATL@@UAE_NXZ 0044fb60 f i CppCodeGenerator.obj
 0001:0004ede0       ?FlushStream@CWriteStreamOnFileA@@UAEJXZ 0044fde0 f i CppCodeGenerator.obj
 0001:0004ee60       ?FlushStream@CWriteStreamOnStdout@@UAEJXZ 0044fe60 f i CppCodeGenerator.obj
 0001:0004ee80       ?Format@?$CStringT@DV?$StrTraitATL@DV?$ChTraitsCRT@D@ATL@@@ATL@@@ATL@@QAAXPBDZZ 0044fe80 f i CppCodeGenerator.obj
 0001:0004ef10       ?Format@?$ChTraitsCRT@D@ATL@@SAHPADIPBD0@Z 0044ff10 f i CppCodeGenerator.obj
 0001:0004ef50       ?FormatV@?$CStringT@DV?$StrTraitATL@DV?$ChTraitsCRT@D@ATL@@@ATL@@@ATL@@QAEXPBDPAD@Z 0044ff50 f i CppCodeGenerator.obj
 0001:0004f040       ?Free@CFixedStringMgr@ATL@@UAEXPAUCStringData@2@@Z 00450040 f i CppCodeGenerator.obj
 0001:0004f110       ?Free@CStencil@ATL@@UAGJPBX@Z 00450110 f i CppCodeGenerator.obj
 0001:0004f1b0       ?Generate@CCppCodeGenerator@@QAEJPB_WPAVCCodeProxy@@_N222PBD@Z 004501b0 f   CppCodeGenerator.obj
 0001:0004f610       ?GetAddressUri@CCodeProxy@@QAEABV?$CStringT@DV?$StrTraitATL@DV?$ChTraitsCRT@D@ATL@@@ATL@@@ATL@@XZ 00450610 f i CppCodeGenerator.obj
 0001:0004f630       ?GetAtlSoapType@CCppCodeGenerator@@QAEKPAVCCodeTypedElement@@@Z 00450630 f i CppCodeGenerator.obj
 0001:0004f720       ?GetAttrReplacementMethodMap@?$ITagReplacerImpl@VCParseErrorProvider@CStencil@ATL@@@ATL@@QBEXPAPBU?$CTagReplacerMethodEntry@VCParseErrorProvider@CStencil@ATL@@@2@@Z 00450720 f i CppCodeGenerator.obj
 0001:0004f750       ?GetBaseTypeLength@?$ChTraitsCRT@_W@ATL@@SAHPBD@Z 00450750 f i CppCodeGenerator.obj
 0001:0004f790       ?GetBaseTypeLength@?$ChTraitsCRT@_W@ATL@@SAHPBDH@Z 00450790 f i CppCodeGenerator.obj
 0001:0004f7d0       ?GetBufferEnd@CStencil@ATL@@QBEPBDXZ 004507d0 f i CppCodeGenerator.obj
 0001:0004f7f0       ?GetBufferStart@CStencil@ATL@@QBEPBDXZ 004507f0 f i CppCodeGenerator.obj
 0001:0004f810       ?GetContext@?$ITagReplacerImpl@VCParseErrorProvider@CStencil@ATL@@@ATL@@UAEJABU_GUID@@PAPAX@Z 00450810 f i CppCodeGenerator.obj
 0001:0004f830       ?GetCount@?$CAtlArray@UStencilToken@ATL@@V?$CElementTraits@UStencilToken@ATL@@@2@@ATL@@QBEIXZ 00450830 f i CppCodeGenerator.obj
 0001:0004f850       ?GetCount@?$CAtlList@PAVCCodeTypedElement@@V?$CElementTraits@PAVCCodeTypedElement@@@ATL@@@ATL@@QBEIXZ 00450850 f i CppCodeGenerator.obj
 0001:0004f870       ?GetCppType@CCppCodeGenerator@@QAEKPAVCCodeTypedElement@@@Z 00450870 f i CppCodeGenerator.obj
 0001:0004f990       ?GetCurrentEnum@CCppCodeGenerator@@QAEPAVCCodeElementContainer@@XZ 00450990 f i CppCodeGenerator.obj
 0001:0004fa10       ?GetCurrentEnumElement@CCppCodeGenerator@@QAEPAVCCodeTypedElement@@XZ 00450a10 f i CppCodeGenerator.obj
 0001:0004fa90       ?GetCurrentFunction@CCppCodeGenerator@@QAEPAVCCodeElementContainer@@XZ 00450a90 f i CppCodeGenerator.obj
 0001:0004fb10       ?GetCurrentHeader@CCppCodeGenerator@@QAEPAVCCodeTypedElement@@XZ 00450b10 f i CppCodeGenerator.obj
 0001:0004fb90       ?GetCurrentMember@CCppCodeGenerator@@QAEPAVCCodeTypedElement@@XZ 00450b90 f i CppCodeGenerator.obj
 0001:0004fc10       ?GetCurrentParameter@CCppCodeGenerator@@QAEPAVCCodeTypedElement@@XZ 00450c10 f i CppCodeGenerator.obj
 0001:0004fc90       ?GetCurrentStruct@CCppCodeGenerator@@QAEPAVCCodeElementContainer@@XZ 00450c90 f i CppCodeGenerator.obj
 0001:0004fd10       ?GetCurrentStructField@CCppCodeGenerator@@QAEPAVCCodeTypedElement@@XZ 00450d10 f i CppCodeGenerator.obj
 0001:0004fd90       ?GetDimension@CCodeTypedElement@@QAEHH@Z 00450d90 f i CppCodeGenerator.obj
 0001:0004fdc0       ?GetDims@CCodeTypedElement@@QAEHXZ 00450dc0 f i CppCodeGenerator.obj
 0001:0004fdf0       ?GetDimsDecl@CCppCodeGenerator@@QAEKPAVCCodeTypedElement@@@Z 00450df0 f i CppCodeGenerator.obj
 0001:0004fef0       ?GetElementCount@CCodeElementContainer@@QAEHXZ 00450ef0 f i CppCodeGenerator.obj
 0001:0004ff20       ?GetFirstEnum@CCodeProxy@@QAEPAU__POSITION@@XZ 00450f20 f i CppCodeGenerator.obj
 0001:0004ff50       ?GetFirstFunction@CCodeProxy@@QAEPAU__POSITION@@XZ 00450f50 f i CppCodeGenerator.obj
 0001:0004ff80       ?GetFirstHeader@CCodeProxy@@QAEPAU__POSITION@@XZ 00450f80 f i CppCodeGenerator.obj
 0001:0004ffb0       ?GetFirstStruct@CCodeProxy@@QAEPAU__POSITION@@XZ 00450fb0 f i CppCodeGenerator.obj
 0001:0004ffe0       ?GetFormattedLength@?$ChTraitsCRT@D@ATL@@SAHPBDPAD@Z 00450fe0 f i CppCodeGenerator.obj
 0001:00050010       ?GetHandlerAndMethodNames@CStencil@ATL@@QAEKPBD0PADI1I@Z 00451010 f i CppCodeGenerator.obj
 0001:00050430       ?GetHandlerOffset@?$ITagReplacerImpl@VCParseErrorProvider@CStencil@ATL@@@ATL@@QAEKPBDPAK@Z 00451430 f i CppCodeGenerator.obj
 0001:00050470       ?GetHashW@CCppCodeGenerator@@QAEKPBD@Z 00451470 f i CppCodeGenerator.obj
 0001:00050550       ?GetHashW@CCppCodeGenerator@@QAEKPB_W@Z 00451550 f i CppCodeGenerator.obj
 0001:00050590       ?GetManager@?$CSimpleStringT@_W$0A@@ATL@@QBEPAUIAtlStringMgr@2@XZ 00451590 f i CppCodeGenerator.obj
 0001:000505f0       ?GetManager@?$CStringT@_WV?$StrTraitATL@_WV?$ChTraitsCRT@_W@ATL@@@ATL@@@ATL@@QBEPAUIAtlStringMgr@2@XZ 004515f0 f i CppCodeGenerator.obj
 0001:00050640       ?GetNextEnum@CCodeProxy@@QAEPAVCCodeElementContainer@@AAPAU__POSITION@@@Z 00451640 f i CppCodeGenerator.obj
 0001:00050670       ?GetNextFunction@CCodeProxy@@QAEPAVCCodeElementContainer@@AAPAU__POSITION@@@Z 00451670 f i CppCodeGenerator.obj
 0001:000506a0       ?GetNextHeader@CCodeProxy@@QAEPAVCCodeTypedElement@@AAPAU__POSITION@@@Z 004516a0 f i CppCodeGenerator.obj
 0001:000506d0       ?GetNextStruct@CCodeProxy@@QAEPAVCCodeElementContainer@@AAPAU__POSITION@@@Z 004516d0 f i CppCodeGenerator.obj
 0001:00050700       ?GetNilString@CFixedStringMgr@ATL@@UAEPAUCStringData@2@XZ 00451700 f i CppCodeGenerator.obj
 0001:000507b0       ?GetReplacementMethodMap@CParseErrorProvider@CStencil@ATL@@QBEXPAPBU?$CTagReplacerMethodEntry@VCParseErrorProvider@CStencil@ATL@@@3@@Z 004517b0 f i CppCodeGenerator.obj
 0001:00050a50       ?GetReplacementObject@?$ITagReplacerImpl@VCParseErrorProvider@CStencil@ATL@@@ATL@@QAEKKPAPAUITagReplacer@2@@Z 00451a50 f i CppCodeGenerator.obj
 0001:00050a90       ?GetResourceInstance@?$ITagReplacerImpl@VCParseErrorProvider@CStencil@ATL@@@ATL@@UAEPAUHINSTANCE__@@XZ 00451a90 f i CppCodeGenerator.obj
 0001:00050ac0       ?GetResourceInstance@CAtlBaseModule@ATL@@QAEPAUHINSTANCE__@@XZ 00451ac0 f i CppCodeGenerator.obj
 0001:00050ae0       ?GetResponseName@CCodeElementContainer@@QAEABV?$CStringT@DV?$StrTraitATL@DV?$ChTraitsCRT@D@ATL@@@ATL@@@ATL@@XZ 00451ae0 f i CppCodeGenerator.obj
 0001:00050b00       ?GetSafeCppType@CCppCodeGenerator@@QAEKPAVCCodeTypedElement@@@Z 00451b00 f i CppCodeGenerator.obj
 0001:00050c20       ?GetSendName@CCodeElementContainer@@QAEABV?$CStringT@DV?$StrTraitATL@DV?$ChTraitsCRT@D@ATL@@@ATL@@@ATL@@XZ 00451c20 f i CppCodeGenerator.obj
 0001:00050c40       ?GetServiceName@CCodeProxy@@QAEABV?$CStringT@DV?$StrTraitATL@DV?$ChTraitsCRT@D@ATL@@@ATL@@@ATL@@XZ 00451c40 f i CppCodeGenerator.obj
 0001:00050c60       ?GetSize@?$CSimpleArray@UParseError@CStencil@ATL@@V?$CSimpleArrayEqualHelper@UParseError@CStencil@ATL@@@3@@ATL@@QBEHXZ 00451c60 f i CppCodeGenerator.obj
 0001:00050c80       ?GetSizeIs@CCodeTypedElement@@QAEAAV?$CStringT@DV?$StrTraitATL@DV?$ChTraitsCRT@D@ATL@@@ATL@@@ATL@@XZ 00451c80 f i CppCodeGenerator.obj
 0001:00050ca0       ?GetSoapAction@CCodeElementContainer@@QAEABV?$CStringT@DV?$StrTraitATL@DV?$ChTraitsCRT@D@ATL@@@ATL@@@ATL@@XZ 00451ca0 f i CppCodeGenerator.obj
 0001:00050cc0       ?GetTargetNamespace@CCodeProxy@@QAEABV?$CStringT@DV?$StrTraitATL@DV?$ChTraitsCRT@D@ATL@@@ATL@@@ATL@@XZ 00451cc0 f i CppCodeGenerator.obj
 0001:00050ce0       ?GetToken@CStencil@ATL@@QBEPBUStencilToken@2@K@Z 00451ce0 f i CppCodeGenerator.obj
 0001:00050d10       ?GetTokenCount@CStencil@ATL@@QBEKXZ 00451d10 f i CppCodeGenerator.obj
 0001:00050d40       ?GetTypeSuffix@CCppCodeGenerator@@QAEKPAVCCodeTypedElement@@@Z 00451d40 f i CppCodeGenerator.obj
 0001:00050e40       ?GetXSDType@CCodeType@@QAE?AW4XSDTYPE@@XZ 00451e40 f i CppCodeGenerator.obj
 0001:00050e60       ?GrowBuffer@?$CAtlArray@UStencilToken@ATL@@V?$CElementTraits@UStencilToken@ATL@@@2@@ATL@@AAE_NI@Z 00451e60 f i CppCodeGenerator.obj
 0001:00051020       ?Increment@CComSingleThreadModel@ATL@@SGKPAJ@Z 00452020 f i CppCodeGenerator.obj
 0001:00051050       ?Init@CWriteStreamOnFileA@@QAEJPB_WK@Z 00452050 f i CppCodeGenerator.obj
 0001:000510d0       ?Initialize@CParseErrorProvider@CStencil@ATL@@QAEXPAV?$CSimpleArray@UParseError@CStencil@ATL@@V?$CSimpleArrayEqualHelper@UParseError@CStencil@ATL@@@3@@3@@Z 004520d0 f i CppCodeGenerator.obj
 0001:00051100       ?InlineIsEqualUnknown@ATL@@YGHABU_GUID@@@Z 00452100 f i CppCodeGenerator.obj
 0001:00051190       ?InternalAddRef@?$CComObjectRootEx@VCComSingleThreadModel@ATL@@@ATL@@QAEKXZ 00452190 f i CppCodeGenerator.obj
 0001:00051200       ?InternalQueryInterface@CComObjectRootBase@ATL@@SGJPAXPBU_ATL_INTMAP_ENTRY@2@ABU_GUID@@PAPAX@Z 00452200 f i CppCodeGenerator.obj
 0001:000512f0       ?InternalRelease@?$CComObjectRootEx@VCComSingleThreadModel@ATL@@@ATL@@QAEKXZ 004522f0 f i CppCodeGenerator.obj
 0001:00051360       ?InternalSetAtIndex@?$CSimpleArray@UParseError@CStencil@ATL@@V?$CSimpleArrayEqualHelper@UParseError@CStencil@ATL@@@3@@ATL@@QAEXHABUParseError@CStencil@2@@Z 00452360 f i CppCodeGenerator.obj
 0001:00051420       ?IsAsyncContinueStatus@ATL@@YA_NK@Z 00452420 f i CppCodeGenerator.obj
 0001:00051470       ?IsAsyncStatus@ATL@@YA_NK@Z 00452470 f i CppCodeGenerator.obj
 0001:000514d0       ?IsFixedArray@CCppCodeGenerator@@QAEKPAVCCodeTypedElement@@@Z 004524d0 f i CppCodeGenerator.obj
 0001:00051510       ?IsUDT@CCppCodeGenerator@@QAEKPAVCCodeTypedElement@@@Z 00452510 f i CppCodeGenerator.obj
 0001:000515d0       ?IsValidIndex@CStencil@ATL@@QBEHK@Z 004525d0 f i CppCodeGenerator.obj
 0001:00051620       ?LoadFromResource@CStencil@ATL@@QAEKPAUHINSTANCE__@@IPBD@Z 00452620 f i CppCodeGenerator.obj
 0001:00051660       ?LoadFromResource@CStencil@ATL@@QAEKPAUHINSTANCE__@@PBD1@Z 00452660 f i CppCodeGenerator.obj
 0001:000516d0       ?LoadFromResourceInternal@CStencil@ATL@@AAEKPAUHINSTANCE__@@PAUHRSRC__@@@Z 004526d0 f i CppCodeGenerator.obj
 0001:000517b0       ?LoadFromString@CStencil@ATL@@QAEKPBDK@Z 004527b0 f i CppCodeGenerator.obj
 0001:000517f0       ?OnClassHasHeaders@CCppCodeGenerator@@QAEKXZ 004527f0 f   CppCodeGenerator.obj
 0001:00051830       ?OnEmitNamespace@CCppCodeGenerator@@QAEKXZ 00452830 f   CppCodeGenerator.obj
 0001:00051860       ?OnEmitPragma@CCppCodeGenerator@@QAEKXZ 00452860 f   CppCodeGenerator.obj
 0001:00051890       ?OnEnumHasUniqueNamespace@CCppCodeGenerator@@QAEKXZ 00452890 f   CppCodeGenerator.obj
 0001:000518f0       ?OnFieldHasSizeIs@CCppCodeGenerator@@QAEKXZ 004528f0 f   CppCodeGenerator.obj
 0001:00051940       ?OnGenProxy@CCppCodeGenerator@@QAEKXZ 00452940 f   CppCodeGenerator.obj
 0001:00051970       ?OnGetClassName@CCppCodeGenerator@@QAEKXZ 00452970 f   CppCodeGenerator.obj
 0001:000519a0       ?OnGetClassSafeQName@CCppCodeGenerator@@QAEKXZ 004529a0 f   CppCodeGenerator.obj
 0001:000519d0       ?OnGetCppNamespace@CCppCodeGenerator@@QAEKXZ 004529d0 f   CppCodeGenerator.obj
 0001:00051af0       ?OnGetCurrentFieldIndex@CCppCodeGenerator@@QAEKXZ 00452af0 f   CppCodeGenerator.obj
 0001:00051bb0       ?OnGetCurrentParameterIndex@CCppCodeGenerator@@QAEKXZ 00452bb0 f   CppCodeGenerator.obj
 0001:00051c10       ?OnGetDateTime@CCppCodeGenerator@@QAEKXZ 00452c10 f   CppCodeGenerator.obj
 0001:00051d60       ?OnGetEnumCppName@CCppCodeGenerator@@QAEKXZ 00452d60 f   CppCodeGenerator.obj
 0001:00051da0       ?OnGetEnumCppQName@CCppCodeGenerator@@QAEKXZ 00452da0 f   CppCodeGenerator.obj
 0001:00051de0       ?OnGetEnumElementCppName@CCppCodeGenerator@@QAEKXZ 00452de0 f   CppCodeGenerator.obj
 0001:00051e20       ?OnGetEnumElementHashW@CCppCodeGenerator@@QAEKXZ 00452e20 f   CppCodeGenerator.obj
 0001:00051e70       ?OnGetEnumElementName@CCppCodeGenerator@@QAEKXZ 00452e70 f   CppCodeGenerator.obj
 0001:00051eb0       ?OnGetEnumElementValue@CCppCodeGenerator@@QAEKXZ 00452eb0 f   CppCodeGenerator.obj
 0001:00051f00       ?OnGetEnumName@CCppCodeGenerator@@QAEKXZ 00452f00 f   CppCodeGenerator.obj
 0001:00051f40       ?OnGetEnumNameHashW@CCppCodeGenerator@@QAEKXZ 00452f40 f   CppCodeGenerator.obj
 0001:00051f80       ?OnGetEnumNamespace@CCppCodeGenerator@@QAEKXZ 00452f80 f   CppCodeGenerator.obj
 0001:00051fc0       ?OnGetEnumNamespaceHashW@CCppCodeGenerator@@QAEKXZ 00452fc0 f   CppCodeGenerator.obj
 0001:00052000       ?OnGetEnumQName@CCppCodeGenerator@@QAEKXZ 00453000 f   CppCodeGenerator.obj
 0001:00052040       ?OnGetEnumSafeCppQName@CCppCodeGenerator@@QAEKXZ 00453040 f   CppCodeGenerator.obj
 0001:00052080       ?OnGetEnumSafeQName@CCppCodeGenerator@@QAEKXZ 00453080 f   CppCodeGenerator.obj
 0001:000520c0       ?OnGetErrorLine@CParseErrorProvider@CStencil@ATL@@QAEKXZ 004530c0 f i CppCodeGenerator.obj
 0001:000521e0       ?OnGetErrorLineNumber@CParseErrorProvider@CStencil@ATL@@QAEKXZ 004531e0 f i CppCodeGenerator.obj
 0001:00052290       ?OnGetErrorText@CParseErrorProvider@CStencil@ATL@@QAEKXZ 00453290 f i CppCodeGenerator.obj
 0001:00052340       ?OnGetExpectedHeaderCount@CCppCodeGenerator@@QAEKXZ 00453340 f   CppCodeGenerator.obj
 0001:000523d0       ?OnGetExpectedParameterCount@CCppCodeGenerator@@QAEKXZ 004533d0 f   CppCodeGenerator.obj
 0001:00052440       ?OnGetFieldSizeIsIndex@CCppCodeGenerator@@QAEKXZ 00453440 f   CppCodeGenerator.obj
 0001:00052550       ?OnGetFieldSizeIsName@CCppCodeGenerator@@QAEKXZ 00453550 f   CppCodeGenerator.obj
 0001:00052590       ?OnGetFunctionCppName@CCppCodeGenerator@@QAEKXZ 00453590 f   CppCodeGenerator.obj
 0001:000525d0       ?OnGetFunctionIndex@CCppCodeGenerator@@QAEKXZ 004535d0 f   CppCodeGenerator.obj
 0001:00052600       ?OnGetFunctionName@CCppCodeGenerator@@QAEKXZ 00453600 f   CppCodeGenerator.obj
 0001:00052640       ?OnGetFunctionNameHashW@CCppCodeGenerator@@QAEKXZ 00453640 f   CppCodeGenerator.obj
 0001:00052680       ?OnGetFunctionNamespace@CCppCodeGenerator@@QAEKXZ 00453680 f   CppCodeGenerator.obj
 0001:000526c0       ?OnGetFunctionNamespaceHashW@CCppCodeGenerator@@QAEKXZ 004536c0 f   CppCodeGenerator.obj
 0001:00052700       ?OnGetFunctionResultName@CCppCodeGenerator@@QAEKXZ 00453700 f   CppCodeGenerator.obj
 0001:00052740       ?OnGetFunctionResultNameHashW@CCppCodeGenerator@@QAEKXZ 00453740 f   CppCodeGenerator.obj
 0001:00052780       ?OnGetFunctionSendName@CCppCodeGenerator@@QAEKXZ 00453780 f   CppCodeGenerator.obj
 0001:000527c0       ?OnGetHeaderAtlSoapType@CCppCodeGenerator@@QAEKXZ 004537c0 f   CppCodeGenerator.obj
 0001:000527f0       ?OnGetHeaderCppValue@CCppCodeGenerator@@QAEKXZ 004537f0 f   CppCodeGenerator.obj
 0001:00052830       ?OnGetHeaderDimsDecl@CCppCodeGenerator@@QAEKXZ 00453830 f   CppCodeGenerator.obj
 0001:00052860       ?OnGetHeaderHashW@CCppCodeGenerator@@QAEKXZ 00453860 f   CppCodeGenerator.obj
 0001:000528a0       ?OnGetHeaderNamespace@CCppCodeGenerator@@QAEKXZ 004538a0 f   CppCodeGenerator.obj
 0001:000528e0       ?OnGetHeaderNamespaceHashW@CCppCodeGenerator@@QAEKXZ 004538e0 f   CppCodeGenerator.obj
 0001:00052920       ?OnGetHeaderTypeCppQName@CCppCodeGenerator@@QAEKXZ 00453920 f   CppCodeGenerator.obj
 0001:00052960       ?OnGetHeaderTypeQName@CCppCodeGenerator@@QAEKXZ 00453960 f   CppCodeGenerator.obj
 0001:000529a0       ?OnGetHeaderValue@CCppCodeGenerator@@QAEKXZ 004539a0 f   CppCodeGenerator.obj
 0001:000529e0       ?OnGetMemberCppName@CCppCodeGenerator@@QAEKXZ 004539e0 f   CppCodeGenerator.obj
 0001:00052a20       ?OnGetMemberCppType@CCppCodeGenerator@@QAEKXZ 00453a20 f   CppCodeGenerator.obj
 0001:00052a50       ?OnGetMemberName@CCppCodeGenerator@@QAEKXZ 00453a50 f   CppCodeGenerator.obj
 0001:00052a90       ?OnGetMemberSuffix@CCppCodeGenerator@@QAEKXZ 00453a90 f   CppCodeGenerator.obj
 0001:00052ac0       ?OnGetMemberType@CCppCodeGenerator@@QAEKXZ 00453ac0 f   CppCodeGenerator.obj
 0001:00052af0       ?OnGetNamespace@CCppCodeGenerator@@QAEKXZ 00453af0 f   CppCodeGenerator.obj
 0001:00052b20       ?OnGetNextEnum@CCppCodeGenerator@@QAEKXZ 00453b20 f   CppCodeGenerator.obj
 0001:00052ba0       ?OnGetNextEnumElement@CCppCodeGenerator@@QAEKXZ 00453ba0 f   CppCodeGenerator.obj
 0001:00052c10       ?OnGetNextError@CParseErrorProvider@CStencil@ATL@@QAEKXZ 00453c10 f i CppCodeGenerator.obj
 0001:00052c80       ?OnGetNextFunction@CCppCodeGenerator@@QAEKXZ 00453c80 f   CppCodeGenerator.obj
 0001:00052d20       ?OnGetNextHeader@CCppCodeGenerator@@QAEKXZ 00453d20 f   CppCodeGenerator.obj
 0001:00052d90       ?OnGetNextMember@CCppCodeGenerator@@QAEKXZ 00453d90 f   CppCodeGenerator.obj
 0001:00052e00       ?OnGetNextParameter@CCppCodeGenerator@@QAEKXZ 00453e00 f   CppCodeGenerator.obj
 0001:00052ea0       ?OnGetNextStruct@CCppCodeGenerator@@QAEKXZ 00453ea0 f   CppCodeGenerator.obj
 0001:00052f10       ?OnGetNextStructField@CCppCodeGenerator@@QAEKXZ 00453f10 f   CppCodeGenerator.obj
 0001:00052f80       ?OnGetParameterAtlSoapType@CCppCodeGenerator@@QAEKXZ 00453f80 f   CppCodeGenerator.obj
 0001:00052fb0       ?OnGetParameterCppName@CCppCodeGenerator@@QAEKXZ 00453fb0 f   CppCodeGenerator.obj
 0001:00053060       ?OnGetParameterCppType@CCppCodeGenerator@@QAEKXZ 00454060 f   CppCodeGenerator.obj
 0001:00053090       ?OnGetParameterDimsDecl@CCppCodeGenerator@@QAEKXZ 00454090 f   CppCodeGenerator.obj
 0001:000530c0       ?OnGetParameterFixedArraySize@CCppCodeGenerator@@QAEKXZ 004540c0 f   CppCodeGenerator.obj
 0001:00053170       ?OnGetParameterHashW@CCppCodeGenerator@@QAEKXZ 00454170 f   CppCodeGenerator.obj
 0001:000531b0       ?OnGetParameterName@CCppCodeGenerator@@QAEKXZ 004541b0 f   CppCodeGenerator.obj
 0001:00053260       ?OnGetParameterNameRaw@CCppCodeGenerator@@QAEKXZ 00454260 f   CppCodeGenerator.obj
 0001:000532a0       ?OnGetParameterSuffix@CCppCodeGenerator@@QAEKXZ 004542a0 f   CppCodeGenerator.obj
 0001:000532d0       ?OnGetParameterType@CCppCodeGenerator@@QAEKXZ 004542d0 f   CppCodeGenerator.obj
 0001:00053300       ?OnGetParameterTypeCppQName@CCppCodeGenerator@@QAEKXZ 00454300 f   CppCodeGenerator.obj
 0001:00053340       ?OnGetParameterTypeQName@CCppCodeGenerator@@QAEKXZ 00454340 f   CppCodeGenerator.obj
 0001:00053380       ?OnGetRetval@CCppCodeGenerator@@QAEKXZ 00454380 f   CppCodeGenerator.obj
 0001:000533e0       ?OnGetSizeIsIndex@CCppCodeGenerator@@QAEKXZ 004543e0 f   CppCodeGenerator.obj
 0001:00053440       ?OnGetSoapAction@CCppCodeGenerator@@QAEKXZ 00454440 f   CppCodeGenerator.obj
 0001:000534e0       ?OnGetStructCppName@CCppCodeGenerator@@QAEKXZ 004544e0 f   CppCodeGenerator.obj
 0001:00053520       ?OnGetStructCppQName@CCppCodeGenerator@@QAEKXZ 00454520 f   CppCodeGenerator.obj
 0001:00053560       ?OnGetStructFieldAtlSoapType@CCppCodeGenerator@@QAEKXZ 00454560 f   CppCodeGenerator.obj
 0001:00053590       ?OnGetStructFieldCount@CCppCodeGenerator@@QAEKXZ 00454590 f   CppCodeGenerator.obj
 0001:000535f0       ?OnGetStructFieldCppName@CCppCodeGenerator@@QAEKXZ 004545f0 f   CppCodeGenerator.obj
 0001:00053630       ?OnGetStructFieldCppType@CCppCodeGenerator@@QAEKXZ 00454630 f   CppCodeGenerator.obj
 0001:00053660       ?OnGetStructFieldDimsDecl@CCppCodeGenerator@@QAEKXZ 00454660 f   CppCodeGenerator.obj
 0001:00053690       ?OnGetStructFieldHashW@CCppCodeGenerator@@QAEKXZ 00454690 f   CppCodeGenerator.obj
 0001:000536d0       ?OnGetStructFieldName@CCppCodeGenerator@@QAEKXZ 004546d0 f   CppCodeGenerator.obj
 0001:00053710       ?OnGetStructFieldSuffix@CCppCodeGenerator@@QAEKXZ 00454710 f   CppCodeGenerator.obj
 0001:00053740       ?OnGetStructFieldType@CCppCodeGenerator@@QAEKXZ 00454740 f   CppCodeGenerator.obj
 0001:00053770       ?OnGetStructFieldTypeSafeCppQName@CCppCodeGenerator@@QAEKXZ 00454770 f   CppCodeGenerator.obj
 0001:000537b0       ?OnGetStructFieldTypeSafeQName@CCppCodeGenerator@@QAEKXZ 004547b0 f   CppCodeGenerator.obj
 0001:000537f0       ?OnGetStructName@CCppCodeGenerator@@QAEKXZ 004547f0 f   CppCodeGenerator.obj
 0001:00053830       ?OnGetStructNameHashW@CCppCodeGenerator@@QAEKXZ 00454830 f   CppCodeGenerator.obj
 0001:00053870       ?OnGetStructNamespace@CCppCodeGenerator@@QAEKXZ 00454870 f   CppCodeGenerator.obj
 0001:000538b0       ?OnGetStructNamespaceHashW@CCppCodeGenerator@@QAEKXZ 004548b0 f   CppCodeGenerator.obj
 0001:000538f0       ?OnGetStructQName@CCppCodeGenerator@@QAEKXZ 004548f0 f   CppCodeGenerator.obj
 0001:00053930       ?OnGetStructSafeCppQName@CCppCodeGenerator@@QAEKXZ 00454930 f   CppCodeGenerator.obj
 0001:00053970       ?OnGetStructSafeQName@CCppCodeGenerator@@QAEKXZ 00454970 f   CppCodeGenerator.obj
 0001:000539b0       ?OnGetURL@CCppCodeGenerator@@QAEKXZ 004549b0 f   CppCodeGenerator.obj
 0001:000539e0       ?OnHasRetval@CCppCodeGenerator@@QAEKXZ 004549e0 f   CppCodeGenerator.obj
 0001:00053a00       ?OnHeaderHasNamespace@CCppCodeGenerator@@QAEKXZ 00454a00 f   CppCodeGenerator.obj
 0001:00053a50       ?OnIsChain@CCppCodeGenerator@@QAEKXZ 00454a50 f   CppCodeGenerator.obj
 0001:00053aa0       ?OnIsDocument@CCppCodeGenerator@@QAEKXZ 00454aa0 f   CppCodeGenerator.obj
 0001:00053af0       ?OnIsEncoded@CCppCodeGenerator@@QAEKXZ 00454af0 f   CppCodeGenerator.obj
 0001:00053b40       ?OnIsFieldDynamicArray@CCppCodeGenerator@@QAEKXZ 00454b40 f   CppCodeGenerator.obj
 0001:00053b80       ?OnIsFieldDynamicArrayWrapper@CCppCodeGenerator@@QAEKXZ 00454b80 f   CppCodeGenerator.obj
 0001:00053bc0       ?OnIsFieldFixedArray@CCppCodeGenerator@@QAEKXZ 00454bc0 f   CppCodeGenerator.obj
 0001:00053bf0       ?OnIsFieldNullable@CCppCodeGenerator@@QAEKXZ 00454bf0 f   CppCodeGenerator.obj
 0001:00053ca0       ?OnIsFieldSizeIs@CCppCodeGenerator@@QAEKXZ 00454ca0 f   CppCodeGenerator.obj
 0001:00053d80       ?OnIsFieldUDT@CCppCodeGenerator@@QAEKXZ 00454d80 f   CppCodeGenerator.obj
 0001:00053db0       ?OnIsHeaderFixedArray@CCppCodeGenerator@@QAEKXZ 00454db0 f   CppCodeGenerator.obj
 0001:00053de0       ?OnIsHeaderNullable@CCppCodeGenerator@@QAEKXZ 00454de0 f   CppCodeGenerator.obj
 0001:00053e20       ?OnIsHeaderUDT@CCppCodeGenerator@@QAEKXZ 00454e20 f   CppCodeGenerator.obj
 0001:00053e50       ?OnIsInHeader@CCppCodeGenerator@@QAEKXZ 00454e50 f   CppCodeGenerator.obj
 0001:00053e90       ?OnIsInParameter@CCppCodeGenerator@@QAEKXZ 00454e90 f   CppCodeGenerator.obj
 0001:00053ed0       ?OnIsLiteral@CCppCodeGenerator@@QAEKXZ 00454ed0 f   CppCodeGenerator.obj
 0001:00053f20       ?OnIsMemberEnum@CCppCodeGenerator@@QAEKXZ 00454f20 f   CppCodeGenerator.obj
 0001:00053f60       ?OnIsMemberFixedArray@CCppCodeGenerator@@QAEKXZ 00454f60 f   CppCodeGenerator.obj
 0001:00053fa0       ?OnIsMemberUDT@CCppCodeGenerator@@QAEKXZ 00454fa0 f   CppCodeGenerator.obj
 0001:00053fe0       ?OnIsOneWay@CCppCodeGenerator@@QAEKXZ 00454fe0 f   CppCodeGenerator.obj
 0001:00054030       ?OnIsOutHeader@CCppCodeGenerator@@QAEKXZ 00455030 f   CppCodeGenerator.obj
 0001:00054070       ?OnIsOutParameter@CCppCodeGenerator@@QAEKXZ 00455070 f   CppCodeGenerator.obj
 0001:000540b0       ?OnIsPAD@CCppCodeGenerator@@QAEKXZ 004550b0 f   CppCodeGenerator.obj
 0001:00054100       ?OnIsPID@CCppCodeGenerator@@QAEKXZ 00455100 f   CppCodeGenerator.obj
 0001:00054150       ?OnIsParameterDynamicArray@CCppCodeGenerator@@QAEKXZ 00455150 f   CppCodeGenerator.obj
 0001:00054190       ?OnIsParameterFixedArray@CCppCodeGenerator@@QAEKXZ 00455190 f   CppCodeGenerator.obj
 0001:000541c0       ?OnIsParameterNullable@CCppCodeGenerator@@QAEKXZ 004551c0 f   CppCodeGenerator.obj
 0001:00054270       ?OnIsParameterUDT@CCppCodeGenerator@@QAEKXZ 00455270 f   CppCodeGenerator.obj
 0001:000542a0       ?OnIsRequiredHeader@CCppCodeGenerator@@QAEKXZ 004552a0 f   CppCodeGenerator.obj
 0001:000542e0       ?OnIsRpc@CCppCodeGenerator@@QAEKXZ 004552e0 f   CppCodeGenerator.obj
 0001:00054330       ?OnNotIsLastParameter@CCppCodeGenerator@@QAEKXZ 00455330 f   CppCodeGenerator.obj
 0001:00054390       ?OnNotIsParameterFixedArray@CCppCodeGenerator@@QAEKXZ 00455390 f   CppCodeGenerator.obj
 0001:000543e0       ?OnNotIsRetval@CCppCodeGenerator@@QAEKXZ 004553e0 f   CppCodeGenerator.obj
 0001:00054400       ?OnResetCounter@CCppCodeGenerator@@QAEKXZ 00455400 f   CppCodeGenerator.obj
 0001:00054430       ?OnResetParameterIndex@CCppCodeGenerator@@QAEKXZ 00455430 f   CppCodeGenerator.obj
 0001:00054450       ?OnStructHasUniqueNamespace@CCppCodeGenerator@@QAEKXZ 00455450 f   CppCodeGenerator.obj
 0001:000544b0       ?Parse@CStencil@ATL@@UAE_NPAUITagReplacer@2@@Z 004554b0 f i CppCodeGenerator.obj
 0001:00054500       ?ParseCodepage@CStencil@ATL@@QAEKPBD0@Z 00455500 f i CppCodeGenerator.obj
 0001:000547f0       ?ParseElse@CStencil@ATL@@QAEKPBD0PAK1@Z 004557f0 f i CppCodeGenerator.obj
 0001:000548c0       ?ParseEndIf@CStencil@ATL@@QAEKPBD0PAK1@Z 004558c0 f i CppCodeGenerator.obj
 0001:00054990       ?ParseEndWhile@CStencil@ATL@@QAEKPBD0PAK1@Z 00455990 f i CppCodeGenerator.obj
 0001:00054a60       ?ParseHandler@CStencil@ATL@@QAE?AW4PARSE_TOKEN_RESULT@12@PBD0@Z 00455a60 f i CppCodeGenerator.obj
 0001:00054c00       ?ParseIf@CStencil@ATL@@QAEKPBD0PAK1@Z 00455c00 f i CppCodeGenerator.obj
 0001:00054c60       ?ParseLocale@CStencil@ATL@@QAEKPBD0@Z 00455c60 f i CppCodeGenerator.obj
 0001:00054f80       ?ParseReplacement@CStencil@ATL@@QAEKPBD0KK@Z 00455f80 f i CppCodeGenerator.obj
 0001:00055060       ?ParseReplacements@CStencil@ATL@@UAE_NPAUITagReplacer@2@@Z 00456060 f i CppCodeGenerator.obj
 0001:000550b0       ?ParseReplacementsFromBuffer@CStencil@ATL@@UAE_NPAUITagReplacer@2@PBD1@Z 004560b0 f i CppCodeGenerator.obj
 0001:00055720       ?ParseSuccessful@CStencil@ATL@@QAE_NXZ 00456720 f i CppCodeGenerator.obj
 0001:00055770       ?ParseToken@CStencil@ATL@@UAE?AW4PARSE_TOKEN_RESULT@12@PBD0PAK1@Z 00456770 f i CppCodeGenerator.obj
 0001:00055a50       ?ParseWhile@CStencil@ATL@@QAEKPBD0PAK1@Z 00456a50 f i CppCodeGenerator.obj
 0001:00055ab0       ?PushToken@CStencil@ATL@@IAEKPAK0K@Z 00456ab0 f i CppCodeGenerator.obj
 0001:00055b10       ?QueryInterface@?$CComObjectStackEx@VCParseErrorProvider@CStencil@ATL@@@ATL@@UAGJABU_GUID@@PAPAX@Z 00456b10 f i CppCodeGenerator.obj
 0001:00055b40       ?QueryInterface@CStencil@ATL@@UAGJABU_GUID@@PAPAX@Z 00456b40 f i CppCodeGenerator.obj
 0001:00055bc0       ?RSkipSpace@ATL@@YAPBDPBD0G@Z 00456bc0 f i CppCodeGenerator.obj
 0001:00055c30       ?Reallocate@CFixedStringMgr@ATL@@UAEPAUCStringData@2@PAU32@HH@Z 00456c30 f i CppCodeGenerator.obj
 0001:00055de0       ?Release@?$CComObjectStackEx@VCParseErrorProvider@CStencil@ATL@@@ATL@@UAGKXZ 00456de0 f i CppCodeGenerator.obj
 0001:00055e10       ?Release@CStencil@ATL@@UAGKXZ 00456e10 f i CppCodeGenerator.obj
 0001:00055e30       ?RelocateElements@?$CElementTraitsBase@UStencilToken@ATL@@@ATL@@SAXPAUStencilToken@2@0I@Z 00456e30 f i CppCodeGenerator.obj
 0001:00055e70       ?RemoveAll@?$CAtlArray@UStencilToken@ATL@@V?$CElementTraits@UStencilToken@ATL@@@2@@ATL@@QAEXXZ 00456e70 f i CppCodeGenerator.obj
 0001:00055ea0       ?RemoveAll@?$CSimpleArray@UParseError@CStencil@ATL@@V?$CSimpleArrayEqualHelper@UParseError@CStencil@ATL@@@3@@ATL@@QAEXXZ 00456ea0 f i CppCodeGenerator.obj
 0001:00055f20       ?Render@CStencil@ATL@@UBEKPAUITagReplacer@2@PAUIWriteStream@2@PAUCStencilState@2@@Z 00456f20 f i CppCodeGenerator.obj
 0001:000561a0       ?RenderErrors@CStencil@ATL@@QAE_NPAUIWriteStream@2@@Z 004571a0 f i CppCodeGenerator.obj
 0001:000564d0       ?RenderReplacement@?$ITagReplacerImpl@VCParseErrorProvider@CStencil@ATL@@@ATL@@UAEKKKKPAX@Z 004574d0 f i CppCodeGenerator.obj
 0001:00056920       ?RenderToken@CStencil@ATL@@UBEKKPAUITagReplacer@2@PAUIWriteStream@2@PAKPAUCStencilState@2@@Z 00457920 f i CppCodeGenerator.obj
 0001:00057170       ?Replace@?$CStringT@DV?$StrTraitATL@DV?$ChTraitsCRT@D@ATL@@@ATL@@@ATL@@QAEHPBD0@Z 00458170 f i CppCodeGenerator.obj
 0001:000573f0       ?SafeStringLen@?$ChTraitsCRT@D@ATL@@SAHPBD@Z 004583f0 f i CppCodeGenerator.obj
 0001:00057430       ?SetCount@?$CAtlArray@UStencilToken@ATL@@V?$CElementTraits@UStencilToken@ATL@@@2@@ATL@@QAE_NIH@Z 00458430 f i CppCodeGenerator.obj
 0001:00057600       ?SetStream@?$ITagReplacerImpl@VCParseErrorProvider@CStencil@ATL@@@ATL@@UAEPAUIWriteStream@2@PAU32@@Z 00458600 f i CppCodeGenerator.obj
 0001:00057640       ?SkipSpace@ATL@@YAPBDPBDG@Z 00458640 f i CppCodeGenerator.obj
 0001:000576a0       ?StringFindString@?$ChTraitsCRT@D@ATL@@SAPADPADPBD@Z 004586a0 f i CppCodeGenerator.obj
 0001:000576d0       ?StringFindString@?$ChTraitsCRT@D@ATL@@SAPBDPBD0@Z 004586d0 f i CppCodeGenerator.obj
 0001:00057700       ?Uninitialize@CStencil@ATL@@QAEXXZ 00458700 f i CppCodeGenerator.obj
 0001:00057870       ?Write@CWriteStreamHelper@ATL@@QAEHH@Z 00458870 f i CppCodeGenerator.obj
 0001:000578d0       ?Write@CWriteStreamHelper@ATL@@QAEHPBD@Z 004588d0 f i CppCodeGenerator.obj
 0001:00057980       ?WriteCString@CCppCodeGenerator@@QAEKABV?$CStringT@DV?$StrTraitATL@DV?$ChTraitsCRT@D@ATL@@@ATL@@@ATL@@@Z 00458980 f i CppCodeGenerator.obj
 0001:00057af0       ?WriteCString@CCppCodeGenerator@@QAEKABV?$CStringT@_WV?$StrTraitATL@_WV?$ChTraitsCRT@_W@ATL@@@ATL@@@ATL@@@Z 00458af0 f i CppCodeGenerator.obj
 0001:00057b90       ?WriteHash@CCppCodeGenerator@@QAEKK@Z 00458b90 f i CppCodeGenerator.obj
 0001:00057c40       ?WriteStream@CWriteStreamOnFileA@@UAEJPBDHPAK@Z 00458c40 f i CppCodeGenerator.obj
 0001:00057d40       ?WriteStream@CWriteStreamOnStdout@@UAEJPBDHPAK@Z 00458d40 f i CppCodeGenerator.obj
 0001:00057dd0       ?_AtlCrackHandler@ATL@@YAHPBDPADPAK12@Z 00458dd0 f i CppCodeGenerator.obj
 0001:00058250       ?_AtlInitialConstruct@?$CComObjectRootEx@VCComSingleThreadModel@ATL@@@ATL@@QAEJXZ 00459250 f i CppCodeGenerator.obj
 0001:00058270       ?_GetEntries@CParseErrorProvider@CStencil@ATL@@SGPBU_ATL_INTMAP_ENTRY@3@XZ 00459270 f i CppCodeGenerator.obj
 0001:000582a0       ?_InternalQueryInterface@CParseErrorProvider@CStencil@ATL@@QAEJABU_GUID@@PAPAX@Z 004592a0 f i CppCodeGenerator.obj
 0001:000582e0       ?_SafeStringCopy@ATL@@YA_NPADPBDI@Z 004592e0 f i CppCodeGenerator.obj
 0001:000583c0       ?_strncpy@ATL@@YAPADPADPBDI@Z 004593c0 f i CppCodeGenerator.obj
 0001:000584f0       ?itoa_s@Checked@ATL@@YAXHPADIH@Z 004594f0 f i CppCodeGenerator.obj
 0001:00058530       ?memcpy_s@Checked@ATL@@YAXPAXIPBXI@Z 00459530 f i CppCodeGenerator.obj
 0001:00058570       ?strchr@@YAPADQADH@Z       00459570 f i CppCodeGenerator.obj
 0001:000585a0       ?strcpy_s@Checked@ATL@@YAXPADIPBD@Z 004595a0 f i CppCodeGenerator.obj
 0001:000585e0       _InlineIsEqualGUID         004595e0 f i CppCodeGenerator.obj
 0001:000586a0       __vfprintf_l               004596a0 f i CppCodeGenerator.obj
 0001:000586f0       __vsnprintf_l              004596f0 f i CppCodeGenerator.obj
 0001:00058760       __vsprintf_l               00459760 f i CppCodeGenerator.obj
 0001:000587a0       __vsprintf_s_l             004597a0 f i CppCodeGenerator.obj
 0001:00058a90       _printf                    00459a90 f i CppCodeGenerator.obj
 0001:00058af0       _sprintf                   00459af0 f i CppCodeGenerator.obj
 0001:00058b40       _vsprintf_s                00459b40 f i CppCodeGenerator.obj
 0001:00058b80       ??0?$CAtlMap@V?$CStringT@_WV?$StrTraitATL@_WV?$ChTraitsCRT@_W@ATL@@@ATL@@@ATL@@V12@V?$CElementTraits@V?$CStringT@_WV?$StrTraitATL@_WV?$ChTraitsCRT@_W@ATL@@@ATL@@@ATL@@@2@V32@@ATL@@QAE@IMMMI@Z 00459b80 f i DiscoMapDocument.obj
 0001:00058ce0       ??0?$CPathT@V?$CStringT@_WV?$StrTraitATL@_WV?$ChTraitsCRT@_W@ATL@@@ATL@@@ATL@@@ATL@@QAE@XZ 00459ce0 f i DiscoMapDocument.obj
 0001:00058d10       ??0CDiscoMapDocument@@QAE@XZ 00459d10 f   DiscoMapDocument.obj
 0001:00058e20       ??0CNode@?$CAtlMap@V?$CStringT@_WV?$StrTraitATL@_WV?$ChTraitsCRT@_W@ATL@@@ATL@@@ATL@@V12@V?$CElementTraits@V?$CStringT@_WV?$StrTraitATL@_WV?$ChTraitsCRT@_W@ATL@@@ATL@@@ATL@@@2@V32@@ATL@@QAE@PB_WI@Z 00459e20 f i DiscoMapDocument.obj
 0001:00058e60       ??0CPair@?$CAtlMap@V?$CStringT@_WV?$StrTraitATL@_WV?$ChTraitsCRT@_W@ATL@@@ATL@@@ATL@@V12@V?$CElementTraits@V?$CStringT@_WV?$StrTraitATL@_WV?$ChTraitsCRT@_W@ATL@@@ATL@@@ATL@@@2@V32@@ATL@@IAE@PB_W@Z 00459e60 f i DiscoMapDocument.obj
 0001:00058ea0       ??1?$CAtlMap@V?$CStringT@_WV?$StrTraitATL@_WV?$ChTraitsCRT@_W@ATL@@@ATL@@@ATL@@V12@V?$CElementTraits@V?$CStringT@_WV?$StrTraitATL@_WV?$ChTraitsCRT@_W@ATL@@@ATL@@@ATL@@@2@V32@@ATL@@QAE@XZ 00459ea0 f i DiscoMapDocument.obj
 0001:00058f60       ??1?$CPathT@V?$CStringT@_WV?$StrTraitATL@_WV?$ChTraitsCRT@_W@ATL@@@ATL@@@ATL@@@ATL@@QAE@XZ 00459f60 f i DiscoMapDocument.obj
 0001:00058f90       ??1CDiscoMapDocument@@UAE@XZ 00459f90 f   DiscoMapDocument.obj
 0001:00059000       ??1CNode@?$CAtlMap@V?$CStringT@_WV?$StrTraitATL@_WV?$ChTraitsCRT@_W@ATL@@@ATL@@@ATL@@V12@V?$CElementTraits@V?$CStringT@_WV?$StrTraitATL@_WV?$ChTraitsCRT@_W@ATL@@@ATL@@@ATL@@@2@V32@@ATL@@QAE@XZ 0045a000 f i DiscoMapDocument.obj
 0001:00059030       ??1CPair@?$CAtlMap@V?$CStringT@_WV?$StrTraitATL@_WV?$ChTraitsCRT@_W@ATL@@@ATL@@@ATL@@V12@V?$CElementTraits@V?$CStringT@_WV?$StrTraitATL@_WV?$ChTraitsCRT@_W@ATL@@@ATL@@@ATL@@@2@V32@@ATL@@QAE@XZ 0045a030 f i DiscoMapDocument.obj
 0001:00059060       ??A?$CAtlMap@V?$CStringT@_WV?$StrTraitATL@_WV?$ChTraitsCRT@_W@ATL@@@ATL@@@ATL@@V12@V?$CElementTraits@V?$CStringT@_WV?$StrTraitATL@_WV?$ChTraitsCRT@_W@ATL@@@ATL@@@ATL@@@2@V32@@ATL@@QAEAAV?$CStringT@_WV?$StrTraitATL@_WV?$ChTraitsCRT@_W@ATL@@@ATL@@@1@PB_W@Z 0045a060 f i DiscoMapDocument.obj
 0001:000590d0       ??B?$CPathT@V?$CStringT@_WV?$StrTraitATL@_WV?$ChTraitsCRT@_W@ATL@@@ATL@@@ATL@@@ATL@@QBEPB_WXZ 0045a0d0 f i DiscoMapDocument.obj
 0001:00059100       ??_ECDiscoMapDocument@@UAEPAXI@Z 0045a100 f i DiscoMapDocument.obj
 0001:00059100       ??_GCDiscoMapDocument@@UAEPAXI@Z 0045a100 f i DiscoMapDocument.obj
 0001:00059150       ??_GCNode@?$CAtlMap@V?$CStringT@_WV?$StrTraitATL@_WV?$ChTraitsCRT@_W@ATL@@@ATL@@@ATL@@V12@V?$CElementTraits@V?$CStringT@_WV?$StrTraitATL@_WV?$ChTraitsCRT@_W@ATL@@@ATL@@@ATL@@@2@V32@@ATL@@QAEPAXI@Z 0045a150 f i DiscoMapDocument.obj
 0001:000591a0       ?AddSchema@CDiscoMapDocument@@QAEXABV?$CStringT@_WV?$StrTraitATL@_WV?$ChTraitsCRT@_W@ATL@@@ATL@@@ATL@@0@Z 0045a1a0 f   DiscoMapDocument.obj
 0001:00059270       ?Combine@?$CPathT@V?$CStringT@_WV?$StrTraitATL@_WV?$ChTraitsCRT@_W@ATL@@@ATL@@@ATL@@@ATL@@QAEXPB_W0@Z 0045a270 f i DiscoMapDocument.obj
 0001:000592d0       ?Combine@ATLPath@ATL@@YAPA_WPA_WPB_W1@Z 0045a2d0 f i DiscoMapDocument.obj
 0001:00059300       ?CompareElements@?$CStringElementTraits@V?$CStringT@_WV?$StrTraitATL@_WV?$ChTraitsCRT@_W@ATL@@@ATL@@@ATL@@@ATL@@SA_NPB_W0@Z 0045a300 f i DiscoMapDocument.obj
 0001:00059350       ?CreateNode@?$CAtlMap@V?$CStringT@_WV?$StrTraitATL@_WV?$ChTraitsCRT@_W@ATL@@@ATL@@@ATL@@V12@V?$CElementTraits@V?$CStringT@_WV?$StrTraitATL@_WV?$ChTraitsCRT@_W@ATL@@@ATL@@@ATL@@@2@V32@@ATL@@AAEPAVCNode@12@PB_WII@Z 0045a350 f i DiscoMapDocument.obj
 0001:000593d0       ?DisableAutoRehash@?$CAtlMap@V?$CStringT@_WV?$StrTraitATL@_WV?$ChTraitsCRT@_W@ATL@@@ATL@@@ATL@@V12@V?$CElementTraits@V?$CStringT@_WV?$StrTraitATL@_WV?$ChTraitsCRT@_W@ATL@@@ATL@@@ATL@@@2@V32@@ATL@@QAEXXZ 0045a3d0 f i DiscoMapDocument.obj
 0001:00059400       ?EnableAutoRehash@?$CAtlMap@V?$CStringT@_WV?$StrTraitATL@_WV?$ChTraitsCRT@_W@ATL@@@ATL@@@ATL@@V12@V?$CElementTraits@V?$CStringT@_WV?$StrTraitATL@_WV?$ChTraitsCRT@_W@ATL@@@ATL@@@ATL@@@2@V32@@ATL@@QAEXXZ 0045a400 f i DiscoMapDocument.obj
 0001:00059470       ?FreeNode@?$CAtlMap@V?$CStringT@_WV?$StrTraitATL@_WV?$ChTraitsCRT@_W@ATL@@@ATL@@@ATL@@V12@V?$CElementTraits@V?$CStringT@_WV?$StrTraitATL@_WV?$ChTraitsCRT@_W@ATL@@@ATL@@@ATL@@@2@V32@@ATL@@AAEXPAVCNode@12@@Z 0045a470 f i DiscoMapDocument.obj
 0001:000595e0       ?FreePlexes@?$CAtlMap@V?$CStringT@_WV?$StrTraitATL@_WV?$ChTraitsCRT@_W@ATL@@@ATL@@@ATL@@V12@V?$CElementTraits@V?$CStringT@_WV?$StrTraitATL@_WV?$ChTraitsCRT@_W@ATL@@@ATL@@@ATL@@@2@V32@@ATL@@AAEXXZ 0045a5e0 f i DiscoMapDocument.obj
 0001:00059630       ?GetHash@CNode@?$CAtlMap@V?$CStringT@_WV?$StrTraitATL@_WV?$ChTraitsCRT@_W@ATL@@@ATL@@@ATL@@V12@V?$CElementTraits@V?$CStringT@_WV?$StrTraitATL@_WV?$ChTraitsCRT@_W@ATL@@@ATL@@@ATL@@@2@V32@@ATL@@QBEIXZ 0045a630 f i DiscoMapDocument.obj
 0001:00059650       ?GetNode@?$CAtlMap@V?$CStringT@_WV?$StrTraitATL@_WV?$ChTraitsCRT@_W@ATL@@@ATL@@@ATL@@V12@V?$CElementTraits@V?$CStringT@_WV?$StrTraitATL@_WV?$ChTraitsCRT@_W@ATL@@@ATL@@@ATL@@@2@V32@@ATL@@ABEPAVCNode@12@PB_WAAI1AAPAV312@@Z 0045a650 f i DiscoMapDocument.obj
 0001:00059740       ?GetPath@CDiscoMapDocument@@IAEAAV?$CStringT@_WV?$StrTraitATL@_WV?$ChTraitsCRT@_W@ATL@@@ATL@@@ATL@@XZ 0045a740 f   DiscoMapDocument.obj
 0001:00059960       ?GetValue@CDiscoMapDocument@@QAEAAV?$CStringT@_WV?$StrTraitATL@_WV?$ChTraitsCRT@_W@ATL@@@ATL@@@ATL@@ABV23@@Z 0045a960 f   DiscoMapDocument.obj
 0001:000599a0       ?GetWSDLFile@CDiscoMapDocument@@QAEAAV?$CStringT@_WV?$StrTraitATL@_WV?$ChTraitsCRT@_W@ATL@@@ATL@@@ATL@@XZ 0045a9a0 f   DiscoMapDocument.obj
 0001:000599d0       ?Hash@?$CStringElementTraits@V?$CStringT@_WV?$StrTraitATL@_WV?$ChTraitsCRT@_W@ATL@@@ATL@@@ATL@@@ATL@@SAKPB_W@Z 0045a9d0 f i DiscoMapDocument.obj
 0001:00059ab0       ?InitHashTable@?$CAtlMap@V?$CStringT@_WV?$StrTraitATL@_WV?$ChTraitsCRT@_W@ATL@@@ATL@@@ATL@@V12@V?$CElementTraits@V?$CStringT@_WV?$StrTraitATL@_WV?$ChTraitsCRT@_W@ATL@@@ATL@@@ATL@@@2@V32@@ATL@@QAE_NI_N@Z 0045aab0 f i DiscoMapDocument.obj
 0001:00059c80       ?IsLocked@?$CAtlMap@V?$CStringT@_WV?$StrTraitATL@_WV?$ChTraitsCRT@_W@ATL@@@ATL@@@ATL@@V12@V?$CElementTraits@V?$CStringT@_WV?$StrTraitATL@_WV?$ChTraitsCRT@_W@ATL@@@ATL@@@ATL@@@2@V32@@ATL@@ABE_NXZ 0045ac80 f i DiscoMapDocument.obj
 0001:00059cc0       ?NewNode@?$CAtlMap@V?$CStringT@_WV?$StrTraitATL@_WV?$ChTraitsCRT@_W@ATL@@@ATL@@@ATL@@V12@V?$CElementTraits@V?$CStringT@_WV?$StrTraitATL@_WV?$ChTraitsCRT@_W@ATL@@@ATL@@@ATL@@@2@V32@@ATL@@AAEPAVCNode@12@PB_WII@Z 0045acc0 f i DiscoMapDocument.obj
 0001:00059f90       ?PickSize@?$CAtlMap@V?$CStringT@_WV?$StrTraitATL@_WV?$ChTraitsCRT@_W@ATL@@@ATL@@@ATL@@V12@V?$CElementTraits@V?$CStringT@_WV?$StrTraitATL@_WV?$ChTraitsCRT@_W@ATL@@@ATL@@@ATL@@@2@V32@@ATL@@ABEII@Z 0045af90 f i DiscoMapDocument.obj
 0001:0005a060       ?Rehash@?$CAtlMap@V?$CStringT@_WV?$StrTraitATL@_WV?$ChTraitsCRT@_W@ATL@@@ATL@@@ATL@@V12@V?$CElementTraits@V?$CStringT@_WV?$StrTraitATL@_WV?$ChTraitsCRT@_W@ATL@@@ATL@@@ATL@@@2@V32@@ATL@@QAEXI@Z 0045b060 f i DiscoMapDocument.obj
 0001:0005a2b0       ?ReleaseBuffer@?$CSimpleStringT@_W$0A@@ATL@@QAEXH@Z 0045b2b0 f i DiscoMapDocument.obj
 0001:0005a310       ?RemoveAll@?$CAtlMap@V?$CStringT@_WV?$StrTraitATL@_WV?$ChTraitsCRT@_W@ATL@@@ATL@@@ATL@@V12@V?$CElementTraits@V?$CStringT@_WV?$StrTraitATL@_WV?$ChTraitsCRT@_W@ATL@@@ATL@@@ATL@@@2@V32@@ATL@@QAEXXZ 0045b310 f i DiscoMapDocument.obj
 0001:0005a420       ?RemoveAtPos@?$CAtlMap@V?$CStringT@_WV?$StrTraitATL@_WV?$ChTraitsCRT@_W@ATL@@@ATL@@@ATL@@V12@V?$CElementTraits@V?$CStringT@_WV?$StrTraitATL@_WV?$ChTraitsCRT@_W@ATL@@@ATL@@@ATL@@@2@V32@@ATL@@QAEXPAU__POSITION@@@Z 0045b420 f i DiscoMapDocument.obj
 0001:0005a5c0       ?RemoveNode@?$CAtlMap@V?$CStringT@_WV?$StrTraitATL@_WV?$ChTraitsCRT@_W@ATL@@@ATL@@@ATL@@V12@V?$CElementTraits@V?$CStringT@_WV?$StrTraitATL@_WV?$ChTraitsCRT@_W@ATL@@@ATL@@@ATL@@@2@V32@@ATL@@AAEXPAVCNode@12@0@Z 0045b5c0 f i DiscoMapDocument.obj
 0001:0005a730       ?SetAt@?$CAtlMap@V?$CStringT@_WV?$StrTraitATL@_WV?$ChTraitsCRT@_W@ATL@@@ATL@@@ATL@@V12@V?$CElementTraits@V?$CStringT@_WV?$StrTraitATL@_WV?$ChTraitsCRT@_W@ATL@@@ATL@@@ATL@@@2@V32@@ATL@@QAEPAU__POSITION@@PB_W0@Z 0045b730 f i DiscoMapDocument.obj
 0001:0005a840       ?SetDocumentType@CXMLDocument@@QAEXW4XMLDOCTYPE@@@Z 0045b840 f i DiscoMapDocument.obj
 0001:0005a870       ?SetOptimalLoad@?$CAtlMap@V?$CStringT@_WV?$StrTraitATL@_WV?$ChTraitsCRT@_W@ATL@@@ATL@@@ATL@@V12@V?$CElementTraits@V?$CStringT@_WV?$StrTraitATL@_WV?$ChTraitsCRT@_W@ATL@@@ATL@@@ATL@@@2@V32@@ATL@@QAEXMMM_N@Z 0045b870 f i DiscoMapDocument.obj
 0001:0005a9e0       ?SetWSDLFile@CDiscoMapDocument@@QAEXABV?$CStringT@_WV?$StrTraitATL@_WV?$ChTraitsCRT@_W@ATL@@@ATL@@@ATL@@@Z 0045b9e0 f   DiscoMapDocument.obj
 0001:0005aaa0       ?UpdateRehashThresholds@?$CAtlMap@V?$CStringT@_WV?$StrTraitATL@_WV?$ChTraitsCRT@_W@ATL@@@ATL@@@ATL@@V12@V?$CElementTraits@V?$CStringT@_WV?$StrTraitATL@_WV?$ChTraitsCRT@_W@ATL@@@ATL@@@ATL@@@2@V32@@ATL@@AAEXXZ 0045baa0 f i DiscoMapDocument.obj
 0001:0005ade0       ??0?$CAutoPtr@VCDiscoMapDocument@@@ATL@@QAE@PAVCDiscoMapDocument@@@Z 0045bde0 f i DiscoMapParser.obj
 0001:0005ae10       ??0?$CComPtr@UISAXXMLReader@@@ATL@@QAE@XZ 0045be10 f i DiscoMapParser.obj
 0001:0005ae40       ??0?$CComPtr@VCParserBase@@@ATL@@QAE@XZ 0045be40 f i DiscoMapParser.obj
 0001:0005ae70       ??0?$CComPtrBase@UISAXXMLReader@@@ATL@@IAE@XZ 0045be70 f i DiscoMapParser.obj
 0001:0005aea0       ??0?$CComPtrBase@VCParserBase@@@ATL@@IAE@XZ 0045bea0 f i DiscoMapParser.obj
 0001:0005aed0       ??0CDiscoMapParser@@QAE@PAUISAXXMLReader@@PAVCParserBase@@K@Z 0045bed0 f   DiscoMapParser.obj
 0001:0005af30       ??0CDiscoMapParser@@QAE@XZ 0045bf30 f   DiscoMapParser.obj
 0001:0005af80       ??0CParserBase@@QAE@XZ     0045bf80 f i DiscoMapParser.obj
 0001:0005b010       ??1?$CAutoPtr@VCDiscoMapDocument@@@ATL@@QAE@XZ 0045c010 f i DiscoMapParser.obj
 0001:0005b040       ??1CDiscoMapParser@@UAE@XZ 0045c040 f   DiscoMapParser.obj
 0001:0005b080       ??B?$CAutoPtr@VCDiscoMapDocument@@@ATL@@QBEPAVCDiscoMapDocument@@XZ 0045c080 f i DiscoMapParser.obj
 0001:0005b0a0       ??_GCDiscoMapParser@@UAEPAXI@Z 0045c0a0 f i DiscoMapParser.obj
 0001:0005b0a0       ??_ECDiscoMapParser@@UAEPAXI@Z 0045c0a0 f i DiscoMapParser.obj
 0001:0005b0f0       ?Attach@?$CAutoPtr@VCDiscoMapDocument@@@ATL@@QAEXPAVCDiscoMapDocument@@@Z 0045c0f0 f i DiscoMapParser.obj
 0001:0005b160       ?CreateDiscoMapDocument@CDiscoMapParser@@QAEPAVCDiscoMapDocument@@XZ 0045c160 f   DiscoMapParser.obj
 0001:0005b220       ?Detach@?$CAutoPtr@VCDiscoMapDocument@@@ATL@@QAEPAVCDiscoMapDocument@@XZ 0045c220 f i DiscoMapParser.obj
 0001:0005b250       ?Free@?$CAutoPtr@VCDiscoMapDocument@@@ATL@@QAEXXZ 0045c250 f i DiscoMapParser.obj
 0001:0005b2b0       ?GetDiscoMapDocument@CDiscoMapParser@@QAEPAVCDiscoMapDocument@@_N@Z 0045c2b0 f i DiscoMapParser.obj
 0001:0005b310       ?GetXMLTAGMap@CDiscoMapParser@@UAEPBUXMLTAG@@XZ 0045c310 f i DiscoMapParser.obj
 0001:0005b690       ?OnDiscoveryClientResult@CDiscoMapParser@@QAEJPB_WH0H0HPAUISAXAttributes@@@Z 0045c690 f   DiscoMapParser.obj
 0001:0005b9e0       ?OnDiscoveryClientResultsFile@CDiscoMapParser@@QAEJPB_WH0H0HPAUISAXAttributes@@@Z 0045c9e0 f   DiscoMapParser.obj
 0001:0005ba40       ?OnResults@CDiscoMapParser@@QAEJPB_WH0H0HPAUISAXAttributes@@@Z 0045ca40 f   DiscoMapParser.obj
 0001:0005bc00       ??0?$CAtlList@VCEnumeration@@VCEnumerationElementTraits@@@ATL@@QAE@I@Z 0045cc00 f i Element.obj
 0001:0005bca0       ??0?$CAutoPtr@VCComplexType@@@ATL@@QAE@XZ 0045cca0 f i Element.obj
 0001:0005bcd0       ??0?$CAutoPtr@VCSimpleType@@@ATL@@QAE@XZ 0045ccd0 f i Element.obj
 0001:0005bd00       ??0CNode@?$CAtlList@PAVCXSDElement@@V?$CElementTraits@PAVCXSDElement@@@ATL@@@ATL@@QAE@ABQAVCXSDElement@@@Z 0045cd00 f i Element.obj
 0001:0005bd30       ??0CSimpleType@@QAE@XZ     0045cd30 f i Element.obj
 0001:0005be30       ??1?$CAtlList@VCEnumeration@@VCEnumerationElementTraits@@@ATL@@QAE@XZ 0045ce30 f i Element.obj
 0001:0005bea0       ??1?$CAutoPtr@VCComplexType@@@ATL@@QAE@XZ 0045cea0 f i Element.obj
 0001:0005bed0       ??1?$CAutoPtr@VCSimpleType@@@ATL@@QAE@XZ 0045ced0 f i Element.obj
 0001:0005bf00       ??1CEnumeration@@QAE@XZ    0045cf00 f i Element.obj
 0001:0005bf30       ??1CNode@?$CAtlList@VCEnumeration@@VCEnumerationElementTraits@@@ATL@@QAE@XZ 0045cf30 f i Element.obj
 0001:0005bf60       ??1CSimpleType@@UAE@XZ     0045cf60 f i Element.obj
 0001:0005bfb0       ??B?$CAutoPtr@VCComplexType@@@ATL@@QBEPAVCComplexType@@XZ 0045cfb0 f i Element.obj
 0001:0005bfd0       ??B?$CAutoPtr@VCSimpleType@@@ATL@@QBEPAVCSimpleType@@XZ 0045cfd0 f i Element.obj
 0001:0005bff0       ??_GCNode@?$CAtlList@VCEnumeration@@VCEnumerationElementTraits@@@ATL@@QAEPAXI@Z 0045cff0 f i Element.obj
 0001:0005c040       ??_ECSimpleType@@UAEPAXI@Z 0045d040 f i Element.obj
 0001:0005c040       ??_GCSimpleType@@UAEPAXI@Z 0045d040 f i Element.obj
 0001:0005c090       ?AddComplexType@CElement@@QAEPAVCComplexType@@PAV2@@Z 0045d090 f   Element.obj
 0001:0005c1d0       ?AddSimpleType@CElement@@QAEPAVCSimpleType@@PAV2@@Z 0045d1d0 f   Element.obj
 0001:0005c310       ?AddTail@?$CAtlList@PAVCXSDElement@@V?$CElementTraits@PAVCXSDElement@@@ATL@@@ATL@@QAEPAU__POSITION@@ABQAVCXSDElement@@@Z 0045d310 f i Element.obj
 0001:0005c380       ?Attach@?$CAutoPtr@VCComplexType@@@ATL@@QAEXPAVCComplexType@@@Z 0045d380 f i Element.obj
 0001:0005c3f0       ?Attach@?$CAutoPtr@VCSimpleType@@@ATL@@QAEXPAVCSimpleType@@@Z 0045d3f0 f i Element.obj
 0001:0005c460       ?Detach@?$CAutoPtr@VCComplexType@@@ATL@@QAEPAVCComplexType@@XZ 0045d460 f i Element.obj
 0001:0005c490       ?Detach@?$CAutoPtr@VCSimpleType@@@ATL@@QAEPAVCSimpleType@@XZ 0045d490 f i Element.obj
 0001:0005c4c0       ?Free@?$CAutoPtr@VCComplexType@@@ATL@@QAEXXZ 0045d4c0 f i Element.obj
 0001:0005c520       ?Free@?$CAutoPtr@VCSimpleType@@@ATL@@QAEXXZ 0045d520 f i Element.obj
 0001:0005c580       ?FreeNode@?$CAtlList@VCEnumeration@@VCEnumerationElementTraits@@@ATL@@AAEXPAVCNode@12@@Z 0045d580 f i Element.obj
 0001:0005c630       ?GetFreeNode@?$CAtlList@PAVCXSDElement@@V?$CElementTraits@PAVCXSDElement@@@ATL@@@ATL@@AAEXXZ 0045d630 f i Element.obj
 0001:0005c740       ?GetTargetNamespace@CElement@@QAEPB_WXZ 0045d740 f   Element.obj
 0001:0005c850       ?GetType@CElement@@QAEPAVCXSDElement@@XZ 0045d850 f   Element.obj
 0001:0005c950       ?NewNode@?$CAtlList@PAVCXSDElement@@V?$CElementTraits@PAVCXSDElement@@@ATL@@@ATL@@AAEPAVCNode@12@ABQAVCXSDElement@@PAV312@1@Z 0045d950 f i Element.obj
 0001:0005ca90       ?RemoveAll@?$CAtlList@VCEnumeration@@VCEnumerationElementTraits@@@ATL@@QAEXXZ 0045da90 f i Element.obj
 0001:0005cbf0       ??0?$CAutoPtr@VCSimpleTypeParser@@@ATL@@QAE@PAVCSimpleTypeParser@@@Z 0045dbf0 f i ElementParser.obj
 0001:0005cc20       ??0CSimpleTypeParser@@QAE@PAUISAXXMLReader@@PAVCParserBase@@KPAVCSimpleType@@@Z 0045dc20 f i ElementParser.obj
 0001:0005cc70       ??1?$CAutoPtr@VCSimpleTypeParser@@@ATL@@QAE@XZ 0045dc70 f i ElementParser.obj
 0001:0005cca0       ??1CSimpleTypeParser@@UAE@XZ 0045dca0 f i ElementParser.obj
 0001:0005ccd0       ??B?$CAutoPtr@VCSimpleTypeParser@@@ATL@@QBEPAVCSimpleTypeParser@@XZ 0045dcd0 f i ElementParser.obj
 0001:0005ccf0       ??_GCSimpleTypeParser@@UAEPAXI@Z 0045dcf0 f i ElementParser.obj
 0001:0005ccf0       ??_ECSimpleTypeParser@@UAEPAXI@Z 0045dcf0 f i ElementParser.obj
 0001:0005cd40       ?Detach@?$CAutoPtr@VCSimpleTypeParser@@@ATL@@QAEPAVCSimpleTypeParser@@XZ 0045dd40 f i ElementParser.obj
 0001:0005cd70       ?Free@?$CAutoPtr@VCSimpleTypeParser@@@ATL@@QAEXXZ 0045dd70 f i ElementParser.obj
 0001:0005cdd0       ?GetElement@CElementParser@@QAEPAVCElement@@XZ 0045ddd0 f i ElementParser.obj
 0001:0005cdf0       ?GetXMLATTRMap@CSimpleTypeParser@@UAEPBUXMLTAG@@XZ 0045ddf0 f i ElementParser.obj
 0001:0005d170       ?GetXMLTAGMap@CSimpleTypeParser@@UAEPBUXMLTAG@@XZ 0045e170 f i ElementParser.obj
 0001:0005e4c0       ?MarkUnsupported@CElementParser@@QAEXPB_WH@Z 0045f4c0 f i ElementParser.obj
 0001:0005e580       ?OnAbstract@CElementParser@@QAEJPB_WH0H0H0HPAUISAXAttributes@@@Z 0045f580 f   ElementParser.obj
 0001:0005e5e0       ?OnArrayType@CElementParser@@QAEJPB_WH0H0H0HPAUISAXAttributes@@@Z 0045f5e0 f   ElementParser.obj
 0001:0005e670       ?OnBlock@CElementParser@@QAEJPB_WH0H0H0HPAUISAXAttributes@@@Z 0045f670 f   ElementParser.obj
 0001:0005e6d0       ?OnComplexType@CElementParser@@QAEJPB_WH0H0HPAUISAXAttributes@@@Z 0045f6d0 f   ElementParser.obj
 0001:0005e8d0       ?OnDefault@CElementParser@@QAEJPB_WH0H0H0HPAUISAXAttributes@@@Z 0045f8d0 f   ElementParser.obj
 0001:0005e930       ?OnEquivClass@CElementParser@@QAEJPB_WH0H0H0HPAUISAXAttributes@@@Z 0045f930 f   ElementParser.obj
 0001:0005e990       ?OnFinal@CElementParser@@QAEJPB_WH0H0H0HPAUISAXAttributes@@@Z 0045f990 f   ElementParser.obj
 0001:0005e9f0       ?OnFixed@CElementParser@@QAEJPB_WH0H0H0HPAUISAXAttributes@@@Z 0045f9f0 f   ElementParser.obj
 0001:0005ea50       ?OnForm@CElementParser@@QAEJPB_WH0H0H0HPAUISAXAttributes@@@Z 0045fa50 f   ElementParser.obj
 0001:0005eab0       ?OnID@CElementParser@@QAEJPB_WH0H0H0HPAUISAXAttributes@@@Z 0045fab0 f   ElementParser.obj
 0001:0005eb40       ?OnKey@CElementParser@@QAEJPB_WH0H0HPAUISAXAttributes@@@Z 0045fb40 f   ElementParser.obj
 0001:0005ebd0       ?OnKeyRef@CElementParser@@QAEJPB_WH0H0HPAUISAXAttributes@@@Z 0045fbd0 f   ElementParser.obj
 0001:0005ec60       ?OnMaxOccurs@CElementParser@@QAEJPB_WH0H0H0HPAUISAXAttributes@@@Z 0045fc60 f   ElementParser.obj
 0001:0005ed80       ?OnMinOccurs@CElementParser@@QAEJPB_WH0H0H0HPAUISAXAttributes@@@Z 0045fd80 f   ElementParser.obj
 0001:0005ee40       ?OnName@CElementParser@@QAEJPB_WH0H0H0HPAUISAXAttributes@@@Z 0045fe40 f   ElementParser.obj
 0001:0005eed0       ?OnNillable@CElementParser@@QAEJPB_WH0H0H0HPAUISAXAttributes@@@Z 0045fed0 f   ElementParser.obj
 0001:0005efb0       ?OnRef@CElementParser@@QAEJPB_WH0H0H0HPAUISAXAttributes@@@Z 0045ffb0 f   ElementParser.obj
 0001:0005f040       ?OnSimpleType@CElementParser@@QAEJPB_WH0H0HPAUISAXAttributes@@@Z 00460040 f   ElementParser.obj
 0001:0005f240       ?OnSizeIs@CElementParser@@QAEJPB_WH0H0H0HPAUISAXAttributes@@@Z 00460240 f   ElementParser.obj
 0001:0005f2e0       ?OnType@CElementParser@@QAEJPB_WH0H0H0HPAUISAXAttributes@@@Z 004602e0 f   ElementParser.obj
 0001:0005f370       ?OnUnique@CElementParser@@QAEJPB_WH0H0HPAUISAXAttributes@@@Z 00460370 f   ElementParser.obj
 0001:0005f400       ?SetArrayType@CElement@@QAEJPB_WH@Z 00460400 f i ElementParser.obj
 0001:0005f450       ?SetID@CElement@@QAEJPB_WH@Z 00460450 f i ElementParser.obj
 0001:0005f4a0       ?SetMaxOccurs@CElement@@QAEXH@Z 004604a0 f i ElementParser.obj
 0001:0005f4d0       ?SetMinOccurs@CElement@@QAEXH@Z 004604d0 f i ElementParser.obj
 0001:0005f500       ?SetName@CElement@@QAEJPB_WH@Z 00460500 f i ElementParser.obj
 0001:0005f550       ?SetNullable@CElement@@QAEXH@Z 00460550 f i ElementParser.obj
 0001:0005f580       ?SetRef@CElement@@QAEJPB_WH@Z 00460580 f i ElementParser.obj
 0001:0005f5c0       ?SetSizeIs@CElement@@QAEJPB_WH@Z 004605c0 f i ElementParser.obj
 0001:0005f610       ?SetType@CElement@@QAEJPB_WH@Z 00460610 f i ElementParser.obj
 0001:0005f650       ?startPrefixMapping@CElementParser@@UAGJPB_WH0H@Z 00460650 f   ElementParser.obj
 0001:0005f930       ??$__vcrt_va_start_verify_argument_type@I@@YAXXZ 00460930 f i Emit.obj
 0001:0005f950       ??0CEmitError@@QAE@XZ      00460950 f i Emit.obj
 0001:0005f980       ?Emit@@YAXIZZ              00460980 f   Emit.obj
 0001:0005f9d0       ?Emit@CEmitError@@QAEXIPAD@Z 004609d0 f i Emit.obj
 0001:0005fa80       ?EmitCmdLineError@@YAXIZZ  00460a80 f   Emit.obj
 0001:0005fad0       ?EmitCmdLineError@CEmitError@@QAEXIPAD@Z 00460ad0 f i Emit.obj
 0001:0005fb00       ?EmitCmdLineMsg@CEmitError@@AAEXIPAD_N@Z 00460b00 f i Emit.obj
 0001:0005fc20       ?EmitCmdLineWarning@@YAXIZZ 00460c20 f   Emit.obj
 0001:0005fc70       ?EmitCmdLineWarning@CEmitError@@QAEXIPAD@Z 00460c70 f i Emit.obj
 0001:0005fca0       ?EmitError@@YAXIZZ         00460ca0 f   Emit.obj
 0001:0005fcf0       ?EmitError@CEmitError@@QAEXIPAD@Z 00460cf0 f i Emit.obj
 0001:0005fd90       ?EmitErrorHr@@YAXJ@Z       00460d90 f   Emit.obj
 0001:0005fdc0       ?EmitErrorHr@CEmitError@@QAEXJ@Z 00460dc0 f i Emit.obj
 0001:0005fe50       ?EmitFileError@@YAXIPAVCXMLElement@@IZZ 00460e50 f   Emit.obj
 0001:0005fed0       ?EmitFileError@@YAXIPB_WHHIZZ 00460ed0 f   Emit.obj
 0001:0005ff30       ?EmitFileError@CEmitError@@QAEXIPB_WHHIPAD@Z 00460f30 f i Emit.obj
 0001:0005ff80       ?EmitFileMsg@CEmitError@@AAEXIPB_WHHIPAD_N@Z 00460f80 f i Emit.obj
 0001:00060100       ?EmitFileWarning@@YAXIPAVCXMLElement@@IZZ 00461100 f   Emit.obj
 0001:00060180       ?EmitFileWarning@@YAXIPB_WHHIZZ 00461180 f   Emit.obj
 0001:000601e0       ?EmitFileWarning@CEmitError@@QAEXIPB_WHHIPAD@Z 004611e0 f i Emit.obj
 0001:00060240       ?EmitWarning@@YAXIZZ       00461240 f   Emit.obj
 0001:00060290       ?EmitWarning@CEmitError@@QAEXIPAD@Z 00461290 f i Emit.obj
 0001:00060310       ?GetColumnNumber@CXMLElement@@QAEHXZ 00461310 f i Emit.obj
 0001:00060330       ?GetEmitIndex@CEmitError@@AAEHI@Z 00461330 f i Emit.obj
 0001:00060390       ?GetLineNumber@CXMLElement@@QAEHXZ 00461390 f i Emit.obj
 0001:000603b0       ?SetEmitWarnings@@YA_N_N@Z 004613b0 f   Emit.obj
 0001:000603e0       ?SetEmitWarnings@CEmitError@@QAE_N_N@Z 004613e0 f i Emit.obj
 0001:00060580       _vprintf                   00461580 f i Emit.obj
 0001:000605c0       ?AddRef@CErrorHandler@@UAGKXZ 004615c0 f   ErrorHandler.obj
 0001:000605e0       ?QueryInterface@CErrorHandler@@UAGJABU_GUID@@PAPAX@Z 004615e0 f   ErrorHandler.obj
 0001:00060650       ?Release@CErrorHandler@@UAGKXZ 00461650 f   ErrorHandler.obj
 0001:00060670       ?error@CErrorHandler@@UAGJPAUISAXLocator@@PB_WJ@Z 00461670 f   ErrorHandler.obj
 0001:00060730       ?fatalError@CErrorHandler@@UAGJPAUISAXLocator@@PB_WJ@Z 00461730 f   ErrorHandler.obj
 0001:000607f0       ?ignorableWarning@CErrorHandler@@UAGJPAUISAXLocator@@PB_WJ@Z 004617f0 f   ErrorHandler.obj
 0001:000608a0       ??$AtlAssertValidObject@V?$CAtlList@PAVCParserBase@@V?$CElementTraits@PAVCParserBase@@@ATL@@@ATL@@@ATL@@YAXPBV?$CAtlList@PAVCParserBase@@V?$CElementTraits@PAVCParserBase@@@ATL@@@0@@Z 004618a0 f i Parser.obj
 0001:00060950       ??$SAL_Assume_bytecap_for_opt_@VCNode@?$CAtlList@PAVCParserBase@@V?$CElementTraits@PAVCParserBase@@@ATL@@@ATL@@@ATL@@YAPAVCNode@?$CAtlList@PAVCParserBase@@V?$CElementTraits@PAVCParserBase@@@ATL@@@0@PAV120@I@Z 00461950 f i Parser.obj
 0001:00060970       ??0?$CAutoPtr@VCSkipParser@@@ATL@@QAE@PAVCSkipParser@@@Z 00461970 f i Parser.obj
 0001:000609a0       ??0?$CComPtr@UISAXLocator@@@ATL@@QAE@PAUISAXLocator@@@Z 004619a0 f i Parser.obj
 0001:000609d0       ??0?$CComPtrBase@UISAXLocator@@@ATL@@IAE@PAUISAXLocator@@@Z 004619d0 f i Parser.obj
 0001:00060a20       ??0CSkipParser@@QAE@PAUISAXXMLReader@@PAVCParserBase@@K@Z 00461a20 f i Parser.obj
 0001:00060a70       ??1?$CAutoPtr@VCSkipParser@@@ATL@@QAE@XZ 00461a70 f i Parser.obj
 0001:00060aa0       ??1CSkipParser@@UAE@XZ     00461aa0 f i Parser.obj
 0001:00060ad0       ??4?$CComPtr@UISAXLocator@@@ATL@@QAEPAUISAXLocator@@PAU2@@Z 00461ad0 f i Parser.obj
 0001:00060b40       ??8?$CComPtrBase@UISAXLocator@@@ATL@@QBE_NPAUISAXLocator@@@Z 00461b40 f i Parser.obj
 0001:00060b80       ??9?$CComPtrBase@UISAXLocator@@@ATL@@QBE_NPAUISAXLocator@@@Z 00461b80 f i Parser.obj
 0001:00060bd0       ??B?$CAutoPtr@VCSkipParser@@@ATL@@QBEPAVCSkipParser@@XZ 00461bd0 f i Parser.obj
 0001:00060bf0       ??_GCSkipParser@@UAEPAXI@Z 00461bf0 f i Parser.obj
 0001:00060bf0       ??_ECSkipParser@@UAEPAXI@Z 00461bf0 f i Parser.obj
 0001:00060c40       ?AddRef@CParserBase@@UAGKXZ 00461c40 f   Parser.obj
 0001:00060c60       ?AssertValid@?$CAtlList@PAVCParserBase@@V?$CElementTraits@PAVCParserBase@@@ATL@@@ATL@@QBEXXZ 00461c60 f i Parser.obj
 0001:00060db0       ?CheckTagElement@CParserBase@@AAEHPBUXMLTAG@@PB_WH1H1H@Z 00461db0 f   Parser.obj
 0001:00060e80       ?CompareElements@?$CDefaultCompareTraits@PAVCParserBase@@@ATL@@SA_NABQAVCParserBase@@0@Z 00461e80 f i Parser.obj
 0001:00060ee0       ?CrackQName@CParserBase@@AAEXPB_WHPAPA_WPAH12@Z 00461ee0 f   Parser.obj
 0001:00060fa0       ?Detach@?$CAutoPtr@VCSkipParser@@@ATL@@QAEPAVCSkipParser@@XZ 00461fa0 f i Parser.obj
 0001:00060fd0       ?DispatchElement@CParserBase@@AAEJPBUXMLTAG@@PB_WH1H1HPAUISAXAttributes@@@Z 00461fd0 f   Parser.obj
 0001:000610c0       ?DispatchElement@CParserBase@@QAEJPB_WH0H0HPAUISAXAttributes@@@Z 004620c0 f   Parser.obj
 0001:00061140       ?EmitInvalidValue@CParserBase@@QAEXPBDPB_W@Z 00462140 f   Parser.obj
 0001:000611d0       ?EmitSkip@CParserBase@@QAEXPB_W0@Z 004621d0 f   Parser.obj
 0001:00061200       ?EmitString@CParserBase@@QAEXPB_W0@Z 00462200 f   Parser.obj
 0001:00061240       ?EmitUnsupported@CParserBase@@QAEXIPB_W0@Z 00462240 f   Parser.obj
 0001:000612d0       ?EnableReset@CParserBase@@QAEXH@Z 004622d0 f i Parser.obj
 0001:00061320       ?Find@?$CAtlList@PAVCParserBase@@V?$CElementTraits@PAVCParserBase@@@ATL@@@ATL@@QBEPAU__POSITION@@ABQAVCParserBase@@PAU3@@Z 00462320 f i Parser.obj
 0001:00061450       ?Free@?$CAutoPtr@VCSkipParser@@@ATL@@QAEXXZ 00462450 f i Parser.obj
 0001:000614b0       ?GetAttributes@CParserBase@@AAEJPBUXMLTAG@@PAUISAXAttributes@@@Z 004624b0 f   Parser.obj
 0001:00061760       ?GetAttributes@CParserBase@@QAEJPAUISAXAttributes@@@Z 00462760 f   Parser.obj
 0001:000617b0       ?GetDynamicAlloc@CParserBase@@QAEHXZ 004627b0 f i Parser.obj
 0001:000617d0       ?GetGotAttributes@CParserBase@@QAEHXZ 004627d0 f i Parser.obj
 0001:000617f0       ?GetParentHandler@CParserBase@@QAEPAV1@XZ 004627f0 f i Parser.obj
 0001:00061820       ?GetReset@CParserBase@@QAEKXZ 00462820 f i Parser.obj
 0001:00061840       ?GetXMLTAGMap@CSkipParser@@UAEPBUXMLTAG@@XZ 00462840 f i Parser.obj
 0001:00061860       ?IsEmpty@?$CAtlList@PAVCParserBase@@V?$CElementTraits@PAVCParserBase@@@ATL@@@ATL@@QBE_NXZ 00462860 f i Parser.obj
 0001:000618a0       ?OnMissingAttribute@CParserBase@@UAEJHPB_WH0H@Z 004628a0 f   Parser.obj
 0001:000619a0       ?OnUnrecognizedTag@CParserBase@@UAEJPB_WH0H0HPAUISAXAttributes@@@Z 004629a0 f   Parser.obj
 0001:00061a80       ?OnUnrecognizedTag@CSkipParser@@UAEJPB_WH0H0HPAUISAXAttributes@@@Z 00462a80 f i Parser.obj
 0001:00061ab0       ?QueryInterface@CParserBase@@UAGJABU_GUID@@PAPAX@Z 00462ab0 f   Parser.obj
 0001:00061b20       ?Release@CParserBase@@UAGKXZ 00462b20 f   Parser.obj
 0001:00061b40       ?RemoveAt@?$CAtlList@PAVCParserBase@@V?$CElementTraits@PAVCParserBase@@@ATL@@@ATL@@QAEXPAU__POSITION@@@Z 00462b40 f i Parser.obj
 0001:00061cf0       ?SetGotAttributes@CParserBase@@QAEXH@Z 00462cf0 f i Parser.obj
 0001:00061d20       ?SkipElement@CParserBase@@QAEJXZ 00462d20 f   Parser.obj
 0001:00061e80       ?Swap@?$CComPtrBase@UISAXLocator@@@ATL@@IAEXAAV12@@Z 00462e80 f i Parser.obj
 0001:00061ec0       ?characters@CParserBase@@UAGJPB_WH@Z 00462ec0 f   Parser.obj
 0001:00061ee0       ?endDocument@CParserBase@@UAGJXZ 00462ee0 f   Parser.obj
 0001:00061f00       ?endElement@CParserBase@@UAGJPB_WH0H0H@Z 00462f00 f   Parser.obj
 0001:00062080       ?endPrefixMapping@CParserBase@@UAGJPB_WH@Z 00463080 f   Parser.obj
 0001:000620a0       ?ignorableWhitespace@CParserBase@@UAGJPB_WH@Z 004630a0 f   Parser.obj
 0001:000620c0       ?processingInstruction@CParserBase@@UAGJPB_WH0H@Z 004630c0 f   Parser.obj
 0001:00062120       ?putDocumentLocator@CParserBase@@UAGJPAUISAXLocator@@@Z 00463120 f   Parser.obj
 0001:00062150       ?skippedEntity@CParserBase@@UAGJPB_WH@Z 00463150 f   Parser.obj
 0001:000621b0       ?startDocument@CParserBase@@UAGJXZ 004631b0 f   Parser.obj
 0001:000621d0       ?startElement@CParserBase@@UAGJPB_WH0H0HPAUISAXAttributes@@@Z 004631d0 f   Parser.obj
 0001:00062220       ?startPrefixMapping@CParserBase@@UAGJPB_WH0H@Z 00463220 f   Parser.obj
 0001:00062240       ?wcschr@@YAPA_WPA_W_W@Z    00463240 f i Parser.obj
 0001:00062270       ??0CQName@@QAE@ABV?$CStringT@_WV?$StrTraitATL@_WV?$ChTraitsCRT@_W@ATL@@@ATL@@@ATL@@0@Z 00463270 f   QName.obj
 0001:00062300       ??0CQName@@QAE@ABV?$CStringT@_WV?$StrTraitATL@_WV?$ChTraitsCRT@_W@ATL@@@ATL@@@ATL@@@Z 00463300 f   QName.obj
 0001:00062390       ??0CQName@@QAE@PB_WH@Z     00463390 f   QName.obj
 0001:00062430       ?CrackQName@CQName@@AAEXPB_WH@Z 00463430 f   QName.obj
 0001:00062500       ?SetQName@CQName@@QAEXABV?$CStringT@_WV?$StrTraitATL@_WV?$ChTraitsCRT@_W@ATL@@@ATL@@@ATL@@0@Z 00463500 f   QName.obj
 0001:00062540       ?SetQName@CQName@@QAEXABV?$CStringT@_WV?$StrTraitATL@_WV?$ChTraitsCRT@_W@ATL@@@ATL@@@ATL@@@Z 00463540 f   QName.obj
 0001:00062580       ?SetQName@CQName@@QAEXPB_WH@Z 00463580 f   QName.obj
 0001:00062830       ??0CNode@?$CAtlMap@V?$CStringT@_WV?$StrTraitATL@_WV?$ChTraitsCRT@_W@ATL@@@ATL@@@ATL@@PAVCComplexType@@V?$CStringRefElementTraits@V?$CStringT@_WV?$StrTraitATL@_WV?$ChTraitsCRT@_W@ATL@@@ATL@@@ATL@@@2@V?$CElementTraits@PAVCComplexType@@@2@@ATL@@QAE@ABV?$CStringT@_WV?$StrTraitATL@_WV?$ChTraitsCRT@_W@ATL@@@ATL@@@2@I@Z 00463830 f i Schema.obj
 0001:00062870       ??0CNode@?$CAtlMap@V?$CStringT@_WV?$StrTraitATL@_WV?$ChTraitsCRT@_W@ATL@@@ATL@@@ATL@@PAVCElement@@V?$CStringRefElementTraits@V?$CStringT@_WV?$StrTraitATL@_WV?$ChTraitsCRT@_W@ATL@@@ATL@@@ATL@@@2@V?$CElementTraits@PAVCElement@@@2@@ATL@@QAE@ABV?$CStringT@_WV?$StrTraitATL@_WV?$ChTraitsCRT@_W@ATL@@@ATL@@@2@I@Z 00463870 f i Schema.obj
 0001:000628b0       ??0CNode@?$CAtlMap@V?$CStringT@_WV?$StrTraitATL@_WV?$ChTraitsCRT@_W@ATL@@@ATL@@@ATL@@PAVCSimpleType@@V?$CStringRefElementTraits@V?$CStringT@_WV?$StrTraitATL@_WV?$ChTraitsCRT@_W@ATL@@@ATL@@@ATL@@@2@V?$CElementTraits@PAVCSimpleType@@@2@@ATL@@QAE@ABV?$CStringT@_WV?$StrTraitATL@_WV?$ChTraitsCRT@_W@ATL@@@ATL@@@2@I@Z 004638b0 f i Schema.obj
 0001:000628f0       ??0CPair@?$CAtlMap@V?$CStringT@_WV?$StrTraitATL@_WV?$ChTraitsCRT@_W@ATL@@@ATL@@@ATL@@PAVCComplexType@@V?$CStringRefElementTraits@V?$CStringT@_WV?$StrTraitATL@_WV?$ChTraitsCRT@_W@ATL@@@ATL@@@ATL@@@2@V?$CElementTraits@PAVCComplexType@@@2@@ATL@@IAE@ABV?$CStringT@_WV?$StrTraitATL@_WV?$ChTraitsCRT@_W@ATL@@@ATL@@@2@@Z 004638f0 f i Schema.obj
 0001:00062920       ??0CPair@?$CAtlMap@V?$CStringT@_WV?$StrTraitATL@_WV?$ChTraitsCRT@_W@ATL@@@ATL@@@ATL@@PAVCElement@@V?$CStringRefElementTraits@V?$CStringT@_WV?$StrTraitATL@_WV?$ChTraitsCRT@_W@ATL@@@ATL@@@ATL@@@2@V?$CElementTraits@PAVCElement@@@2@@ATL@@IAE@ABV?$CStringT@_WV?$StrTraitATL@_WV?$ChTraitsCRT@_W@ATL@@@ATL@@@2@@Z 00463920 f i Schema.obj
 0001:00062950       ??0CPair@?$CAtlMap@V?$CStringT@_WV?$StrTraitATL@_WV?$ChTraitsCRT@_W@ATL@@@ATL@@@ATL@@PAVCSimpleType@@V?$CStringRefElementTraits@V?$CStringT@_WV?$StrTraitATL@_WV?$ChTraitsCRT@_W@ATL@@@ATL@@@ATL@@@2@V?$CElementTraits@PAVCSimpleType@@@2@@ATL@@IAE@ABV?$CStringT@_WV?$StrTraitATL@_WV?$ChTraitsCRT@_W@ATL@@@ATL@@@2@@Z 00463950 f i Schema.obj
 0001:00062980       ??1CNode@?$CAtlMap@V?$CStringT@_WV?$StrTraitATL@_WV?$ChTraitsCRT@_W@ATL@@@ATL@@@ATL@@PAVCComplexType@@V?$CStringRefElementTraits@V?$CStringT@_WV?$StrTraitATL@_WV?$ChTraitsCRT@_W@ATL@@@ATL@@@ATL@@@2@V?$CElementTraits@PAVCComplexType@@@2@@ATL@@QAE@XZ 00463980 f i Schema.obj
 0001:000629b0       ??1CNode@?$CAtlMap@V?$CStringT@_WV?$StrTraitATL@_WV?$ChTraitsCRT@_W@ATL@@@ATL@@@ATL@@PAVCElement@@V?$CStringRefElementTraits@V?$CStringT@_WV?$StrTraitATL@_WV?$ChTraitsCRT@_W@ATL@@@ATL@@@ATL@@@2@V?$CElementTraits@PAVCElement@@@2@@ATL@@QAE@XZ 004639b0 f i Schema.obj
 0001:000629e0       ??1CNode@?$CAtlMap@V?$CStringT@_WV?$StrTraitATL@_WV?$ChTraitsCRT@_W@ATL@@@ATL@@@ATL@@PAVCSimpleType@@V?$CStringRefElementTraits@V?$CStringT@_WV?$StrTraitATL@_WV?$ChTraitsCRT@_W@ATL@@@ATL@@@ATL@@@2@V?$CElementTraits@PAVCSimpleType@@@2@@ATL@@QAE@XZ 004639e0 f i Schema.obj
 0001:00062a10       ??1CPair@?$CAtlMap@V?$CStringT@_WV?$StrTraitATL@_WV?$ChTraitsCRT@_W@ATL@@@ATL@@@ATL@@PAVCComplexType@@V?$CStringRefElementTraits@V?$CStringT@_WV?$StrTraitATL@_WV?$ChTraitsCRT@_W@ATL@@@ATL@@@ATL@@@2@V?$CElementTraits@PAVCComplexType@@@2@@ATL@@QAE@XZ 00463a10 f i Schema.obj
 0001:00062a40       ??1CPair@?$CAtlMap@V?$CStringT@_WV?$StrTraitATL@_WV?$ChTraitsCRT@_W@ATL@@@ATL@@@ATL@@PAVCElement@@V?$CStringRefElementTraits@V?$CStringT@_WV?$StrTraitATL@_WV?$ChTraitsCRT@_W@ATL@@@ATL@@@ATL@@@2@V?$CElementTraits@PAVCElement@@@2@@ATL@@QAE@XZ 00463a40 f i Schema.obj
 0001:00062a70       ??1CPair@?$CAtlMap@V?$CStringT@_WV?$StrTraitATL@_WV?$ChTraitsCRT@_W@ATL@@@ATL@@@ATL@@PAVCSimpleType@@V?$CStringRefElementTraits@V?$CStringT@_WV?$StrTraitATL@_WV?$ChTraitsCRT@_W@ATL@@@ATL@@@ATL@@@2@V?$CElementTraits@PAVCSimpleType@@@2@@ATL@@QAE@XZ 00463a70 f i Schema.obj
 0001:00062aa0       ??_GCNode@?$CAtlMap@V?$CStringT@_WV?$StrTraitATL@_WV?$ChTraitsCRT@_W@ATL@@@ATL@@@ATL@@PAVCComplexType@@V?$CStringRefElementTraits@V?$CStringT@_WV?$StrTraitATL@_WV?$ChTraitsCRT@_W@ATL@@@ATL@@@ATL@@@2@V?$CElementTraits@PAVCComplexType@@@2@@ATL@@QAEPAXI@Z 00463aa0 f i Schema.obj
 0001:00062af0       ??_GCNode@?$CAtlMap@V?$CStringT@_WV?$StrTraitATL@_WV?$ChTraitsCRT@_W@ATL@@@ATL@@@ATL@@PAVCElement@@V?$CStringRefElementTraits@V?$CStringT@_WV?$StrTraitATL@_WV?$ChTraitsCRT@_W@ATL@@@ATL@@@ATL@@@2@V?$CElementTraits@PAVCElement@@@2@@ATL@@QAEPAXI@Z 00463af0 f i Schema.obj
 0001:00062b40       ??_GCNode@?$CAtlMap@V?$CStringT@_WV?$StrTraitATL@_WV?$ChTraitsCRT@_W@ATL@@@ATL@@@ATL@@PAVCSimpleType@@V?$CStringRefElementTraits@V?$CStringT@_WV?$StrTraitATL@_WV?$ChTraitsCRT@_W@ATL@@@ATL@@@ATL@@@2@V?$CElementTraits@PAVCSimpleType@@@2@@ATL@@QAEPAXI@Z 00463b40 f i Schema.obj
 0001:00062b90       ?AddComplexType@CSchema@@QAEPAVCComplexType@@PAV2@@Z 00463b90 f   Schema.obj
 0001:00062c00       ?AddElement@CSchema@@QAEPAVCElement@@PAV2@@Z 00463c00 f   Schema.obj
 0001:00062c70       ?AddSimpleType@CSchema@@QAEPAVCSimpleType@@PAV2@@Z 00463c70 f   Schema.obj
 0001:00062ce0       ?CreateNode@?$CAtlMap@V?$CStringT@_WV?$StrTraitATL@_WV?$ChTraitsCRT@_W@ATL@@@ATL@@@ATL@@PAVCComplexType@@V?$CStringRefElementTraits@V?$CStringT@_WV?$StrTraitATL@_WV?$ChTraitsCRT@_W@ATL@@@ATL@@@ATL@@@2@V?$CElementTraits@PAVCComplexType@@@2@@ATL@@AAEPAVCNode@12@ABV?$CStringT@_WV?$StrTraitATL@_WV?$ChTraitsCRT@_W@ATL@@@ATL@@@2@II@Z 00463ce0 f i Schema.obj
 0001:00062d60       ?CreateNode@?$CAtlMap@V?$CStringT@_WV?$StrTraitATL@_WV?$ChTraitsCRT@_W@ATL@@@ATL@@@ATL@@PAVCElement@@V?$CStringRefElementTraits@V?$CStringT@_WV?$StrTraitATL@_WV?$ChTraitsCRT@_W@ATL@@@ATL@@@ATL@@@2@V?$CElementTraits@PAVCElement@@@2@@ATL@@AAEPAVCNode@12@ABV?$CStringT@_WV?$StrTraitATL@_WV?$ChTraitsCRT@_W@ATL@@@ATL@@@2@II@Z 00463d60 f i Schema.obj
 0001:00062de0       ?CreateNode@?$CAtlMap@V?$CStringT@_WV?$StrTraitATL@_WV?$ChTraitsCRT@_W@ATL@@@ATL@@@ATL@@PAVCSimpleType@@V?$CStringRefElementTraits@V?$CStringT@_WV?$StrTraitATL@_WV?$ChTraitsCRT@_W@ATL@@@ATL@@@ATL@@@2@V?$CElementTraits@PAVCSimpleType@@@2@@ATL@@AAEPAVCNode@12@ABV?$CStringT@_WV?$StrTraitATL@_WV?$ChTraitsCRT@_W@ATL@@@ATL@@@2@II@Z 00463de0 f i Schema.obj
 0001:00062e60       ?FreeNode@?$CAtlMap@V?$CStringT@_WV?$StrTraitATL@_WV?$ChTraitsCRT@_W@ATL@@@ATL@@@ATL@@PAVCComplexType@@V?$CStringRefElementTraits@V?$CStringT@_WV?$StrTraitATL@_WV?$ChTraitsCRT@_W@ATL@@@ATL@@@ATL@@@2@V?$CElementTraits@PAVCComplexType@@@2@@ATL@@AAEXPAVCNode@12@@Z 00463e60 f i Schema.obj
 0001:00062fd0       ?FreeNode@?$CAtlMap@V?$CStringT@_WV?$StrTraitATL@_WV?$ChTraitsCRT@_W@ATL@@@ATL@@@ATL@@PAVCElement@@V?$CStringRefElementTraits@V?$CStringT@_WV?$StrTraitATL@_WV?$ChTraitsCRT@_W@ATL@@@ATL@@@ATL@@@2@V?$CElementTraits@PAVCElement@@@2@@ATL@@AAEXPAVCNode@12@@Z 00463fd0 f i Schema.obj
 0001:00063140       ?FreeNode@?$CAtlMap@V?$CStringT@_WV?$StrTraitATL@_WV?$ChTraitsCRT@_W@ATL@@@ATL@@@ATL@@PAVCSimpleType@@V?$CStringRefElementTraits@V?$CStringT@_WV?$StrTraitATL@_WV?$ChTraitsCRT@_W@ATL@@@ATL@@@ATL@@@2@V?$CElementTraits@PAVCSimpleType@@@2@@ATL@@AAEXPAVCNode@12@@Z 00464140 f i Schema.obj
 0001:000632b0       ?FreePlexes@?$CAtlMap@V?$CStringT@_WV?$StrTraitATL@_WV?$ChTraitsCRT@_W@ATL@@@ATL@@@ATL@@PAVCComplexType@@V?$CStringRefElementTraits@V?$CStringT@_WV?$StrTraitATL@_WV?$ChTraitsCRT@_W@ATL@@@ATL@@@ATL@@@2@V?$CElementTraits@PAVCComplexType@@@2@@ATL@@AAEXXZ 004642b0 f i Schema.obj
 0001:00063300       ?FreePlexes@?$CAtlMap@V?$CStringT@_WV?$StrTraitATL@_WV?$ChTraitsCRT@_W@ATL@@@ATL@@@ATL@@PAVCElement@@V?$CStringRefElementTraits@V?$CStringT@_WV?$StrTraitATL@_WV?$ChTraitsCRT@_W@ATL@@@ATL@@@ATL@@@2@V?$CElementTraits@PAVCElement@@@2@@ATL@@AAEXXZ 00464300 f i Schema.obj
 0001:00063350       ?FreePlexes@?$CAtlMap@V?$CStringT@_WV?$StrTraitATL@_WV?$ChTraitsCRT@_W@ATL@@@ATL@@@ATL@@PAVCSimpleType@@V?$CStringRefElementTraits@V?$CStringT@_WV?$StrTraitATL@_WV?$ChTraitsCRT@_W@ATL@@@ATL@@@ATL@@@2@V?$CElementTraits@PAVCSimpleType@@@2@@ATL@@AAEXXZ 00464350 f i Schema.obj
 0001:000633a0       ?GetComplexType@CWSDLDocument@@QAEPAVCComplexType@@ABV?$CStringT@_WV?$StrTraitATL@_WV?$ChTraitsCRT@_W@ATL@@@ATL@@@ATL@@0@Z 004643a0 f i Schema.obj
 0001:00063460       ?GetDocumentType@CXMLDocument@@QAE?AW4XMLDOCTYPE@@XZ 00464460 f i Schema.obj
 0001:00063480       ?GetElement@CWSDLDocument@@QAEPAVCElement@@ABV?$CStringT@_WV?$StrTraitATL@_WV?$ChTraitsCRT@_W@ATL@@@ATL@@@ATL@@0@Z 00464480 f i Schema.obj
 0001:00063540       ?GetFirstSchema@CWSDLType@@QAEPAU__POSITION@@XZ 00464540 f i Schema.obj
 0001:00063570       ?GetFirstType@CWSDLDocument@@QAEPAU__POSITION@@XZ 00464570 f i Schema.obj
 0001:000635a0       ?GetHeadPosition@?$CAtlList@PAVCSchema@@V?$CElementTraits@PAVCSchema@@@ATL@@@ATL@@QBEPAU__POSITION@@XZ 004645a0 f i Schema.obj
 0001:000635c0       ?GetHeadPosition@?$CAtlList@PAVCWSDLType@@V?$CElementTraits@PAVCWSDLType@@@ATL@@@ATL@@QBEPAU__POSITION@@XZ 004645c0 f i Schema.obj
 0001:000635e0       ?GetNamedItemFromParent@CSchema@@QAEPAVCXSDElement@@ABV?$CStringT@_WV?$StrTraitATL@_WV?$ChTraitsCRT@_W@ATL@@@ATL@@@ATL@@0@Z 004645e0 f   Schema.obj
 0001:00063690       ?GetNext@?$CAtlList@PAVCSchema@@V?$CElementTraits@PAVCSchema@@@ATL@@@ATL@@QAEAAPAVCSchema@@AAPAU__POSITION@@@Z 00464690 f i Schema.obj
 0001:00063750       ?GetNext@?$CAtlList@PAVCWSDLType@@V?$CElementTraits@PAVCWSDLType@@@ATL@@@ATL@@QAEAAPAVCWSDLType@@AAPAU__POSITION@@@Z 00464750 f i Schema.obj
 0001:00063810       ?GetNextSchema@CWSDLType@@QAEPAVCSchema@@AAPAU__POSITION@@@Z 00464810 f i Schema.obj
 0001:00063840       ?GetNextType@CWSDLDocument@@QAEPAVCWSDLType@@AAPAU__POSITION@@@Z 00464840 f i Schema.obj
 0001:00063880       ?GetSimpleType@CWSDLDocument@@QAEPAVCSimpleType@@ABV?$CStringT@_WV?$StrTraitATL@_WV?$ChTraitsCRT@_W@ATL@@@ATL@@@ATL@@0@Z 00464880 f i Schema.obj
 0001:00063940       ?InitHashTable@?$CAtlMap@V?$CStringT@_WV?$StrTraitATL@_WV?$ChTraitsCRT@_W@ATL@@@ATL@@@ATL@@PAVCComplexType@@V?$CStringRefElementTraits@V?$CStringT@_WV?$StrTraitATL@_WV?$ChTraitsCRT@_W@ATL@@@ATL@@@ATL@@@2@V?$CElementTraits@PAVCComplexType@@@2@@ATL@@QAE_NI_N@Z 00464940 f i Schema.obj
 0001:00063b10       ?InitHashTable@?$CAtlMap@V?$CStringT@_WV?$StrTraitATL@_WV?$ChTraitsCRT@_W@ATL@@@ATL@@@ATL@@PAVCElement@@V?$CStringRefElementTraits@V?$CStringT@_WV?$StrTraitATL@_WV?$ChTraitsCRT@_W@ATL@@@ATL@@@ATL@@@2@V?$CElementTraits@PAVCElement@@@2@@ATL@@QAE_NI_N@Z 00464b10 f i Schema.obj
 0001:00063ce0       ?InitHashTable@?$CAtlMap@V?$CStringT@_WV?$StrTraitATL@_WV?$ChTraitsCRT@_W@ATL@@@ATL@@@ATL@@PAVCSimpleType@@V?$CStringRefElementTraits@V?$CStringT@_WV?$StrTraitATL@_WV?$ChTraitsCRT@_W@ATL@@@ATL@@@ATL@@@2@V?$CElementTraits@PAVCSimpleType@@@2@@ATL@@QAE_NI_N@Z 00464ce0 f i Schema.obj
 0001:00063eb0       ?IsLocked@?$CAtlMap@V?$CStringT@_WV?$StrTraitATL@_WV?$ChTraitsCRT@_W@ATL@@@ATL@@@ATL@@PAVCComplexType@@V?$CStringRefElementTraits@V?$CStringT@_WV?$StrTraitATL@_WV?$ChTraitsCRT@_W@ATL@@@ATL@@@ATL@@@2@V?$CElementTraits@PAVCComplexType@@@2@@ATL@@ABE_NXZ 00464eb0 f i Schema.obj
 0001:00063ef0       ?IsLocked@?$CAtlMap@V?$CStringT@_WV?$StrTraitATL@_WV?$ChTraitsCRT@_W@ATL@@@ATL@@@ATL@@PAVCElement@@V?$CStringRefElementTraits@V?$CStringT@_WV?$StrTraitATL@_WV?$ChTraitsCRT@_W@ATL@@@ATL@@@ATL@@@2@V?$CElementTraits@PAVCElement@@@2@@ATL@@ABE_NXZ 00464ef0 f i Schema.obj
 0001:00063f30       ?IsLocked@?$CAtlMap@V?$CStringT@_WV?$StrTraitATL@_WV?$ChTraitsCRT@_W@ATL@@@ATL@@@ATL@@PAVCSimpleType@@V?$CStringRefElementTraits@V?$CStringT@_WV?$StrTraitATL@_WV?$ChTraitsCRT@_W@ATL@@@ATL@@@ATL@@@2@V?$CElementTraits@PAVCSimpleType@@@2@@ATL@@ABE_NXZ 00464f30 f i Schema.obj
 0001:00063f70       ?NewNode@?$CAtlMap@V?$CStringT@_WV?$StrTraitATL@_WV?$ChTraitsCRT@_W@ATL@@@ATL@@@ATL@@PAVCComplexType@@V?$CStringRefElementTraits@V?$CStringT@_WV?$StrTraitATL@_WV?$ChTraitsCRT@_W@ATL@@@ATL@@@ATL@@@2@V?$CElementTraits@PAVCComplexType@@@2@@ATL@@AAEPAVCNode@12@ABV?$CStringT@_WV?$StrTraitATL@_WV?$ChTraitsCRT@_W@ATL@@@ATL@@@2@II@Z 00464f70 f i Schema.obj
 0001:00064240       ?NewNode@?$CAtlMap@V?$CStringT@_WV?$StrTraitATL@_WV?$ChTraitsCRT@_W@ATL@@@ATL@@@ATL@@PAVCElement@@V?$CStringRefElementTraits@V?$CStringT@_WV?$StrTraitATL@_WV?$ChTraitsCRT@_W@ATL@@@ATL@@@ATL@@@2@V?$CElementTraits@PAVCElement@@@2@@ATL@@AAEPAVCNode@12@ABV?$CStringT@_WV?$StrTraitATL@_WV?$ChTraitsCRT@_W@ATL@@@ATL@@@2@II@Z 00465240 f i Schema.obj
 0001:00064510       ?NewNode@?$CAtlMap@V?$CStringT@_WV?$StrTraitATL@_WV?$ChTraitsCRT@_W@ATL@@@ATL@@@ATL@@PAVCSimpleType@@V?$CStringRefElementTraits@V?$CStringT@_WV?$StrTraitATL@_WV?$ChTraitsCRT@_W@ATL@@@ATL@@@ATL@@@2@V?$CElementTraits@PAVCSimpleType@@@2@@ATL@@AAEPAVCNode@12@ABV?$CStringT@_WV?$StrTraitATL@_WV?$ChTraitsCRT@_W@ATL@@@ATL@@@2@II@Z 00465510 f i Schema.obj
 0001:000647e0       ?PickSize@?$CAtlMap@V?$CStringT@_WV?$StrTraitATL@_WV?$ChTraitsCRT@_W@ATL@@@ATL@@@ATL@@PAVCComplexType@@V?$CStringRefElementTraits@V?$CStringT@_WV?$StrTraitATL@_WV?$ChTraitsCRT@_W@ATL@@@ATL@@@ATL@@@2@V?$CElementTraits@PAVCComplexType@@@2@@ATL@@ABEII@Z 004657e0 f i Schema.obj
 0001:000648b0       ?PickSize@?$CAtlMap@V?$CStringT@_WV?$StrTraitATL@_WV?$ChTraitsCRT@_W@ATL@@@ATL@@@ATL@@PAVCElement@@V?$CStringRefElementTraits@V?$CStringT@_WV?$StrTraitATL@_WV?$ChTraitsCRT@_W@ATL@@@ATL@@@ATL@@@2@V?$CElementTraits@PAVCElement@@@2@@ATL@@ABEII@Z 004658b0 f i Schema.obj
 0001:00064980       ?PickSize@?$CAtlMap@V?$CStringT@_WV?$StrTraitATL@_WV?$ChTraitsCRT@_W@ATL@@@ATL@@@ATL@@PAVCSimpleType@@V?$CStringRefElementTraits@V?$CStringT@_WV?$StrTraitATL@_WV?$ChTraitsCRT@_W@ATL@@@ATL@@@ATL@@@2@V?$CElementTraits@PAVCSimpleType@@@2@@ATL@@ABEII@Z 00465980 f i Schema.obj
 0001:00064a50       ?Rehash@?$CAtlMap@V?$CStringT@_WV?$StrTraitATL@_WV?$ChTraitsCRT@_W@ATL@@@ATL@@@ATL@@PAVCComplexType@@V?$CStringRefElementTraits@V?$CStringT@_WV?$StrTraitATL@_WV?$ChTraitsCRT@_W@ATL@@@ATL@@@ATL@@@2@V?$CElementTraits@PAVCComplexType@@@2@@ATL@@QAEXI@Z 00465a50 f i Schema.obj
 0001:00064ca0       ?Rehash@?$CAtlMap@V?$CStringT@_WV?$StrTraitATL@_WV?$ChTraitsCRT@_W@ATL@@@ATL@@@ATL@@PAVCElement@@V?$CStringRefElementTraits@V?$CStringT@_WV?$StrTraitATL@_WV?$ChTraitsCRT@_W@ATL@@@ATL@@@ATL@@@2@V?$CElementTraits@PAVCElement@@@2@@ATL@@QAEXI@Z 00465ca0 f i Schema.obj
 0001:00064ef0       ?Rehash@?$CAtlMap@V?$CStringT@_WV?$StrTraitATL@_WV?$ChTraitsCRT@_W@ATL@@@ATL@@@ATL@@PAVCSimpleType@@V?$CStringRefElementTraits@V?$CStringT@_WV?$StrTraitATL@_WV?$ChTraitsCRT@_W@ATL@@@ATL@@@ATL@@@2@V?$CElementTraits@PAVCSimpleType@@@2@@ATL@@QAEXI@Z 00465ef0 f i Schema.obj
 0001:00065140       ?RemoveAtPos@?$CAtlMap@V?$CStringT@_WV?$StrTraitATL@_WV?$ChTraitsCRT@_W@ATL@@@ATL@@@ATL@@PAVCComplexType@@V?$CStringRefElementTraits@V?$CStringT@_WV?$StrTraitATL@_WV?$ChTraitsCRT@_W@ATL@@@ATL@@@ATL@@@2@V?$CElementTraits@PAVCComplexType@@@2@@ATL@@QAEXPAU__POSITION@@@Z 00466140 f i Schema.obj
 0001:000652e0       ?RemoveAtPos@?$CAtlMap@V?$CStringT@_WV?$StrTraitATL@_WV?$ChTraitsCRT@_W@ATL@@@ATL@@@ATL@@PAVCElement@@V?$CStringRefElementTraits@V?$CStringT@_WV?$StrTraitATL@_WV?$ChTraitsCRT@_W@ATL@@@ATL@@@ATL@@@2@V?$CElementTraits@PAVCElement@@@2@@ATL@@QAEXPAU__POSITION@@@Z 004662e0 f i Schema.obj
 0001:00065480       ?RemoveAtPos@?$CAtlMap@V?$CStringT@_WV?$StrTraitATL@_WV?$ChTraitsCRT@_W@ATL@@@ATL@@@ATL@@PAVCSimpleType@@V?$CStringRefElementTraits@V?$CStringT@_WV?$StrTraitATL@_WV?$ChTraitsCRT@_W@ATL@@@ATL@@@ATL@@@2@V?$CElementTraits@PAVCSimpleType@@@2@@ATL@@QAEXPAU__POSITION@@@Z 00466480 f i Schema.obj
 0001:00065620       ?RemoveNode@?$CAtlMap@V?$CStringT@_WV?$StrTraitATL@_WV?$ChTraitsCRT@_W@ATL@@@ATL@@@ATL@@PAVCComplexType@@V?$CStringRefElementTraits@V?$CStringT@_WV?$StrTraitATL@_WV?$ChTraitsCRT@_W@ATL@@@ATL@@@ATL@@@2@V?$CElementTraits@PAVCComplexType@@@2@@ATL@@AAEXPAVCNode@12@0@Z 00466620 f i Schema.obj
 0001:00065790       ?RemoveNode@?$CAtlMap@V?$CStringT@_WV?$StrTraitATL@_WV?$ChTraitsCRT@_W@ATL@@@ATL@@@ATL@@PAVCElement@@V?$CStringRefElementTraits@V?$CStringT@_WV?$StrTraitATL@_WV?$ChTraitsCRT@_W@ATL@@@ATL@@@ATL@@@2@V?$CElementTraits@PAVCElement@@@2@@ATL@@AAEXPAVCNode@12@0@Z 00466790 f i Schema.obj
 0001:00065900       ?RemoveNode@?$CAtlMap@V?$CStringT@_WV?$StrTraitATL@_WV?$ChTraitsCRT@_W@ATL@@@ATL@@@ATL@@PAVCSimpleType@@V?$CStringRefElementTraits@V?$CStringT@_WV?$StrTraitATL@_WV?$ChTraitsCRT@_W@ATL@@@ATL@@@ATL@@@2@V?$CElementTraits@PAVCSimpleType@@@2@@ATL@@AAEXPAVCNode@12@0@Z 00466900 f i Schema.obj
 0001:00065a70       ?SetAt@?$CAtlMap@V?$CStringT@_WV?$StrTraitATL@_WV?$ChTraitsCRT@_W@ATL@@@ATL@@@ATL@@PAVCComplexType@@V?$CStringRefElementTraits@V?$CStringT@_WV?$StrTraitATL@_WV?$ChTraitsCRT@_W@ATL@@@ATL@@@ATL@@@2@V?$CElementTraits@PAVCComplexType@@@2@@ATL@@QAEPAU__POSITION@@ABV?$CStringT@_WV?$StrTraitATL@_WV?$ChTraitsCRT@_W@ATL@@@ATL@@@2@ABQAVCComplexType@@@Z 00466a70 f i Schema.obj
 0001:00065b70       ?SetAt@?$CAtlMap@V?$CStringT@_WV?$StrTraitATL@_WV?$ChTraitsCRT@_W@ATL@@@ATL@@@ATL@@PAVCElement@@V?$CStringRefElementTraits@V?$CStringT@_WV?$StrTraitATL@_WV?$ChTraitsCRT@_W@ATL@@@ATL@@@ATL@@@2@V?$CElementTraits@PAVCElement@@@2@@ATL@@QAEPAU__POSITION@@ABV?$CStringT@_WV?$StrTraitATL@_WV?$ChTraitsCRT@_W@ATL@@@ATL@@@2@ABQAVCElement@@@Z 00466b70 f i Schema.obj
 0001:00065c70       ?SetAt@?$CAtlMap@V?$CStringT@_WV?$StrTraitATL@_WV?$ChTraitsCRT@_W@ATL@@@ATL@@@ATL@@PAVCSimpleType@@V?$CStringRefElementTraits@V?$CStringT@_WV?$StrTraitATL@_WV?$ChTraitsCRT@_W@ATL@@@ATL@@@ATL@@@2@V?$CElementTraits@PAVCSimpleType@@@2@@ATL@@QAEPAU__POSITION@@ABV?$CStringT@_WV?$StrTraitATL@_WV?$ChTraitsCRT@_W@ATL@@@ATL@@@2@ABQAVCSimpleType@@@Z 00466c70 f i Schema.obj
 0001:00065d70       ?UpdateRehashThresholds@?$CAtlMap@V?$CStringT@_WV?$StrTraitATL@_WV?$ChTraitsCRT@_W@ATL@@@ATL@@@ATL@@PAVCComplexType@@V?$CStringRefElementTraits@V?$CStringT@_WV?$StrTraitATL@_WV?$ChTraitsCRT@_W@ATL@@@ATL@@@ATL@@@2@V?$CElementTraits@PAVCComplexType@@@2@@ATL@@AAEXXZ 00466d70 f i Schema.obj
 0001:00065e30       ?UpdateRehashThresholds@?$CAtlMap@V?$CStringT@_WV?$StrTraitATL@_WV?$ChTraitsCRT@_W@ATL@@@ATL@@@ATL@@PAVCElement@@V?$CStringRefElementTraits@V?$CStringT@_WV?$StrTraitATL@_WV?$ChTraitsCRT@_W@ATL@@@ATL@@@ATL@@@2@V?$CElementTraits@PAVCElement@@@2@@ATL@@AAEXXZ 00466e30 f i Schema.obj
 0001:00065ef0       ?UpdateRehashThresholds@?$CAtlMap@V?$CStringT@_WV?$StrTraitATL@_WV?$ChTraitsCRT@_W@ATL@@@ATL@@@ATL@@PAVCSimpleType@@V?$CStringRefElementTraits@V?$CStringT@_WV?$StrTraitATL@_WV?$ChTraitsCRT@_W@ATL@@@ATL@@@ATL@@@2@V?$CElementTraits@PAVCSimpleType@@@2@@ATL@@AAEXXZ 00466ef0 f i Schema.obj
 0001:00066110       ??C?$CAutoPtr@VCComplexType@@@ATL@@QBEPAVCComplexType@@XZ 00467110 f i SchemaParser.obj
 0001:00066170       ??C?$CAutoPtr@VCElement@@@ATL@@QBEPAVCElement@@XZ 00467170 f i SchemaParser.obj
 0001:000661d0       ??C?$CAutoPtr@VCSimpleType@@@ATL@@QBEPAVCSimpleType@@XZ 004671d0 f i SchemaParser.obj
 0001:00066230       ?EmitNamedElementError@CSchemaParser@@QAEXPBD@Z 00467230 f   SchemaParser.obj
 0001:00066310       ?GetSchema@CSchemaParser@@QAEPAVCSchema@@XZ 00467310 f i SchemaParser.obj
 0001:00066330       ?MarkUnsupported@CSchemaParser@@QAEXPB_WH@Z 00467330 f i SchemaParser.obj
 0001:000663f0       ?OnAnnotation@CSchemaParser@@QAEJPB_WH0H0HPAUISAXAttributes@@@Z 004673f0 f   SchemaParser.obj
 0001:00066480       ?OnAttribute@CSchemaParser@@QAEJPB_WH0H0HPAUISAXAttributes@@@Z 00467480 f   SchemaParser.obj
 0001:00066510       ?OnAttributeFormDefault@CSchemaParser@@QAEJPB_WH0H0H0HPAUISAXAttributes@@@Z 00467510 f   SchemaParser.obj
 0001:00066570       ?OnAttributeGroup@CSchemaParser@@QAEJPB_WH0H0HPAUISAXAttributes@@@Z 00467570 f   SchemaParser.obj
 0001:00066600       ?OnBlockDefault@CSchemaParser@@QAEJPB_WH0H0H0HPAUISAXAttributes@@@Z 00467600 f   SchemaParser.obj
 0001:00066660       ?OnComplexType@CSchemaParser@@QAEJPB_WH0H0HPAUISAXAttributes@@@Z 00467660 f   SchemaParser.obj
 0001:00066960       ?OnElement@CSchemaParser@@QAEJPB_WH0H0HPAUISAXAttributes@@@Z 00467960 f   SchemaParser.obj
 0001:00066c60       ?OnElementFormDefault@CSchemaParser@@QAEJPB_WH0H0H0HPAUISAXAttributes@@@Z 00467c60 f   SchemaParser.obj
 0001:00066cc0       ?OnFinalDefault@CSchemaParser@@QAEJPB_WH0H0H0HPAUISAXAttributes@@@Z 00467cc0 f   SchemaParser.obj
 0001:00066d20       ?OnGroup@CSchemaParser@@QAEJPB_WH0H0HPAUISAXAttributes@@@Z 00467d20 f   SchemaParser.obj
 0001:00066db0       ?OnID@CSchemaParser@@QAEJPB_WH0H0H0HPAUISAXAttributes@@@Z 00467db0 f   SchemaParser.obj
 0001:00066e10       ?OnImport@CSchemaParser@@QAEJPB_WH0H0HPAUISAXAttributes@@@Z 00467e10 f   SchemaParser.obj
 0001:00066e80       ?OnInclude@CSchemaParser@@QAEJPB_WH0H0HPAUISAXAttributes@@@Z 00467e80 f   SchemaParser.obj
 0001:00066f10       ?OnName@CSchemaParser@@QAEJPB_WH0H0H0HPAUISAXAttributes@@@Z 00467f10 f   SchemaParser.obj
 0001:00066fb0       ?OnNotation@CSchemaParser@@QAEJPB_WH0H0HPAUISAXAttributes@@@Z 00467fb0 f   SchemaParser.obj
 0001:00067040       ?OnRedefine@CSchemaParser@@QAEJPB_WH0H0HPAUISAXAttributes@@@Z 00468040 f   SchemaParser.obj
 0001:000670d0       ?OnSimpleType@CSchemaParser@@QAEJPB_WH0H0HPAUISAXAttributes@@@Z 004680d0 f   SchemaParser.obj
 0001:000673d0       ?OnTargetNamespace@CSchemaParser@@QAEJPB_WH0H0H0HPAUISAXAttributes@@@Z 004683d0 f   SchemaParser.obj
 0001:00067470       ?OnVersion@CSchemaParser@@QAEJPB_WH0H0H0HPAUISAXAttributes@@@Z 00468470 f   SchemaParser.obj
 0001:000674d0       ?SetName@CSchema@@QAEJPB_WH@Z 004684d0 f i SchemaParser.obj
 0001:00067520       ?SetTargetNamespace@CSchema@@QAEJPB_WH@Z 00468520 f i SchemaParser.obj
 0001:00067570       ?startPrefixMapping@CSchemaParser@@UAGJPB_WH0H@Z 00468570 f   SchemaParser.obj
 0001:00067850       ??0CEnumeration@@QAE@ABV0@@Z 00468850 f i SimpleTypeParser.obj
 0001:00067880       ??0CEnumeration@@QAE@XZ    00468880 f i SimpleTypeParser.obj
 0001:000678b0       ??0CNode@?$CAtlList@VCEnumeration@@VCEnumerationElementTraits@@@ATL@@QAE@ABVCEnumeration@@@Z 004688b0 f i SimpleTypeParser.obj
 0001:000678e0       ?AddEnumeration@CSimpleType@@QAEPAVCEnumeration@@PAV2@@Z 004688e0 f i SimpleTypeParser.obj
 0001:000679c0       ?AddTail@?$CAtlList@VCEnumeration@@VCEnumerationElementTraits@@@ATL@@QAEPAU__POSITION@@ABVCEnumeration@@@Z 004689c0 f i SimpleTypeParser.obj
 0001:00067a30       ?GetAt@?$CAtlList@VCEnumeration@@VCEnumerationElementTraits@@@ATL@@QAEAAVCEnumeration@@PAU__POSITION@@@Z 00468a30 f i SimpleTypeParser.obj
 0001:00067ae0       ?GetEncodingAttribute@@YA?AW4ENCODING_TYPE@@PB_WH@Z 00468ae0 f i SimpleTypeParser.obj
 0001:00067b70       ?GetFreeNode@?$CAtlList@VCEnumeration@@VCEnumerationElementTraits@@@ATL@@AAEXXZ 00468b70 f i SimpleTypeParser.obj
 0001:00067c80       ?GetSimpleType@CSimpleTypeParser@@QAEPAVCSimpleType@@XZ 00468c80 f i SimpleTypeParser.obj
 0001:00067ca0       ?MarkUnsupported@CSimpleTypeParser@@QAEXPB_WH@Z 00468ca0 f i SimpleTypeParser.obj
 0001:00067d60       ?NewNode@?$CAtlList@VCEnumeration@@VCEnumerationElementTraits@@@ATL@@AAEPAVCNode@12@ABVCEnumeration@@PAV312@1@Z 00468d60 f i SimpleTypeParser.obj
 0001:00067ea0       ?OnAbstract@CSimpleTypeParser@@QAEJPB_WH0H0H0HPAUISAXAttributes@@@Z 00468ea0 f   SimpleTypeParser.obj
 0001:00067f00       ?OnAnnotation@CSimpleTypeParser@@QAEJPB_WH0H0HPAUISAXAttributes@@@Z 00468f00 f   SimpleTypeParser.obj
 0001:00067f90       ?OnDuration@CSimpleTypeParser@@QAEJPB_WH0H0HPAUISAXAttributes@@@Z 00468f90 f   SimpleTypeParser.obj
 0001:00068020       ?OnEncoding@CSimpleTypeParser@@QAEJPB_WH0H0HPAUISAXAttributes@@@Z 00469020 f   SimpleTypeParser.obj
 0001:00068140       ?OnEnumeration@CSimpleTypeParser@@QAEJPB_WH0H0HPAUISAXAttributes@@@Z 00469140 f   SimpleTypeParser.obj
 0001:000682d0       ?OnID@CSimpleTypeParser@@QAEJPB_WH0H0H0HPAUISAXAttributes@@@Z 004692d0 f   SimpleTypeParser.obj
 0001:00068330       ?OnLength@CSimpleTypeParser@@QAEJPB_WH0H0HPAUISAXAttributes@@@Z 00469330 f   SimpleTypeParser.obj
 0001:000683c0       ?OnMaxExclusive@CSimpleTypeParser@@QAEJPB_WH0H0HPAUISAXAttributes@@@Z 004693c0 f   SimpleTypeParser.obj
 0001:00068450       ?OnMaxInclusive@CSimpleTypeParser@@QAEJPB_WH0H0HPAUISAXAttributes@@@Z 00469450 f   SimpleTypeParser.obj
 0001:000684e0       ?OnMaxLength@CSimpleTypeParser@@QAEJPB_WH0H0HPAUISAXAttributes@@@Z 004694e0 f   SimpleTypeParser.obj
 0001:00068570       ?OnMinExclusive@CSimpleTypeParser@@QAEJPB_WH0H0HPAUISAXAttributes@@@Z 00469570 f   SimpleTypeParser.obj
 0001:00068600       ?OnMinInclusive@CSimpleTypeParser@@QAEJPB_WH0H0HPAUISAXAttributes@@@Z 00469600 f   SimpleTypeParser.obj
 0001:00068690       ?OnMinLength@CSimpleTypeParser@@QAEJPB_WH0H0HPAUISAXAttributes@@@Z 00469690 f   SimpleTypeParser.obj
 0001:00068720       ?OnName@CSimpleTypeParser@@QAEJPB_WH0H0H0HPAUISAXAttributes@@@Z 00469720 f   SimpleTypeParser.obj
 0001:000687b0       ?OnPattern@CSimpleTypeParser@@QAEJPB_WH0H0HPAUISAXAttributes@@@Z 004697b0 f   SimpleTypeParser.obj
 0001:00068840       ?OnPeriod@CSimpleTypeParser@@QAEJPB_WH0H0HPAUISAXAttributes@@@Z 00469840 f   SimpleTypeParser.obj
 0001:000688d0       ?OnPrecision@CSimpleTypeParser@@QAEJPB_WH0H0HPAUISAXAttributes@@@Z 004698d0 f   SimpleTypeParser.obj
 0001:00068960       ?OnRestriction@CSimpleTypeParser@@QAEJPB_WH0H0HPAUISAXAttributes@@@Z 00469960 f   SimpleTypeParser.obj
 0001:00068a80       ?OnScale@CSimpleTypeParser@@QAEJPB_WH0H0HPAUISAXAttributes@@@Z 00469a80 f   SimpleTypeParser.obj
 0001:00068b10       ?SetBase@CSimpleType@@QAEJPB_WH@Z 00469b10 f i SimpleTypeParser.obj
 0001:00068b50       ?SetEncodingType@CSimpleType@@QAEJPB_WH@Z 00469b50 f i SimpleTypeParser.obj
 0001:00068bb0       ?SetName@CSimpleType@@QAEJPB_WH@Z 00469bb0 f i SimpleTypeParser.obj
 0001:00068c00       ?SetValue@CEnumeration@@QAEJABV?$CStringT@_WV?$StrTraitATL@_WV?$ChTraitsCRT@_W@ATL@@@ATL@@@ATL@@@Z 00469c00 f i SimpleTypeParser.obj
 0001:00068c30       ?startPrefixMapping@CSimpleTypeParser@@UAGJPB_WH0H@Z 00469c30 f   SimpleTypeParser.obj
 0001:00068f10       ??$AtlAssertValidObject@V?$CAtlArray@PAXV?$CElementTraits@PAX@ATL@@@ATL@@@ATL@@YAXPBV?$CAtlArray@PAXV?$CElementTraits@PAX@ATL@@@0@@Z 00469f10 f i sproxy.obj
 0001:00068fc0       ??0?$CAtlArray@PAXV?$CElementTraits@PAX@ATL@@@ATL@@QAE@XZ 00469fc0 f i sproxy.obj
 0001:00069010       ??0?$CAtlList@PAVCCodeElementContainer@@V?$CElementTraits@PAVCCodeElementContainer@@@ATL@@@ATL@@QAE@I@Z 0046a010 f i sproxy.obj
 0001:000690b0       ??0?$CAtlMap@PAVCComplexType@@HV?$CXSDElementPtrTraits@VCComplexType@@@@V?$CElementTraits@H@ATL@@@ATL@@QAE@IMMMI@Z 0046a0b0 f i sproxy.obj
 0001:00069210       ??0?$CAtlMap@PAVCComplexType@@PAVCCodeElementContainer@@V?$CXSDElementPtrTraits@VCComplexType@@@@V?$CElementTraits@PAVCCodeElementContainer@@@ATL@@@ATL@@QAE@IMMMI@Z 0046a210 f i sproxy.obj
 0001:00069370       ??0?$CAtlMap@PAVCComplexType@@VCCodeTypedElement@@V?$CXSDElementPtrTraits@VCComplexType@@@@V?$CElementTraits@VCCodeTypedElement@@@ATL@@@ATL@@QAE@IMMMI@Z 0046a370 f i sproxy.obj
 0001:000694d0       ??0?$CAtlMap@PAVCSimpleType@@PAVCCodeElementContainer@@V?$CXSDElementPtrTraits@VCSimpleType@@@@V?$CElementTraits@PAVCCodeElementContainer@@@ATL@@@ATL@@QAE@IMMMI@Z 0046a4d0 f i sproxy.obj
 0001:00069630       ??0?$CAtlMap@PAVCSimpleType@@VCCodeTypedElement@@V?$CXSDElementPtrTraits@VCSimpleType@@@@V?$CElementTraits@VCCodeTypedElement@@@ATL@@@ATL@@QAE@IMMMI@Z 0046a630 f i sproxy.obj
 0001:00069790       ??0?$CAtlMap@PAVCWSDLMessagePart@@PAVCCodeTypedElement@@V?$CElementTraits@PAVCWSDLMessagePart@@@ATL@@V?$CElementTraits@PAVCCodeTypedElement@@@4@@ATL@@QAE@IMMMI@Z 0046a790 f i sproxy.obj
 0001:000698f0       ??0?$CAtlMap@PAVCXSDElement@@PAVCCodeTypedElement@@V?$CElementTraits@PAVCXSDElement@@@ATL@@V?$CElementTraits@PAVCCodeTypedElement@@@4@@ATL@@QAE@IMMMI@Z 0046a8f0 f i sproxy.obj
 0001:00069a50       ??0?$CAtlPtrList@PAVCCodeElementContainer@@V?$CElementTraits@PAVCCodeElementContainer@@@ATL@@@@QAE@XZ 0046aa50 f i sproxy.obj
 0001:00069a90       ??0?$CAtlPtrMap@PAVCComplexType@@PAVCCodeElementContainer@@V?$CXSDElementPtrTraits@VCComplexType@@@@V?$CElementTraits@PAVCCodeElementContainer@@@ATL@@@@QAE@XZ 0046aa90 f i sproxy.obj
 0001:00069b00       ??0?$CAtlPtrMap@PAVCSimpleType@@PAVCCodeElementContainer@@V?$CXSDElementPtrTraits@VCSimpleType@@@@V?$CElementTraits@PAVCCodeElementContainer@@@ATL@@@@QAE@XZ 0046ab00 f i sproxy.obj
 0001:00069b70       ??0?$CAutoPtr@VCDiscoMapParser@@@ATL@@QAE@XZ 0046ab70 f i sproxy.obj
 0001:00069ba0       ??0?$CComObjectStack@VCCppCodeGenerator@@@ATL@@QAE@PAX@Z 0046aba0 f i sproxy.obj
 0001:00069c60       ??0?$CSimpleStringT@_W$0A@@ATL@@QAE@PB_WHPAUIAtlStringMgr@1@@Z 0046ac60 f i sproxy.obj
 0001:00069d80       ??0?$CStringT@_WV?$StrTraitATL@_WV?$ChTraitsCRT@_W@ATL@@@ATL@@@ATL@@QAE@PB_WHPAUIAtlStringMgr@1@@Z 0046ad80 f i sproxy.obj
 0001:00069dc0       ??0?$ITagReplacerImpl@VCCppCodeGenerator@@@ATL@@QAE@XZ 0046adc0 f i sproxy.obj
 0001:00069e00       ??0CCodeProxy@@QAE@XZ      0046ae00 f i sproxy.obj
 0001:00069ef0       ??0CCodeTypeBuilder@@QAE@PAVCWSDLDocument@@PAVCCodeProxy@@@Z 0046aef0 f i sproxy.obj
 0001:0006a170       ??0CCppCodeGenerator@@QAE@PAVCCodeProxy@@@Z 0046b170 f i sproxy.obj
 0001:0006a270       ??0CDebugReportHook@ATL@@QAE@PBD0K@Z 0046b270 f i sproxy.obj
 0001:0006a2e0       ??0CErrorHandler@@QAE@XZ   0046b2e0 f i sproxy.obj
 0001:0006a320       ??0CHandle@ATL@@QAE@XZ     0046b320 f i sproxy.obj
 0001:0006a350       ??0CReportHookDumpHandler@ATL@@QAE@XZ 0046b350 f i sproxy.obj
 0001:0006a390       ??0CRevertThreadToken@ATL@@QAE@XZ 0046b390 f i sproxy.obj
 0001:0006a3c0       ??0CWriteStreamHelper@ATL@@QAE@XZ 0046b3c0 f i sproxy.obj
 0001:0006a400       ??0ISAXErrorHandler@@QAE@XZ 0046b400 f i sproxy.obj
 0001:0006a430       ??0_AtlThreadContextInfo@ATL@@QAE@PAUIStackDumpHandler@1@@Z 0046b430 f i sproxy.obj
 0001:0006a490       ??1?$CAtlArray@PAXV?$CElementTraits@PAX@ATL@@@ATL@@QAE@XZ 0046b490 f i sproxy.obj
 0001:0006a4e0       ??1?$CAtlList@PAVCCodeElementContainer@@V?$CElementTraits@PAVCCodeElementContainer@@@ATL@@@ATL@@QAE@XZ 0046b4e0 f i sproxy.obj
 0001:0006a550       ??1?$CAtlMap@PAVCComplexType@@HV?$CXSDElementPtrTraits@VCComplexType@@@@V?$CElementTraits@H@ATL@@@ATL@@QAE@XZ 0046b550 f i sproxy.obj
 0001:0006a610       ??1?$CAtlMap@PAVCComplexType@@PAVCCodeElementContainer@@V?$CXSDElementPtrTraits@VCComplexType@@@@V?$CElementTraits@PAVCCodeElementContainer@@@ATL@@@ATL@@QAE@XZ 0046b610 f i sproxy.obj
 0001:0006a6d0       ??1?$CAtlMap@PAVCComplexType@@VCCodeTypedElement@@V?$CXSDElementPtrTraits@VCComplexType@@@@V?$CElementTraits@VCCodeTypedElement@@@ATL@@@ATL@@QAE@XZ 0046b6d0 f i sproxy.obj
 0001:0006a790       ??1?$CAtlMap@PAVCSimpleType@@PAVCCodeElementContainer@@V?$CXSDElementPtrTraits@VCSimpleType@@@@V?$CElementTraits@PAVCCodeElementContainer@@@ATL@@@ATL@@QAE@XZ 0046b790 f i sproxy.obj
 0001:0006a850       ??1?$CAtlMap@PAVCSimpleType@@VCCodeTypedElement@@V?$CXSDElementPtrTraits@VCSimpleType@@@@V?$CElementTraits@VCCodeTypedElement@@@ATL@@@ATL@@QAE@XZ 0046b850 f i sproxy.obj
 0001:0006a910       ??1?$CAtlMap@PAVCWSDLMessagePart@@PAVCCodeTypedElement@@V?$CElementTraits@PAVCWSDLMessagePart@@@ATL@@V?$CElementTraits@PAVCCodeTypedElement@@@4@@ATL@@QAE@XZ 0046b910 f i sproxy.obj
 0001:0006a9d0       ??1?$CAtlMap@PAVCXSDElement@@PAVCCodeTypedElement@@V?$CElementTraits@PAVCXSDElement@@@ATL@@V?$CElementTraits@PAVCCodeTypedElement@@@4@@ATL@@QAE@XZ 0046b9d0 f i sproxy.obj
 0001:0006aa90       ??1?$CAtlPtrList@PAVCCodeElementContainer@@V?$CElementTraits@PAVCCodeElementContainer@@@ATL@@@@QAE@XZ 0046ba90 f i sproxy.obj
 0001:0006aaf0       ??1?$CAtlPtrMap@PAVCComplexType@@PAVCCodeElementContainer@@V?$CXSDElementPtrTraits@VCComplexType@@@@V?$CElementTraits@PAVCCodeElementContainer@@@ATL@@@@QAE@XZ 0046baf0 f i sproxy.obj
 0001:0006ab50       ??1?$CAtlPtrMap@PAVCSimpleType@@PAVCCodeElementContainer@@V?$CXSDElementPtrTraits@VCSimpleType@@@@V?$CElementTraits@PAVCCodeElementContainer@@@ATL@@@@QAE@XZ 0046bb50 f i sproxy.obj
 0001:0006abb0       ??1?$CAutoPtr@VCDiscoMapParser@@@ATL@@QAE@XZ 0046bbb0 f i sproxy.obj
 0001:0006abe0       ??1?$CAutoPtr@VCWSDLDocument@@@ATL@@QAE@XZ 0046bbe0 f i sproxy.obj
 0001:0006ac10       ??1?$CComObjectStack@VCCppCodeGenerator@@@ATL@@UAE@XZ 0046bc10 f i sproxy.obj
 0001:0006ac80       ??1CCodeProxy@@QAE@XZ      0046bc80 f i sproxy.obj
 0001:0006ad10       ??1CCodeTypeBuilder@@QAE@XZ 0046bd10 f i sproxy.obj
 0001:0006adc0       ??1CCppCodeGenerator@@QAE@XZ 0046bdc0 f i sproxy.obj
 0001:0006adf0       ??1CDebugReportHook@ATL@@QAE@XZ 0046bdf0 f i sproxy.obj
 0001:0006ae20       ??1CErrorHandler@@UAE@XZ   0046be20 f i sproxy.obj
 0001:0006ae50       ??1CHandle@ATL@@QAE@XZ     0046be50 f i sproxy.obj
 0001:0006ae80       ??1CRevertThreadToken@ATL@@QAE@XZ 0046be80 f i sproxy.obj
 0001:0006aeb0       ??1CWSDLParser@@UAE@XZ     0046beb0 f i sproxy.obj
 0001:0006aef0       ??1_AtlThreadContextInfo@ATL@@QAE@XZ 0046bef0 f i sproxy.obj
 0001:0006af20       ??A?$CAtlArray@PAXV?$CElementTraits@PAX@ATL@@@ATL@@QAEAAPAXI@Z 0046bf20 f i sproxy.obj
 0001:0006afa0       ??B?$CAutoPtr@VCDiscoMapParser@@@ATL@@QBEPAVCDiscoMapParser@@XZ 0046bfa0 f i sproxy.obj
 0001:0006afc0       ??B?$CAutoPtr@VCWSDLDocument@@@ATL@@QBEPAVCWSDLDocument@@XZ 0046bfc0 f i sproxy.obj
 0001:0006afe0       ??BCHandle@ATL@@QBEPAXXZ   0046bfe0 f i sproxy.obj
 0001:0006b000       ??C?$CAutoPtr@VCDiscoMapParser@@@ATL@@QBEPAVCDiscoMapParser@@XZ 0046c000 f i sproxy.obj
 0001:0006b060       ??I?$CComPtrBase@UISAXXMLReader@@@ATL@@QAEPAPAUISAXXMLReader@@XZ 0046c060 f i sproxy.obj
 0001:0006b0c0       ??I?$CHeapPtrBase@DVCCRTAllocator@ATL@@@ATL@@QAEPAPADXZ 0046c0c0 f i sproxy.obj
 0001:0006b120       ??Y?$CSimpleStringT@D$0A@@ATL@@QAEAAV01@D@Z 0046c120 f i sproxy.obj
 0001:0006b150       ??Y?$CSimpleStringT@D$0A@@ATL@@QAEAAV01@PBD@Z 0046c150 f i sproxy.obj
 0001:0006b180       ??Y?$CStringT@DV?$StrTraitATL@DV?$ChTraitsCRT@D@ATL@@@ATL@@@ATL@@QAEAAV01@D@Z 0046c180 f i sproxy.obj
 0001:0006b1b0       ??Y?$CStringT@DV?$StrTraitATL@DV?$ChTraitsCRT@D@ATL@@@ATL@@@ATL@@QAEAAV01@PBD@Z 0046c1b0 f i sproxy.obj
 0001:0006b1e0       ??_E?$CComObjectStack@VCCppCodeGenerator@@@ATL@@UAEPAXI@Z 0046c1e0 f i sproxy.obj
 0001:0006b1e0       ??_G?$CComObjectStack@VCCppCodeGenerator@@@ATL@@UAEPAXI@Z 0046c1e0 f i sproxy.obj
 0001:0006b230       ??_ECErrorHandler@@UAEPAXI@Z 0046c230 f i sproxy.obj
 0001:0006b230       ??_GCErrorHandler@@UAEPAXI@Z 0046c230 f i sproxy.obj
 0001:0006b280       ?Add@?$CAtlArray@PAXV?$CElementTraits@PAX@ATL@@@ATL@@QAEIPAX@Z 0046c280 f i sproxy.obj
 0001:0006b340       ?AddRef@?$CComObjectStack@VCCppCodeGenerator@@@ATL@@UAGKXZ 0046c340 f i sproxy.obj
 0001:0006b390       ?AppendChar@?$CSimpleStringT@D$0A@@ATL@@QAEXD@Z 0046c390 f i sproxy.obj
 0001:0006b400       ?AssertValid@?$CAtlArray@PAXV?$CElementTraits@PAX@ATL@@@ATL@@QBEXXZ 0046c400 f i sproxy.obj
 0001:0006b540       ?AtlDumpStack@ATL@@YAXPAUIStackDumpHandler@1@@Z 0046c540 f i sproxy.obj
 0001:0006b5e0       ?AtlEscapeUrl@ATL@@YAHPBDPADPAKKK@Z 0046c5e0 f i sproxy.obj
 0001:0006bcd0       ?AtlEscapeUrl@ATL@@YAHPB_WPA_WPAKKK@Z 0046ccd0 f i sproxy.obj
 0001:0006c1b0       ?AtlEscapeUrlMetaHelper@ATL@@YAHPAPADPBDK0PAKKK@Z 0046d1b0 f i sproxy.obj
 0001:0006c590       ?AtlHexValue@ATL@@YAFD@Z   0046d590 f i sproxy.obj
 0001:0006c620       ?AtlIsUnsafeUrlChar@ATL@@YAHD@Z 0046d620 f i sproxy.obj
 0001:0006c720       ?AtlUnicodeToUTF8@ATL@@YAHPB_WHPADH@Z 0046d720 f i sproxy.obj
 0001:0006c760       ?Attach@?$CAutoPtr@VCDiscoMapParser@@@ATL@@QAEXPAVCDiscoMapParser@@@Z 0046d760 f i sproxy.obj
 0001:0006c7d0       ?Attach@CHandle@ATL@@QAEXPAX@Z 0046d7d0 f i sproxy.obj
 0001:0006c840       ?CDebugReportHookProc@CDebugReportHook@ATL@@SAHHPADPAH@Z 0046d840 f i sproxy.obj
 0001:0006ce90       ?CallConstructors@?$CAtlArray@PAXV?$CElementTraits@PAX@ATL@@@ATL@@CAXPAPAXI@Z 0046de90 f i sproxy.obj
 0001:0006cf70       ?CallDestructors@?$CAtlArray@PAXV?$CElementTraits@PAX@ATL@@@ATL@@CAXPAPAXI@Z 0046df70 f i sproxy.obj
 0001:0006cfb0       ?CheckRepl@?$CTagReplacerMethodsEx@VCCppCodeGenerator@@X@ATL@@SAP8CCppCodeGenerator@@AEKPAX@ZP83@AEKXZ@Z 0046dfb0 f i sproxy.obj
 0001:0006cfd0       ?Close@CHandle@ATL@@QAEXXZ 0046dfd0 f i sproxy.obj
 0001:0006d010       ?ContextThreadProc@_AtlThreadContextInfo@ATL@@SGKPAX@Z 0046e010 f i sproxy.obj
 0001:0006d040       ?Detach@?$CAutoPtr@VCWSDLDocument@@@ATL@@QAEPAVCWSDLDocument@@XZ 0046e040 f i sproxy.obj
 0001:0006d070       ?DisableAutoRehash@?$CAtlMap@PAVCComplexType@@HV?$CXSDElementPtrTraits@VCComplexType@@@@V?$CElementTraits@H@ATL@@@ATL@@QAEXXZ 0046e070 f i sproxy.obj
 0001:0006d0a0       ?DisableAutoRehash@?$CAtlMap@PAVCComplexType@@VCCodeTypedElement@@V?$CXSDElementPtrTraits@VCComplexType@@@@V?$CElementTraits@VCCodeTypedElement@@@ATL@@@ATL@@QAEXXZ 0046e0a0 f i sproxy.obj
 0001:0006d0d0       ?DisableAutoRehash@?$CAtlMap@PAVCSimpleType@@VCCodeTypedElement@@V?$CXSDElementPtrTraits@VCSimpleType@@@@V?$CElementTraits@VCCodeTypedElement@@@ATL@@@ATL@@QAEXXZ 0046e0d0 f i sproxy.obj
 0001:0006d100       ?DisableAutoRehash@?$CAtlMap@PAVCWSDLMessagePart@@PAVCCodeTypedElement@@V?$CElementTraits@PAVCWSDLMessagePart@@@ATL@@V?$CElementTraits@PAVCCodeTypedElement@@@4@@ATL@@QAEXXZ 0046e100 f i sproxy.obj
 0001:0006d130       ?DoDumpStack@_AtlThreadContextInfo@ATL@@QAEKXZ 0046e130 f i sproxy.obj
 0001:0006d4a0       ?DumpStack@_AtlThreadContextInfo@ATL@@QAEJXZ 0046e4a0 f i sproxy.obj
 0001:0006d570       ?DuplicateEnvString@@YAHPAPADPAIPBD@Z 0046e570 f i sproxy.obj
 0001:0006d680       ?EnableAutoRehash@?$CAtlMap@PAVCComplexType@@HV?$CXSDElementPtrTraits@VCComplexType@@@@V?$CElementTraits@H@ATL@@@ATL@@QAEXXZ 0046e680 f i sproxy.obj
 0001:0006d6f0       ?EnableAutoRehash@?$CAtlMap@PAVCComplexType@@VCCodeTypedElement@@V?$CXSDElementPtrTraits@VCComplexType@@@@V?$CElementTraits@VCCodeTypedElement@@@ATL@@@ATL@@QAEXXZ 0046e6f0 f i sproxy.obj
 0001:0006d760       ?EnableAutoRehash@?$CAtlMap@PAVCSimpleType@@VCCodeTypedElement@@V?$CXSDElementPtrTraits@VCSimpleType@@@@V?$CElementTraits@VCCodeTypedElement@@@ATL@@@ATL@@QAEXXZ 0046e760 f i sproxy.obj
 0001:0006d7d0       ?EnableAutoRehash@?$CAtlMap@PAVCWSDLMessagePart@@PAVCCodeTypedElement@@V?$CElementTraits@PAVCWSDLMessagePart@@@ATL@@V?$CElementTraits@PAVCCodeTypedElement@@@4@@ATL@@QAEXXZ 0046e7d0 f i sproxy.obj
 0001:0006d840       ?Find@?$CStringT@_WV?$StrTraitATL@_WV?$ChTraitsCRT@_W@ATL@@@ATL@@@ATL@@QBEHPB_WH@Z 0046e840 f i sproxy.obj
 0001:0006d960       ?FindReplacementOffset@?$ITagReplacerImpl@VCCppCodeGenerator@@@ATL@@UAEKPBDPAK011PAPAXPAUIAtlMemMgr@2@@Z 0046e960 f i sproxy.obj
 0001:0006e160       ?FindReplacementOffsetInMap@?$ITagReplacerImpl@VCCppCodeGenerator@@@ATL@@QAEKPBDPAKPBU?$CTagReplacerMethodEntry@VCCppCodeGenerator@@@2@@Z 0046f160 f i sproxy.obj
 0001:0006e250       ?Free@?$CAutoPtr@VCDiscoMapParser@@@ATL@@QAEXXZ 0046f250 f i sproxy.obj
 0001:0006e2b0       ?Free@?$CAutoPtr@VCWSDLDocument@@@ATL@@QAEXXZ 0046f2b0 f i sproxy.obj
 0001:0006e310       ?FunctionTableAccess@CStackDumper@ATL@@SGPAXPAXK@Z 0046f310 f i sproxy.obj
 0001:0006e340       ?GetAttrReplacementMethodMap@?$ITagReplacerImpl@VCCppCodeGenerator@@@ATL@@QBEXPAPBU?$CTagReplacerMethodEntry@VCCppCodeGenerator@@@2@@Z 0046f340 f i sproxy.obj
 0001:0006e370       ?GetContext@?$ITagReplacerImpl@VCCppCodeGenerator@@@ATL@@UAEJABU_GUID@@PAPAX@Z 0046f370 f i sproxy.obj
 0001:0006e390       ?GetCount@?$CAtlArray@PAXV?$CElementTraits@PAX@ATL@@@ATL@@QBEIXZ 0046f390 f i sproxy.obj
 0001:0006e3b0       ?GetDiscoMapDocument@@YAPAVCDiscoMapDocument@@XZ 0046f3b0 f   sproxy.obj
 0001:0006e3d0       ?GetHandlerOffset@?$ITagReplacerImpl@VCCppCodeGenerator@@@ATL@@QAEKPBDPAK@Z 0046f3d0 f i sproxy.obj
 0001:0006e410       ?GetModuleBase@CStackDumper@ATL@@SGKPAXK@Z 0046f410 f i sproxy.obj
 0001:0006e670       ?GetOption@@YAKPA_W@Z      0046f670 f   sproxy.obj
 0001:0006e730       ?GetReplacementMethodMap@CCppCodeGenerator@@QBEXPAPBU?$CTagReplacerMethodEntry@VCCppCodeGenerator@@@ATL@@@Z 0046f730 f i sproxy.obj
 0001:00073470       ?GetReplacementObject@?$ITagReplacerImpl@VCCppCodeGenerator@@@ATL@@QAEKKPAPAUITagReplacer@2@@Z 00474470 f i sproxy.obj
 0001:000734b0       ?GetResourceInstance@?$ITagReplacerImpl@VCCppCodeGenerator@@@ATL@@UAEPAUHINSTANCE__@@XZ 004744b0 f i sproxy.obj
 0001:000734e0       ?GetStackDump@CReportHookDumpHandler@ATL@@QAEXPAV?$CStringT@DV?$StrTraitATL@DV?$ChTraitsCRT@D@ATL@@@ATL@@@2@@Z 004744e0 f i sproxy.obj
 0001:00073560       ?GetUserDefaultUILanguageLegacyCompat@@YAJPAG@Z 00474560 f   sproxy.obj
 0001:000737c0       ?GetValueAt@?$CAtlMap@PAVCSimpleType@@PAVCCodeElementContainer@@V?$CXSDElementPtrTraits@VCSimpleType@@@@V?$CElementTraits@PAVCCodeElementContainer@@@ATL@@@ATL@@QAEAAPAVCCodeElementContainer@@PAU__POSITION@@@Z 004747c0 f i sproxy.obj
 0001:00073870       ?GetWSDLDocument@CWSDLParser@@QAEPAVCWSDLDocument@@H@Z 00474870 f i sproxy.obj
 0001:000738d0       ?GetWSDLFile@@YAPB_WXZ     004748d0 f   sproxy.obj
 0001:000738f0       ?GrowBuffer@?$CAtlArray@PAXV?$CElementTraits@PAX@ATL@@@ATL@@AAE_NI@Z 004748f0 f i sproxy.obj
 0001:00073aa0       ?Initialize@CCodeTypeBuilder@@QAEJPAVCWSDLDocument@@PAVCCodeProxy@@@Z 00474aa0 f i sproxy.obj
 0001:00073af0       ?Initialize@CRevertThreadToken@ATL@@QAEHXZ 00474af0 f i sproxy.obj
 0001:00073b70       ?InterlockedExchangePointer@@YGPAXPAPAXPAX@Z 00474b70 f i sproxy.obj
 0001:00073b90       ?IsEmpty@?$CSimpleStringT@D$0A@@ATL@@QBE_NXZ 00474b90 f i sproxy.obj
 0001:00073bd0       ?Left@?$CStringT@_WV?$StrTraitATL@_WV?$ChTraitsCRT@_W@ATL@@@ATL@@@ATL@@QBE?AV12@H@Z 00474bd0 f i sproxy.obj
 0001:00073c70       ?LoadLocResDll@@YAPAUHINSTANCE__@@PBDHKPADI@Z 00474c70 f   sproxy.obj
 0001:00073e30       ?LoadSearchPath@@YAPAUHINSTANCE__@@PBDPADI@Z 00474e30 f   sproxy.obj
 0001:00074040       ?LoadUILibrary@@YAJPBD0KPAPAUHINSTANCE__@@PADIPAK@Z 00475040 f   sproxy.obj
 0001:00074ae0       ?MakeLower@?$CStringT@_WV?$StrTraitATL@_WV?$ChTraitsCRT@_W@ATL@@@ATL@@@ATL@@QAEAAV12@XZ 00475ae0 f i sproxy.obj
 0001:00074b50       ?OnBegin@CReportHookDumpHandler@ATL@@UAGXXZ 00475b50 f i sproxy.obj
 0001:00074b70       ?OnEnd@CReportHookDumpHandler@ATL@@UAGXXZ 00475b70 f i sproxy.obj
 0001:00074b90       ?OnEntry@CReportHookDumpHandler@ATL@@UAGXPAXPBD1@Z 00475b90 f i sproxy.obj
 0001:00074d30       ?OnError@CReportHookDumpHandler@ATL@@UAGXPBD@Z 00475d30 f i sproxy.obj
 0001:00074d50       ?ParseCommandLine@@YAXHQAPA_WAAV?$CStringT@_WV?$StrTraitATL@_WV?$ChTraitsCRT@_W@ATL@@@ATL@@@ATL@@H@Z 00475d50 f   sproxy.obj
 0001:00074e50       ?PreProcessCommandLine@@YAXHQAPA_WAAV?$CStringT@_WV?$StrTraitATL@_WV?$ChTraitsCRT@_W@ATL@@@ATL@@@ATL@@AAV?$CStringT@DV?$StrTraitATL@DV?$ChTraitsCRT@D@ATL@@@ATL@@@2@PA_KPAH@Z 00475e50 f   sproxy.obj
 0001:00074f80       ?Preallocate@?$CSimpleStringT@_W$0A@@ATL@@QAEXH@Z 00475f80 f i sproxy.obj
 0001:00074fb0       ?PrintGenerateFailure@@YAHPB_W@Z 00475fb0 f   sproxy.obj
 0001:00075000       ?PrintHeader@@YAXXZ        00476000 f   sproxy.obj
 0001:00075020       ?PrintUsage@@YAH_N@Z       00476020 f   sproxy.obj
 0001:00075070       ?QueryInterface@?$CComObjectStack@VCCppCodeGenerator@@@ATL@@UAGJABU_GUID@@PAPAX@Z 00476070 f i sproxy.obj
 0001:000750d0       ?Release@?$CComObjectStack@VCCppCodeGenerator@@@ATL@@UAGKXZ 004760d0 f i sproxy.obj
 0001:00075120       ?RelocateElements@?$CElementTraitsBase@PAX@ATL@@SAXPAPAX0I@Z 00476120 f i sproxy.obj
 0001:00075160       ?RemoveAll@?$CAtlMap@PAVCComplexType@@HV?$CXSDElementPtrTraits@VCComplexType@@@@V?$CElementTraits@H@ATL@@@ATL@@QAEXXZ 00476160 f i sproxy.obj
 0001:00075270       ?RemoveAll@?$CAtlMap@PAVCComplexType@@PAVCCodeElementContainer@@V?$CXSDElementPtrTraits@VCComplexType@@@@V?$CElementTraits@PAVCCodeElementContainer@@@ATL@@@ATL@@QAEXXZ 00476270 f i sproxy.obj
 0001:00075380       ?RemoveAll@?$CAtlMap@PAVCComplexType@@VCCodeTypedElement@@V?$CXSDElementPtrTraits@VCComplexType@@@@V?$CElementTraits@VCCodeTypedElement@@@ATL@@@ATL@@QAEXXZ 00476380 f i sproxy.obj
 0001:00075490       ?RemoveAll@?$CAtlMap@PAVCSimpleType@@PAVCCodeElementContainer@@V?$CXSDElementPtrTraits@VCSimpleType@@@@V?$CElementTraits@PAVCCodeElementContainer@@@ATL@@@ATL@@QAEXXZ 00476490 f i sproxy.obj
 0001:000755a0       ?RemoveAll@?$CAtlMap@PAVCSimpleType@@VCCodeTypedElement@@V?$CXSDElementPtrTraits@VCSimpleType@@@@V?$CElementTraits@VCCodeTypedElement@@@ATL@@@ATL@@QAEXXZ 004765a0 f i sproxy.obj
 0001:000756b0       ?RemoveAll@?$CAtlMap@PAVCWSDLMessagePart@@PAVCCodeTypedElement@@V?$CElementTraits@PAVCWSDLMessagePart@@@ATL@@V?$CElementTraits@PAVCCodeTypedElement@@@4@@ATL@@QAEXXZ 004766b0 f i sproxy.obj
 0001:000757c0       ?RemoveAll@?$CAtlMap@PAVCXSDElement@@PAVCCodeTypedElement@@V?$CElementTraits@PAVCXSDElement@@@ATL@@V?$CElementTraits@PAVCCodeTypedElement@@@4@@ATL@@QAEXXZ 004767c0 f i sproxy.obj
 0001:000758d0       ?RemoveAll@?$CAtlPtrList@PAVCCodeElementContainer@@V?$CElementTraits@PAVCCodeElementContainer@@@ATL@@@@QAEXXZ 004768d0 f i sproxy.obj
 0001:00075980       ?RemoveAll@?$CAtlPtrMap@PAVCComplexType@@PAVCCodeElementContainer@@V?$CXSDElementPtrTraits@VCComplexType@@@@V?$CElementTraits@PAVCCodeElementContainer@@@ATL@@@@QAEXXZ 00476980 f i sproxy.obj
 0001:00075a40       ?RemoveAll@?$CAtlPtrMap@PAVCSimpleType@@PAVCCodeElementContainer@@V?$CXSDElementPtrTraits@VCSimpleType@@@@V?$CElementTraits@PAVCCodeElementContainer@@@ATL@@@@QAEXXZ 00476a40 f i sproxy.obj
 0001:00075b00       ?RemoveHook@CDebugReportHook@ATL@@QAEXXZ 00476b00 f i sproxy.obj
 0001:00075b60       ?RenderReplacement@?$ITagReplacerImpl@VCCppCodeGenerator@@@ATL@@UAEKKKKPAX@Z 00476b60 f i sproxy.obj
 0001:00075fb0       ?ResolveSymbol@CStackDumper@ATL@@SAHPAXIAAU_ATL_SYMBOL_INFO@12@@Z 00476fb0 f i sproxy.obj
 0001:00076350       ?Restore@CRevertThreadToken@ATL@@QAEKXZ 00477350 f i sproxy.obj
 0001:000763c0       ?SetCount@?$CAtlArray@PAXV?$CElementTraits@PAX@ATL@@@ATL@@QAE_NIH@Z 004773c0 f i sproxy.obj
 0001:00076590       ?SetDocumentUri@CXMLDocument@@QAEJPB_WH@Z 00477590 f i sproxy.obj
 0001:000765e0       ?SetDynamicAlloc@CParserBase@@QAEXH@Z 004775e0 f i sproxy.obj
 0001:00076610       ?SetHook@CDebugReportHook@ATL@@QAEXXZ 00477610 f i sproxy.obj
 0001:00076670       ?SetLocation@CErrorHandler@@QAEXPB_W@Z 00477670 f i sproxy.obj
 0001:000766a0       ?SetOptimalLoad@?$CAtlMap@PAVCComplexType@@HV?$CXSDElementPtrTraits@VCComplexType@@@@V?$CElementTraits@H@ATL@@@ATL@@QAEXMMM_N@Z 004776a0 f i sproxy.obj
 0001:00076810       ?SetOptimalLoad@?$CAtlMap@PAVCComplexType@@PAVCCodeElementContainer@@V?$CXSDElementPtrTraits@VCComplexType@@@@V?$CElementTraits@PAVCCodeElementContainer@@@ATL@@@ATL@@QAEXMMM_N@Z 00477810 f i sproxy.obj
 0001:00076980       ?SetOptimalLoad@?$CAtlMap@PAVCComplexType@@VCCodeTypedElement@@V?$CXSDElementPtrTraits@VCComplexType@@@@V?$CElementTraits@VCCodeTypedElement@@@ATL@@@ATL@@QAEXMMM_N@Z 00477980 f i sproxy.obj
 0001:00076af0       ?SetOptimalLoad@?$CAtlMap@PAVCSimpleType@@PAVCCodeElementContainer@@V?$CXSDElementPtrTraits@VCSimpleType@@@@V?$CElementTraits@PAVCCodeElementContainer@@@ATL@@@ATL@@QAEXMMM_N@Z 00477af0 f i sproxy.obj
 0001:00076c60       ?SetOptimalLoad@?$CAtlMap@PAVCSimpleType@@VCCodeTypedElement@@V?$CXSDElementPtrTraits@VCSimpleType@@@@V?$CElementTraits@VCCodeTypedElement@@@ATL@@@ATL@@QAEXMMM_N@Z 00477c60 f i sproxy.obj
 0001:00076dd0       ?SetOptimalLoad@?$CAtlMap@PAVCWSDLMessagePart@@PAVCCodeTypedElement@@V?$CElementTraits@PAVCWSDLMessagePart@@@ATL@@V?$CElementTraits@PAVCCodeTypedElement@@@4@@ATL@@QAEXMMM_N@Z 00477dd0 f i sproxy.obj
 0001:00076f40       ?SetOptimalLoad@?$CAtlMap@PAVCXSDElement@@PAVCCodeTypedElement@@V?$CElementTraits@PAVCXSDElement@@@ATL@@V?$CElementTraits@PAVCCodeTypedElement@@@4@@ATL@@QAEXMMM_N@Z 00477f40 f i sproxy.obj
 0001:000770b0       ?SetPipeName@CDebugReportHook@ATL@@QAEHPBD0@Z 004780b0 f i sproxy.obj
 0001:00077110       ?SetResourceInstance@CAtlBaseModule@ATL@@QAEPAUHINSTANCE__@@PAU3@@Z 00478110 f i sproxy.obj
 0001:00077140       ?SetStream@?$ITagReplacerImpl@VCCppCodeGenerator@@@ATL@@UAEPAUIWriteStream@2@PAU32@@Z 00478140 f i sproxy.obj
 0001:00077180       ?SetString@CReportHookDumpHandler@ATL@@QAEXPAV?$CStringT@DV?$StrTraitATL@DV?$ChTraitsCRT@D@ATL@@@ATL@@@2@@Z 00478180 f i sproxy.obj
 0001:000771b0       ?SetTimeout@CDebugReportHook@ATL@@QAEXK@Z 004781b0 f i sproxy.obj
 0001:000771e0       ?StringFindString@?$ChTraitsCRT@_W@ATL@@SAPB_WPB_W0@Z 004781e0 f i sproxy.obj
 0001:00077210       ?StringLowercase@?$ChTraitsCRT@_W@ATL@@SAPA_WPA_WI@Z 00478210 f i sproxy.obj
 0001:000772a0       ?sproxy@@YAHXZ             004782a0 f   sproxy.obj
 0001:00078fc0       ?strlwr_s@Checked@ATL@@YAXPADI@Z 00479fc0 f i sproxy.obj
 0001:00079000       ?strncpy_s@Checked@ATL@@YAHPADIPBDI@Z 0047a000 f i sproxy.obj
 0001:00079040       ?ultoa_s@Checked@ATL@@YAXKPADIH@Z 0047a040 f i sproxy.obj
 0001:00079080       ___local_stdio_scanf_options 0047a080 f i sproxy.obj
 0001:000790a0       __tcscmp                   0047a0a0 f i sproxy.obj
 0001:000790d0       __tcsncat_s                0047a0d0 f i sproxy.obj
 0001:00079110       __tcsncpy_s                0047a110 f i sproxy.obj
 0001:00079150       __vsscanf_s_l              0047a150 f i sproxy.obj
 0001:000791a0       _main                      0047a1a0 f   sproxy.obj
 0001:00079530       _sprintf_s                 0047a530 f i sproxy.obj
 0001:00079590       _sscanf_s                  0047a590 f i sproxy.obj
 0001:000795e0       _vsscanf_s                 0047a5e0 f i sproxy.obj
 0001:00079610       ?AllocateNameString@@YAIPAPADPBD@Z 0047a610 f   Util.obj
 0001:000796e0       ?AllocateNameString@@YAIPAPADPB_W@Z 0047a6e0 f   Util.obj
 0001:000797b0       ?CreateSafeCppName@@YAJAAV?$CStringT@DV?$StrTraitATL@DV?$ChTraitsCRT@D@ATL@@@ATL@@@ATL@@PBD@Z 0047a7b0 f   Util.obj
 0001:00079900       ?CreateSafeCppName@@YAJAAV?$CStringT@DV?$StrTraitATL@DV?$ChTraitsCRT@D@ATL@@@ATL@@@ATL@@PB_W@Z 0047a900 f   Util.obj
 0001:00079a50       ?CreateSafeCppName@@YAJPAPADPBD@Z 0047aa50 f   Util.obj
 0001:00079bd0       ?CreateSafeCppName@@YAJPAPADPB_W@Z 0047abd0 f   Util.obj
 0001:00079d50       ?GetAttribute@@YAJPAUISAXAttributes@@PB_WHAAV?$CStringT@_WV?$StrTraitATL@_WV?$ChTraitsCRT@_W@ATL@@@ATL@@@ATL@@PA_WH@Z 0047ad50 f   Util.obj
 0001:00079e50       ?GetAttribute@@YAJPAUISAXAttributes@@PB_WHPAPB_WPAHPA_WH@Z 0047ae50 f   Util.obj
 0001:00079f40       ?Hash@CCppKeywordLookup@@SAKPB_W@Z 0047af40 f i Util.obj
 0001:00079fa0       ?IsUnsafeCppChar@@YAHD@Z   0047afa0 f i Util.obj
 0001:00079ff0       ?Lookup@CCppKeywordLookup@@SAPBUHashNode@1@PB_W@Z 0047aff0 f i Util.obj
 0001:0007a0c0       ?ReleaseBuffer@?$CSimpleStringT@D$0A@@ATL@@QAEXH@Z 0047b0c0 f i Util.obj
 0001:0007a120       ?_CreateSafeCppName@@YAXPADPBDPB_WI@Z 0047b120 f   Util.obj
 0001:0007a570       ?GetHash@CNode@?$CAtlMap@V?$CStringT@_WV?$StrTraitATL@_WV?$ChTraitsCRT@_W@ATL@@@ATL@@@ATL@@PAVCWSDLPortType@@V?$CStringRefElementTraits@V?$CStringT@_WV?$StrTraitATL@_WV?$ChTraitsCRT@_W@ATL@@@ATL@@@ATL@@@2@V?$CElementTraits@PAVCWSDLPortType@@@2@@ATL@@QBEIXZ 0047b570 f i WSDLBinding.obj
 0001:0007a590       ?GetNode@?$CAtlMap@V?$CStringT@_WV?$StrTraitATL@_WV?$ChTraitsCRT@_W@ATL@@@ATL@@@ATL@@PAVCWSDLPortType@@V?$CStringRefElementTraits@V?$CStringT@_WV?$StrTraitATL@_WV?$ChTraitsCRT@_W@ATL@@@ATL@@@ATL@@@2@V?$CElementTraits@PAVCWSDLPortType@@@2@@ATL@@ABEPAVCNode@12@ABV?$CStringT@_WV?$StrTraitATL@_WV?$ChTraitsCRT@_W@ATL@@@ATL@@@2@AAI1AAPAV312@@Z 0047b590 f i WSDLBinding.obj
 0001:0007a670       ?GetPortType@CWSDLBinding@@QAEPAVCWSDLPortType@@XZ 0047b670 f   WSDLBinding.obj
 0001:0007a820       ?GetPortType@CWSDLDocument@@QAEPAVCWSDLPortType@@ABV?$CStringT@_WV?$StrTraitATL@_WV?$ChTraitsCRT@_W@ATL@@@ATL@@@ATL@@@Z 0047b820 f i WSDLBinding.obj
 0001:0007a870       ?Lookup@?$CAtlMap@V?$CStringT@_WV?$StrTraitATL@_WV?$ChTraitsCRT@_W@ATL@@@ATL@@@ATL@@PAVCWSDLPortType@@V?$CStringRefElementTraits@V?$CStringT@_WV?$StrTraitATL@_WV?$ChTraitsCRT@_W@ATL@@@ATL@@@ATL@@@2@V?$CElementTraits@PAVCWSDLPortType@@@2@@ATL@@QAEPAVCPair@12@ABV?$CStringT@_WV?$StrTraitATL@_WV?$ChTraitsCRT@_W@ATL@@@ATL@@@2@@Z 0047b870 f i WSDLBinding.obj
 0001:0007a8b0       ??0?$CAtlList@PAVCWSDLPortTypeIO@@V?$CElementTraits@PAVCWSDLPortTypeIO@@@ATL@@@ATL@@QAE@I@Z 0047b8b0 f i WSDLBindingParser.obj
 0001:0007a950       ??0?$CAtlPtrList@PAVCWSDLPortTypeIO@@V?$CElementTraits@PAVCWSDLPortTypeIO@@@ATL@@@@QAE@XZ 0047b950 f i WSDLBindingParser.obj
 0001:0007a990       ??0?$CAutoPtr@VCHttpOperation@@@ATL@@QAE@XZ 0047b990 f i WSDLBindingParser.obj
 0001:0007a9c0       ??0?$CAutoPtr@VCSoapOperation@@@ATL@@QAE@XZ 0047b9c0 f i WSDLBindingParser.obj
 0001:0007a9f0       ??0?$CAutoPtr@VCWSDLOperationParser@@@ATL@@QAE@PAVCWSDLOperationParser@@@Z 0047b9f0 f i WSDLBindingParser.obj
 0001:0007aa20       ??0?$CAutoPtr@VCWSDLPortTypeIO@@@ATL@@QAE@XZ 0047ba20 f i WSDLBindingParser.obj
 0001:0007aa50       ??0?$CAutoPtr@VCWSDLPortTypeOperation@@@ATL@@QAE@XZ 0047ba50 f i WSDLBindingParser.obj
 0001:0007aa80       ??0CHttpBinding@@QAE@XZ    0047ba80 f i WSDLBindingParser.obj
 0001:0007aad0       ??0CNode@?$CAtlMap@V?$CStringT@_WV?$StrTraitATL@_WV?$ChTraitsCRT@_W@ATL@@@ATL@@@ATL@@PAVCWSDLPortTypeOperation@@V?$CStringRefElementTraits@V?$CStringT@_WV?$StrTraitATL@_WV?$ChTraitsCRT@_W@ATL@@@ATL@@@ATL@@@2@V?$CElementTraits@PAVCWSDLPortTypeOperation@@@2@@ATL@@QAE@ABV?$CStringT@_WV?$StrTraitATL@_WV?$ChTraitsCRT@_W@ATL@@@ATL@@@2@I@Z 0047bad0 f i WSDLBindingParser.obj
 0001:0007ab10       ??0CPair@?$CAtlMap@V?$CStringT@_WV?$StrTraitATL@_WV?$ChTraitsCRT@_W@ATL@@@ATL@@@ATL@@PAVCWSDLPortTypeOperation@@V?$CStringRefElementTraits@V?$CStringT@_WV?$StrTraitATL@_WV?$ChTraitsCRT@_W@ATL@@@ATL@@@ATL@@@2@V?$CElementTraits@PAVCWSDLPortTypeOperation@@@2@@ATL@@IAE@ABV?$CStringT@_WV?$StrTraitATL@_WV?$ChTraitsCRT@_W@ATL@@@ATL@@@2@@Z 0047bb10 f i WSDLBindingParser.obj
 0001:0007ab40       ??0CSoapBinding@@QAE@XZ    0047bb40 f i WSDLBindingParser.obj
 0001:0007ab90       ??0CWSDLOperationParser@@QAE@PAUISAXXMLReader@@PAVCParserBase@@KPAVCWSDLPortTypeOperation@@@Z 0047bb90 f i WSDLBindingParser.obj
 0001:0007abe0       ??0CWSDLPortTypeOperation@@QAE@XZ 0047bbe0 f i WSDLBindingParser.obj
 0001:0007acf0       ??1?$CAtlList@PAVCWSDLPortTypeIO@@V?$CElementTraits@PAVCWSDLPortTypeIO@@@ATL@@@ATL@@QAE@XZ 0047bcf0 f i WSDLBindingParser.obj
 0001:0007ad60       ??1?$CAtlPtrList@PAVCWSDLPortTypeIO@@V?$CElementTraits@PAVCWSDLPortTypeIO@@@ATL@@@@QAE@XZ 0047bd60 f i WSDLBindingParser.obj
 0001:0007adc0       ??1?$CAutoPtr@VCHttpOperation@@@ATL@@QAE@XZ 0047bdc0 f i WSDLBindingParser.obj
 0001:0007adf0       ??1?$CAutoPtr@VCSoapOperation@@@ATL@@QAE@XZ 0047bdf0 f i WSDLBindingParser.obj
 0001:0007ae20       ??1?$CAutoPtr@VCWSDLOperationParser@@@ATL@@QAE@XZ 0047be20 f i WSDLBindingParser.obj
 0001:0007ae50       ??1?$CAutoPtr@VCWSDLPortTypeIO@@@ATL@@QAE@XZ 0047be50 f i WSDLBindingParser.obj
 0001:0007ae80       ??1?$CAutoPtr@VCWSDLPortTypeOperation@@@ATL@@QAE@XZ 0047be80 f i WSDLBindingParser.obj
 0001:0007aeb0       ??1CHttpBinding@@UAE@XZ    0047beb0 f i WSDLBindingParser.obj
 0001:0007aee0       ??1CHttpOperation@@QAE@XZ  0047bee0 f i WSDLBindingParser.obj
 0001:0007af10       ??1CNode@?$CAtlList@PAVCWSDLPortTypeIO@@V?$CElementTraits@PAVCWSDLPortTypeIO@@@ATL@@@ATL@@QAE@XZ 0047bf10 f i WSDLBindingParser.obj
 0001:0007af30       ??1CNode@?$CAtlMap@V?$CStringT@_WV?$StrTraitATL@_WV?$ChTraitsCRT@_W@ATL@@@ATL@@@ATL@@PAVCWSDLPortTypeOperation@@V?$CStringRefElementTraits@V?$CStringT@_WV?$StrTraitATL@_WV?$ChTraitsCRT@_W@ATL@@@ATL@@@ATL@@@2@V?$CElementTraits@PAVCWSDLPortTypeOperation@@@2@@ATL@@QAE@XZ 0047bf30 f i WSDLBindingParser.obj
 0001:0007af60       ??1CPair@?$CAtlMap@V?$CStringT@_WV?$StrTraitATL@_WV?$ChTraitsCRT@_W@ATL@@@ATL@@@ATL@@PAVCWSDLPortTypeOperation@@V?$CStringRefElementTraits@V?$CStringT@_WV?$StrTraitATL@_WV?$ChTraitsCRT@_W@ATL@@@ATL@@@ATL@@@2@V?$CElementTraits@PAVCWSDLPortTypeOperation@@@2@@ATL@@QAE@XZ 0047bf60 f i WSDLBindingParser.obj
 0001:0007af90       ??1CSoapBinding@@UAE@XZ    0047bf90 f i WSDLBindingParser.obj
 0001:0007afc0       ??1CSoapOperation@@QAE@XZ  0047bfc0 f i WSDLBindingParser.obj
 0001:0007aff0       ??1CWSDLOperationParser@@UAE@XZ 0047bff0 f i WSDLBindingParser.obj
 0001:0007b020       ??1CWSDLPortTypeOperation@@UAE@XZ 0047c020 f i WSDLBindingParser.obj
 0001:0007b0b0       ??B?$CAutoPtr@VCHttpBinding@@@ATL@@QBEPAVCHttpBinding@@XZ 0047c0b0 f i WSDLBindingParser.obj
 0001:0007b0d0       ??B?$CAutoPtr@VCWSDLOperationParser@@@ATL@@QBEPAVCWSDLOperationParser@@XZ 0047c0d0 f i WSDLBindingParser.obj
 0001:0007b0f0       ??B?$CAutoPtr@VCWSDLPortTypeOperation@@@ATL@@QBEPAVCWSDLPortTypeOperation@@XZ 0047c0f0 f i WSDLBindingParser.obj
 0001:0007b110       ??_ECHttpBinding@@UAEPAXI@Z 0047c110 f i WSDLBindingParser.obj
 0001:0007b110       ??_GCHttpBinding@@UAEPAXI@Z 0047c110 f i WSDLBindingParser.obj
 0001:0007b160       ??_GCHttpOperation@@QAEPAXI@Z 0047c160 f i WSDLBindingParser.obj
 0001:0007b1b0       ??_GCNode@?$CAtlList@PAVCWSDLPortTypeIO@@V?$CElementTraits@PAVCWSDLPortTypeIO@@@ATL@@@ATL@@QAEPAXI@Z 0047c1b0 f i WSDLBindingParser.obj
 0001:0007b200       ??_GCNode@?$CAtlMap@V?$CStringT@_WV?$StrTraitATL@_WV?$ChTraitsCRT@_W@ATL@@@ATL@@@ATL@@PAVCWSDLPortTypeOperation@@V?$CStringRefElementTraits@V?$CStringT@_WV?$StrTraitATL@_WV?$ChTraitsCRT@_W@ATL@@@ATL@@@ATL@@@2@V?$CElementTraits@PAVCWSDLPortTypeOperation@@@2@@ATL@@QAEPAXI@Z 0047c200 f i WSDLBindingParser.obj
 0001:0007b250       ??_GCSoapBinding@@UAEPAXI@Z 0047c250 f i WSDLBindingParser.obj
 0001:0007b250       ??_ECSoapBinding@@UAEPAXI@Z 0047c250 f i WSDLBindingParser.obj
 0001:0007b2a0       ??_GCSoapOperation@@QAEPAXI@Z 0047c2a0 f i WSDLBindingParser.obj
 0001:0007b2f0       ??_ECWSDLOperationParser@@UAEPAXI@Z 0047c2f0 f i WSDLBindingParser.obj
 0001:0007b2f0       ??_GCWSDLOperationParser@@UAEPAXI@Z 0047c2f0 f i WSDLBindingParser.obj
 0001:0007b340       ??_GCWSDLPortTypeOperation@@UAEPAXI@Z 0047c340 f i WSDLBindingParser.obj
 0001:0007b340       ??_ECWSDLPortTypeOperation@@UAEPAXI@Z 0047c340 f i WSDLBindingParser.obj
 0001:0007b390       ?AddHttpBinding@CWSDLBinding@@QAEPAVCHttpBinding@@PAV2@@Z 0047c390 f i WSDLBindingParser.obj
 0001:0007b460       ?AddOperation@CWSDLBinding@@QAEPAVCWSDLPortTypeOperation@@PAV2@@Z 0047c460 f i WSDLBindingParser.obj
 0001:0007b4e0       ?AddSoapBinding@CWSDLBinding@@QAEPAVCSoapBinding@@PAV2@@Z 0047c4e0 f i WSDLBindingParser.obj
 0001:0007b5b0       ?Attach@?$CAutoPtr@VCHttpBinding@@@ATL@@QAEXPAVCHttpBinding@@@Z 0047c5b0 f i WSDLBindingParser.obj
 0001:0007b620       ?Attach@?$CAutoPtr@VCSoapBinding@@@ATL@@QAEXPAVCSoapBinding@@@Z 0047c620 f i WSDLBindingParser.obj
 0001:0007b690       ?Attach@?$CAutoPtr@VCWSDLPortTypeOperation@@@ATL@@QAEXPAVCWSDLPortTypeOperation@@@Z 0047c690 f i WSDLBindingParser.obj
 0001:0007b700       ?CreateNode@?$CAtlMap@V?$CStringT@_WV?$StrTraitATL@_WV?$ChTraitsCRT@_W@ATL@@@ATL@@@ATL@@PAVCWSDLPortTypeOperation@@V?$CStringRefElementTraits@V?$CStringT@_WV?$StrTraitATL@_WV?$ChTraitsCRT@_W@ATL@@@ATL@@@ATL@@@2@V?$CElementTraits@PAVCWSDLPortTypeOperation@@@2@@ATL@@AAEPAVCNode@12@ABV?$CStringT@_WV?$StrTraitATL@_WV?$ChTraitsCRT@_W@ATL@@@ATL@@@2@II@Z 0047c700 f i WSDLBindingParser.obj
 0001:0007b780       ?Detach@?$CAutoPtr@VCWSDLOperationParser@@@ATL@@QAEPAVCWSDLOperationParser@@XZ 0047c780 f i WSDLBindingParser.obj
 0001:0007b7b0       ?Detach@?$CAutoPtr@VCWSDLPortTypeOperation@@@ATL@@QAEPAVCWSDLPortTypeOperation@@XZ 0047c7b0 f i WSDLBindingParser.obj
 0001:0007b7e0       ?Free@?$CAutoPtr@VCHttpOperation@@@ATL@@QAEXXZ 0047c7e0 f i WSDLBindingParser.obj
 0001:0007b840       ?Free@?$CAutoPtr@VCSoapOperation@@@ATL@@QAEXXZ 0047c840 f i WSDLBindingParser.obj
 0001:0007b8a0       ?Free@?$CAutoPtr@VCWSDLOperationParser@@@ATL@@QAEXXZ 0047c8a0 f i WSDLBindingParser.obj
 0001:0007b900       ?Free@?$CAutoPtr@VCWSDLPortTypeIO@@@ATL@@QAEXXZ 0047c900 f i WSDLBindingParser.obj
 0001:0007b960       ?Free@?$CAutoPtr@VCWSDLPortTypeOperation@@@ATL@@QAEXXZ 0047c960 f i WSDLBindingParser.obj
 0001:0007b9c0       ?FreeNode@?$CAtlList@PAVCWSDLPortTypeIO@@V?$CElementTraits@PAVCWSDLPortTypeIO@@@ATL@@@ATL@@AAEXPAVCNode@12@@Z 0047c9c0 f i WSDLBindingParser.obj
 0001:0007ba70       ?FreeNode@?$CAtlMap@V?$CStringT@_WV?$StrTraitATL@_WV?$ChTraitsCRT@_W@ATL@@@ATL@@@ATL@@PAVCWSDLPortTypeOperation@@V?$CStringRefElementTraits@V?$CStringT@_WV?$StrTraitATL@_WV?$ChTraitsCRT@_W@ATL@@@ATL@@@ATL@@@2@V?$CElementTraits@PAVCWSDLPortTypeOperation@@@2@@ATL@@AAEXPAVCNode@12@@Z 0047ca70 f i WSDLBindingParser.obj
 0001:0007bbe0       ?FreePlexes@?$CAtlMap@V?$CStringT@_WV?$StrTraitATL@_WV?$ChTraitsCRT@_W@ATL@@@ATL@@@ATL@@PAVCWSDLPortTypeOperation@@V?$CStringRefElementTraits@V?$CStringT@_WV?$StrTraitATL@_WV?$ChTraitsCRT@_W@ATL@@@ATL@@@ATL@@@2@V?$CElementTraits@PAVCWSDLPortTypeOperation@@@2@@ATL@@AAEXXZ 0047cbe0 f i WSDLBindingParser.obj
 0001:0007bc30       ?GetAt@?$CAtlList@PAVCWSDLPortTypeIO@@V?$CElementTraits@PAVCWSDLPortTypeIO@@@ATL@@@ATL@@QAEAAPAVCWSDLPortTypeIO@@PAU__POSITION@@@Z 0047cc30 f i WSDLBindingParser.obj
 0001:0007bce0       ?GetBinding@CWSDLBindingParser@@QAEPAVCWSDLBinding@@XZ 0047cce0 f i WSDLBindingParser.obj
 0001:0007bd00       ?GetHeadPosition@?$CAtlList@PAVCWSDLPortTypeIO@@V?$CElementTraits@PAVCWSDLPortTypeIO@@@ATL@@@ATL@@QBEPAU__POSITION@@XZ 0047cd00 f i WSDLBindingParser.obj
 0001:0007bd20       ?GetNext@?$CAtlList@PAVCWSDLPortTypeIO@@V?$CElementTraits@PAVCWSDLPortTypeIO@@@ATL@@@ATL@@QAEAAPAVCWSDLPortTypeIO@@AAPAU__POSITION@@@Z 0047cd20 f i WSDLBindingParser.obj
 0001:0007bde0       ?GetStyle@@YA?AW4SOAPSTYLE@@PB_WH@Z 0047cde0 f i WSDLBindingParser.obj
 0001:0007be60       ?GetXMLATTRMap@CWSDLOperationParser@@UAEPBUXMLTAG@@XZ 0047ce60 f i WSDLBindingParser.obj
 0001:0007bfb0       ?GetXMLTAGMap@CWSDLOperationParser@@UAEPBUXMLTAG@@XZ 0047cfb0 f i WSDLBindingParser.obj
 0001:0007c6c0       ?InitHashTable@?$CAtlMap@V?$CStringT@_WV?$StrTraitATL@_WV?$ChTraitsCRT@_W@ATL@@@ATL@@@ATL@@PAVCWSDLPortTypeOperation@@V?$CStringRefElementTraits@V?$CStringT@_WV?$StrTraitATL@_WV?$ChTraitsCRT@_W@ATL@@@ATL@@@ATL@@@2@V?$CElementTraits@PAVCWSDLPortTypeOperation@@@2@@ATL@@QAE_NI_N@Z 0047d6c0 f i WSDLBindingParser.obj
 0001:0007c890       ?IsLocked@?$CAtlMap@V?$CStringT@_WV?$StrTraitATL@_WV?$ChTraitsCRT@_W@ATL@@@ATL@@@ATL@@PAVCWSDLPortTypeOperation@@V?$CStringRefElementTraits@V?$CStringT@_WV?$StrTraitATL@_WV?$ChTraitsCRT@_W@ATL@@@ATL@@@ATL@@@2@V?$CElementTraits@PAVCWSDLPortTypeOperation@@@2@@ATL@@ABE_NXZ 0047d890 f i WSDLBindingParser.obj
 0001:0007c8d0       ?NewNode@?$CAtlMap@V?$CStringT@_WV?$StrTraitATL@_WV?$ChTraitsCRT@_W@ATL@@@ATL@@@ATL@@PAVCWSDLPortTypeOperation@@V?$CStringRefElementTraits@V?$CStringT@_WV?$StrTraitATL@_WV?$ChTraitsCRT@_W@ATL@@@ATL@@@ATL@@@2@V?$CElementTraits@PAVCWSDLPortTypeOperation@@@2@@ATL@@AAEPAVCNode@12@ABV?$CStringT@_WV?$StrTraitATL@_WV?$ChTraitsCRT@_W@ATL@@@ATL@@@2@II@Z 0047d8d0 f i WSDLBindingParser.obj
 0001:0007cba0       ?OnDocumentation@CWSDLBindingParser@@QAEJPB_WH0H0HPAUISAXAttributes@@@Z 0047dba0 f   WSDLBindingParser.obj
 0001:0007cc10       ?OnHttpBinding@CWSDLBindingParser@@QAEJPB_WH0H0HPAUISAXAttributes@@@Z 0047dc10 f   WSDLBindingParser.obj
 0001:0007cda0       ?OnName@CWSDLBindingParser@@QAEJPB_WH0H0H0HPAUISAXAttributes@@@Z 0047dda0 f   WSDLBindingParser.obj
 0001:0007ce40       ?OnOperation@CWSDLBindingParser@@QAEJPB_WH0H0HPAUISAXAttributes@@@Z 0047de40 f   WSDLBindingParser.obj
 0001:0007d0f0       ?OnSoapBinding@CWSDLBindingParser@@QAEJPB_WH0H0HPAUISAXAttributes@@@Z 0047e0f0 f   WSDLBindingParser.obj
 0001:0007d2f0       ?OnType@CWSDLBindingParser@@QAEJPB_WH0H0H0HPAUISAXAttributes@@@Z 0047e2f0 f   WSDLBindingParser.obj
 0001:0007d390       ?OnUnrecognizedTag@CWSDLBindingParser@@UAEJPB_WH0H0HPAUISAXAttributes@@@Z 0047e390 f   WSDLBindingParser.obj
 0001:0007d460       ?PickSize@?$CAtlMap@V?$CStringT@_WV?$StrTraitATL@_WV?$ChTraitsCRT@_W@ATL@@@ATL@@@ATL@@PAVCWSDLPortTypeOperation@@V?$CStringRefElementTraits@V?$CStringT@_WV?$StrTraitATL@_WV?$ChTraitsCRT@_W@ATL@@@ATL@@@ATL@@@2@V?$CElementTraits@PAVCWSDLPortTypeOperation@@@2@@ATL@@ABEII@Z 0047e460 f i WSDLBindingParser.obj
 0001:0007d530       ?Rehash@?$CAtlMap@V?$CStringT@_WV?$StrTraitATL@_WV?$ChTraitsCRT@_W@ATL@@@ATL@@@ATL@@PAVCWSDLPortTypeOperation@@V?$CStringRefElementTraits@V?$CStringT@_WV?$StrTraitATL@_WV?$ChTraitsCRT@_W@ATL@@@ATL@@@ATL@@@2@V?$CElementTraits@PAVCWSDLPortTypeOperation@@@2@@ATL@@QAEXI@Z 0047e530 f i WSDLBindingParser.obj
 0001:0007d780       ?RemoveAll@?$CAtlList@PAVCWSDLPortTypeIO@@V?$CElementTraits@PAVCWSDLPortTypeIO@@@ATL@@@ATL@@QAEXXZ 0047e780 f i WSDLBindingParser.obj
 0001:0007d8e0       ?RemoveAll@?$CAtlPtrList@PAVCWSDLPortTypeIO@@V?$CElementTraits@PAVCWSDLPortTypeIO@@@ATL@@@@QAEXXZ 0047e8e0 f i WSDLBindingParser.obj
 0001:0007d990       ?RemoveAtPos@?$CAtlMap@V?$CStringT@_WV?$StrTraitATL@_WV?$ChTraitsCRT@_W@ATL@@@ATL@@@ATL@@PAVCWSDLPortTypeOperation@@V?$CStringRefElementTraits@V?$CStringT@_WV?$StrTraitATL@_WV?$ChTraitsCRT@_W@ATL@@@ATL@@@ATL@@@2@V?$CElementTraits@PAVCWSDLPortTypeOperation@@@2@@ATL@@QAEXPAU__POSITION@@@Z 0047e990 f i WSDLBindingParser.obj
 0001:0007db30       ?RemoveNode@?$CAtlMap@V?$CStringT@_WV?$StrTraitATL@_WV?$ChTraitsCRT@_W@ATL@@@ATL@@@ATL@@PAVCWSDLPortTypeOperation@@V?$CStringRefElementTraits@V?$CStringT@_WV?$StrTraitATL@_WV?$ChTraitsCRT@_W@ATL@@@ATL@@@ATL@@@2@V?$CElementTraits@PAVCWSDLPortTypeOperation@@@2@@ATL@@AAEXPAVCNode@12@0@Z 0047eb30 f i WSDLBindingParser.obj
 0001:0007dca0       ?SetAt@?$CAtlMap@V?$CStringT@_WV?$StrTraitATL@_WV?$ChTraitsCRT@_W@ATL@@@ATL@@@ATL@@PAVCWSDLPortTypeOperation@@V?$CStringRefElementTraits@V?$CStringT@_WV?$StrTraitATL@_WV?$ChTraitsCRT@_W@ATL@@@ATL@@@ATL@@@2@V?$CElementTraits@PAVCWSDLPortTypeOperation@@@2@@ATL@@QAEPAU__POSITION@@ABV?$CStringT@_WV?$StrTraitATL@_WV?$ChTraitsCRT@_W@ATL@@@ATL@@@2@ABQAVCWSDLPortTypeOperation@@@Z 0047eca0 f i WSDLBindingParser.obj
 0001:0007dda0       ?SetName@CWSDLBinding@@QAEJPB_WH@Z 0047eda0 f i WSDLBindingParser.obj
 0001:0007ddf0       ?SetStyle@CSoapBinding@@QAEJPB_WH@Z 0047edf0 f i WSDLBindingParser.obj
 0001:0007de30       ?SetTransport@CSoapBinding@@QAEXABV?$CStringT@_WV?$StrTraitATL@_WV?$ChTraitsCRT@_W@ATL@@@ATL@@@ATL@@@Z 0047ee30 f i WSDLBindingParser.obj
 0001:0007de60       ?SetType@CWSDLBinding@@QAEJPB_WH@Z 0047ee60 f i WSDLBindingParser.obj
 0001:0007dea0       ?SetVerb@CHttpBinding@@QAEJABV?$CStringT@_WV?$StrTraitATL@_WV?$ChTraitsCRT@_W@ATL@@@ATL@@@ATL@@@Z 0047eea0 f i WSDLBindingParser.obj
 0001:0007ded0       ?SetXMLElementInfo@@YAXPAVCXMLElement@@0PAUISAXLocator@@@Z 0047eed0 f i WSDLBindingParser.obj
 0001:0007dfd0       ?UpdateRehashThresholds@?$CAtlMap@V?$CStringT@_WV?$StrTraitATL@_WV?$ChTraitsCRT@_W@ATL@@@ATL@@@ATL@@PAVCWSDLPortTypeOperation@@V?$CStringRefElementTraits@V?$CStringT@_WV?$StrTraitATL@_WV?$ChTraitsCRT@_W@ATL@@@ATL@@@ATL@@@2@V?$CElementTraits@PAVCWSDLPortTypeOperation@@@2@@ATL@@AAEXXZ 0047efd0 f i WSDLBindingParser.obj
 0001:0007e090       ?ValidateStyle@CSoapBinding@@AAEJPB_WH@Z 0047f090 f i WSDLBindingParser.obj
 0001:0007e0e0       ?startPrefixMapping@CWSDLBindingParser@@UAGJPB_WH0H@Z 0047f0e0 f   WSDLBindingParser.obj
 0001:0007e3c0       ??0?$CAutoPtr@VCWSDLMessagePart@@@ATL@@QAE@PAVCWSDLMessagePart@@@Z 0047f3c0 f i WSDLMessageParser.obj
 0001:0007e3f0       ??0CNode@?$CAtlList@PAVCWSDLMessagePart@@V?$CElementTraits@PAVCWSDLMessagePart@@@ATL@@@ATL@@QAE@ABQAVCWSDLMessagePart@@@Z 0047f3f0 f i WSDLMessageParser.obj
 0001:0007e420       ??0CWSDLMessagePart@@QAE@XZ 0047f420 f i WSDLMessageParser.obj
 0001:0007e4f0       ??1?$CAutoPtr@VCWSDLMessagePart@@@ATL@@QAE@XZ 0047f4f0 f i WSDLMessageParser.obj
 0001:0007e520       ??1CWSDLMessagePart@@UAE@XZ 0047f520 f i WSDLMessageParser.obj
 0001:0007e570       ??B?$CAutoPtr@VCWSDLMessagePart@@@ATL@@QBEPAVCWSDLMessagePart@@XZ 0047f570 f i WSDLMessageParser.obj
 0001:0007e590       ??_GCWSDLMessagePart@@UAEPAXI@Z 0047f590 f i WSDLMessageParser.obj
 0001:0007e590       ??_ECWSDLMessagePart@@UAEPAXI@Z 0047f590 f i WSDLMessageParser.obj
 0001:0007e5e0       ?AddPart@CWSDLMessage@@QAEPAVCWSDLMessagePart@@XZ 0047f5e0 f i WSDLMessageParser.obj
 0001:0007e720       ?AddTail@?$CAtlList@PAVCWSDLMessagePart@@V?$CElementTraits@PAVCWSDLMessagePart@@@ATL@@@ATL@@QAEPAU__POSITION@@ABQAVCWSDLMessagePart@@@Z 0047f720 f i WSDLMessageParser.obj
 0001:0007e790       ?Detach@?$CAutoPtr@VCWSDLMessagePart@@@ATL@@QAEPAVCWSDLMessagePart@@XZ 0047f790 f i WSDLMessageParser.obj
 0001:0007e7c0       ?Free@?$CAutoPtr@VCWSDLMessagePart@@@ATL@@QAEXXZ 0047f7c0 f i WSDLMessageParser.obj
 0001:0007e820       ?GetFreeNode@?$CAtlList@PAVCWSDLMessagePart@@V?$CElementTraits@PAVCWSDLMessagePart@@@ATL@@@ATL@@AAEXXZ 0047f820 f i WSDLMessageParser.obj
 0001:0007e930       ?GetMessageA@CWSDLMessageParser@@QAEPAVCWSDLMessage@@XZ 0047f930 f i WSDLMessageParser.obj
 0001:0007e950       ?NewNode@?$CAtlList@PAVCWSDLMessagePart@@V?$CElementTraits@PAVCWSDLMessagePart@@@ATL@@@ATL@@AAEPAVCNode@12@ABQAVCWSDLMessagePart@@PAV312@1@Z 0047f950 f i WSDLMessageParser.obj
 0001:0007ea90       ?OnDocumentation@CWSDLMessageParser@@QAEJPB_WH0H0HPAUISAXAttributes@@@Z 0047fa90 f   WSDLMessageParser.obj
 0001:0007eb00       ?OnName@CWSDLMessageParser@@QAEJPB_WH0H0H0HPAUISAXAttributes@@@Z 0047fb00 f   WSDLMessageParser.obj
 0001:0007eba0       ?OnPart@CWSDLMessageParser@@QAEJPB_WH0H0HPAUISAXAttributes@@@Z 0047fba0 f   WSDLMessageParser.obj
 0001:0007edf0       ?SetElement@CWSDLMessagePart@@QAEXABV?$CStringT@_WV?$StrTraitATL@_WV?$ChTraitsCRT@_W@ATL@@@ATL@@@ATL@@@Z 0047fdf0 f i WSDLMessageParser.obj
 0001:0007ee20       ?SetName@CWSDLMessage@@QAEJPB_WH@Z 0047fe20 f i WSDLMessageParser.obj
 0001:0007ee70       ?SetName@CWSDLMessagePart@@QAEXABV?$CStringT@_WV?$StrTraitATL@_WV?$ChTraitsCRT@_W@ATL@@@ATL@@@ATL@@@Z 0047fe70 f i WSDLMessageParser.obj
 0001:0007eea0       ?SetType@CWSDLMessagePart@@QAEXABV?$CStringT@_WV?$StrTraitATL@_WV?$ChTraitsCRT@_W@ATL@@@ATL@@@ATL@@@Z 0047fea0 f i WSDLMessageParser.obj
 0001:0007eed0       ?startPrefixMapping@CWSDLMessageParser@@UAGJPB_WH0H@Z 0047fed0 f   WSDLMessageParser.obj
 0001:0007f1b0       ?GetElement@CWSDLMessagePart@@QAEJPAPAVCElement@@@Z 004801b0 f   WSDLMessagePart.obj
 0001:0007f350       ?GetType@CWSDLMessagePart@@QAEJPAPAVCXSDElement@@PAW4XSDTYPE@@@Z 00480350 f   WSDLMessagePart.obj
 0001:0007f6c0       ??0?$CAutoPtr@VCWSDLSoapFaultElement@@@ATL@@QAE@PAVCWSDLSoapFaultElement@@@Z 004806c0 f i WSDLOperationIOParser.obj
 0001:0007f6f0       ??0?$CAutoPtr@VCWSDLSoapHeaderElement@@@ATL@@QAE@PAVCWSDLSoapHeaderElement@@@Z 004806f0 f i WSDLOperationIOParser.obj
 0001:0007f720       ??0CNode@?$CAtlList@PAVCWSDLSoapFaultElement@@V?$CElementTraits@PAVCWSDLSoapFaultElement@@@ATL@@@ATL@@QAE@ABQAVCWSDLSoapFaultElement@@@Z 00480720 f i WSDLOperationIOParser.obj
 0001:0007f750       ??0CNode@?$CAtlList@PAVCWSDLSoapHeaderElement@@V?$CElementTraits@PAVCWSDLSoapHeaderElement@@@ATL@@@ATL@@QAE@ABQAVCWSDLSoapHeaderElement@@@Z 00480750 f i WSDLOperationIOParser.obj
 0001:0007f780       ??0CWSDLSoapElement@@QAE@XZ 00480780 f i WSDLOperationIOParser.obj
 0001:0007f7e0       ??0CWSDLSoapElementEx@@QAE@XZ 004807e0 f i WSDLOperationIOParser.obj
 0001:0007f820       ??0CWSDLSoapFaultElement@@QAE@XZ 00480820 f i WSDLOperationIOParser.obj
 0001:0007f860       ??0CWSDLSoapHeaderElement@@QAE@XZ 00480860 f i WSDLOperationIOParser.obj
 0001:0007f900       ??1?$CAutoPtr@VCWSDLSoapFaultElement@@@ATL@@QAE@XZ 00480900 f i WSDLOperationIOParser.obj
 0001:0007f930       ??1?$CAutoPtr@VCWSDLSoapHeaderElement@@@ATL@@QAE@XZ 00480930 f i WSDLOperationIOParser.obj
 0001:0007f960       ??1CWSDLSoapElement@@UAE@XZ 00480960 f i WSDLOperationIOParser.obj
 0001:0007f9a0       ??1CWSDLSoapElementEx@@UAE@XZ 004809a0 f i WSDLOperationIOParser.obj
 0001:0007f9d0       ??1CWSDLSoapFaultElement@@UAE@XZ 004809d0 f i WSDLOperationIOParser.obj
 0001:0007fa00       ??1CWSDLSoapHeaderElement@@UAE@XZ 00480a00 f i WSDLOperationIOParser.obj
 0001:0007fa30       ??B?$CAutoPtr@VCWSDLSoapFaultElement@@@ATL@@QBEPAVCWSDLSoapFaultElement@@XZ 00480a30 f i WSDLOperationIOParser.obj
 0001:0007fa50       ??B?$CAutoPtr@VCWSDLSoapHeaderElement@@@ATL@@QBEPAVCWSDLSoapHeaderElement@@XZ 00480a50 f i WSDLOperationIOParser.obj
 0001:0007fa70       ??_ECWSDLSoapElement@@UAEPAXI@Z 00480a70 f i WSDLOperationIOParser.obj
 0001:0007fa70       ??_GCWSDLSoapElement@@UAEPAXI@Z 00480a70 f i WSDLOperationIOParser.obj
 0001:0007fac0       ??_ECWSDLSoapElementEx@@UAEPAXI@Z 00480ac0 f i WSDLOperationIOParser.obj
 0001:0007fac0       ??_GCWSDLSoapElementEx@@UAEPAXI@Z 00480ac0 f i WSDLOperationIOParser.obj
 0001:0007fb10       ??_GCWSDLSoapFaultElement@@UAEPAXI@Z 00480b10 f i WSDLOperationIOParser.obj
 0001:0007fb10       ??_ECWSDLSoapFaultElement@@UAEPAXI@Z 00480b10 f i WSDLOperationIOParser.obj
 0001:0007fb60       ??_GCWSDLSoapHeaderElement@@UAEPAXI@Z 00480b60 f i WSDLOperationIOParser.obj
 0001:0007fb60       ??_ECWSDLSoapHeaderElement@@UAEPAXI@Z 00480b60 f i WSDLOperationIOParser.obj
 0001:0007fbb0       ?AddSoapBody@CWSDLPortTypeIO@@QAEPAVCWSDLSoapElementEx@@XZ 00480bb0 f i WSDLOperationIOParser.obj
 0001:0007fc80       ?AddSoapFault@CWSDLPortTypeIO@@QAEPAVCWSDLSoapFaultElement@@XZ 00480c80 f i WSDLOperationIOParser.obj
 0001:0007fdc0       ?AddSoapHeader@CWSDLPortTypeIO@@QAEPAVCWSDLSoapHeaderElement@@XZ 00480dc0 f i WSDLOperationIOParser.obj
 0001:0007ff00       ?AddTail@?$CAtlList@PAVCWSDLSoapFaultElement@@V?$CElementTraits@PAVCWSDLSoapFaultElement@@@ATL@@@ATL@@QAEPAU__POSITION@@ABQAVCWSDLSoapFaultElement@@@Z 00480f00 f i WSDLOperationIOParser.obj
 0001:0007ff70       ?AddTail@?$CAtlList@PAVCWSDLSoapHeaderElement@@V?$CElementTraits@PAVCWSDLSoapHeaderElement@@@ATL@@@ATL@@QAEPAU__POSITION@@ABQAVCWSDLSoapHeaderElement@@@Z 00480f70 f i WSDLOperationIOParser.obj
 0001:0007ffe0       ?Attach@?$CAutoPtr@VCWSDLSoapElementEx@@@ATL@@QAEXPAVCWSDLSoapElementEx@@@Z 00480fe0 f i WSDLOperationIOParser.obj
 0001:00080050       ?Detach@?$CAutoPtr@VCWSDLSoapFaultElement@@@ATL@@QAEPAVCWSDLSoapFaultElement@@XZ 00481050 f i WSDLOperationIOParser.obj
 0001:00080080       ?Detach@?$CAutoPtr@VCWSDLSoapHeaderElement@@@ATL@@QAEPAVCWSDLSoapHeaderElement@@XZ 00481080 f i WSDLOperationIOParser.obj
 0001:000800b0       ?Free@?$CAutoPtr@VCWSDLSoapElementEx@@@ATL@@QAEXXZ 004810b0 f i WSDLOperationIOParser.obj
 0001:00080110       ?Free@?$CAutoPtr@VCWSDLSoapFaultElement@@@ATL@@QAEXXZ 00481110 f i WSDLOperationIOParser.obj
 0001:00080170       ?Free@?$CAutoPtr@VCWSDLSoapHeaderElement@@@ATL@@QAEXXZ 00481170 f i WSDLOperationIOParser.obj
 0001:000801d0       ?GetFreeNode@?$CAtlList@PAVCWSDLSoapFaultElement@@V?$CElementTraits@PAVCWSDLSoapFaultElement@@@ATL@@@ATL@@AAEXXZ 004811d0 f i WSDLOperationIOParser.obj
 0001:000802e0       ?GetFreeNode@?$CAtlList@PAVCWSDLSoapHeaderElement@@V?$CElementTraits@PAVCWSDLSoapHeaderElement@@@ATL@@@ATL@@AAEXXZ 004812e0 f i WSDLOperationIOParser.obj
 0001:000803f0       ?GetIO@CWSDLOperationIOParser@@QAEPAVCWSDLPortTypeIO@@XZ 004813f0 f i WSDLOperationIOParser.obj
 0001:00080410       ?GetSoapUse@@YA?AW4SOAPUSE@@PB_WH@Z 00481410 f i WSDLOperationIOParser.obj
 0001:000804a0       ?NewNode@?$CAtlList@PAVCWSDLSoapFaultElement@@V?$CElementTraits@PAVCWSDLSoapFaultElement@@@ATL@@@ATL@@AAEPAVCNode@12@ABQAVCWSDLSoapFaultElement@@PAV312@1@Z 004814a0 f i WSDLOperationIOParser.obj
 0001:000805e0       ?NewNode@?$CAtlList@PAVCWSDLSoapHeaderElement@@V?$CElementTraits@PAVCWSDLSoapHeaderElement@@@ATL@@@ATL@@AAEPAVCNode@12@ABQAVCWSDLSoapHeaderElement@@PAV312@1@Z 004815e0 f i WSDLOperationIOParser.obj
 0001:00080720       ?OnDocumentation@CWSDLOperationIOParser@@QAEJPB_WH0H0HPAUISAXAttributes@@@Z 00481720 f   WSDLOperationIOParser.obj
 0001:000807a0       ?OnHttpUrlEncoded@CWSDLOperationIOParser@@QAEJPB_WH0H0HPAUISAXAttributes@@@Z 004817a0 f   WSDLOperationIOParser.obj
 0001:00080820       ?OnMessage@CWSDLOperationIOParser@@QAEJPB_WH0H0H0HPAUISAXAttributes@@@Z 00481820 f   WSDLOperationIOParser.obj
 0001:000808b0       ?OnMimeContent@CWSDLOperationIOParser@@QAEJPB_WH0H0HPAUISAXAttributes@@@Z 004818b0 f   WSDLOperationIOParser.obj
 0001:00080930       ?OnMimeMultipartRelated@CWSDLOperationIOParser@@QAEJPB_WH0H0HPAUISAXAttributes@@@Z 00481930 f   WSDLOperationIOParser.obj
 0001:000809b0       ?OnMimeXML@CWSDLOperationIOParser@@QAEJPB_WH0H0HPAUISAXAttributes@@@Z 004819b0 f   WSDLOperationIOParser.obj
 0001:00080a30       ?OnName@CWSDLOperationIOParser@@QAEJPB_WH0H0H0HPAUISAXAttributes@@@Z 00481a30 f   WSDLOperationIOParser.obj
 0001:00080ac0       ?OnSoapBody@CWSDLOperationIOParser@@QAEJPB_WH0H0HPAUISAXAttributes@@@Z 00481ac0 f   WSDLOperationIOParser.obj
 0001:00080cb0       ?OnSoapFault@CWSDLOperationIOParser@@QAEJPB_WH0H0HPAUISAXAttributes@@@Z 00481cb0 f   WSDLOperationIOParser.obj
 0001:00080ec0       ?OnSoapHeader@CWSDLOperationIOParser@@QAEJPB_WH0H0HPAUISAXAttributes@@@Z 00481ec0 f   WSDLOperationIOParser.obj
 0001:00081200       ?OnSoapHeaderFault@CWSDLOperationIOParser@@QAEJPB_WH0H0HPAUISAXAttributes@@@Z 00482200 f   WSDLOperationIOParser.obj
 0001:00081270       ?OnUnrecognizedTag@CWSDLOperationIOParser@@UAEJPB_WH0H0HPAUISAXAttributes@@@Z 00482270 f   WSDLOperationIOParser.obj
 0001:00081340       ?SetEncodingStyle@CWSDLSoapElement@@QAEJPB_WH@Z 00482340 f i WSDLOperationIOParser.obj
 0001:00081390       ?SetMessage@CWSDLPortTypeIO@@QAEJPB_WH@Z 00482390 f i WSDLOperationIOParser.obj
 0001:000813d0       ?SetMessage@CWSDLSoapHeaderElement@@QAEJPB_WH@Z 004823d0 f i WSDLOperationIOParser.obj
 0001:00081410       ?SetName@CWSDLPortTypeIO@@QAEJPB_WH@Z 00482410 f i WSDLOperationIOParser.obj
 0001:00081460       ?SetName@CWSDLSoapFaultElement@@QAEJPB_WH@Z 00482460 f i WSDLOperationIOParser.obj
 0001:000814b0       ?SetNamespace@CWSDLSoapElement@@QAEJPB_WH@Z 004824b0 f i WSDLOperationIOParser.obj
 0001:00081500       ?SetParts@CWSDLSoapElementEx@@QAEJPB_WH@Z 00482500 f i WSDLOperationIOParser.obj
 0001:00081550       ?SetRequired@CWSDLSoapHeaderElement@@QAEX_N@Z 00482550 f i WSDLOperationIOParser.obj
 0001:00081580       ?SetUse@CWSDLSoapElement@@QAEJPB_WH@Z 00482580 f i WSDLOperationIOParser.obj
 0001:000815f0       ?startPrefixMapping@CWSDLOperationIOParser@@UAGJPB_WH0H@Z 004825f0 f   WSDLOperationIOParser.obj
 0001:000818d0       ??0?$CAtlList@PAVCWSDLSoapFaultElement@@V?$CElementTraits@PAVCWSDLSoapFaultElement@@@ATL@@@ATL@@QAE@I@Z 004828d0 f i WSDLOperationParser.obj
 0001:00081970       ??0?$CAtlList@PAVCWSDLSoapHeaderElement@@V?$CElementTraits@PAVCWSDLSoapHeaderElement@@@ATL@@@ATL@@QAE@I@Z 00482970 f i WSDLOperationParser.obj
 0001:00081a10       ??0?$CAtlPtrList@PAVCWSDLSoapFaultElement@@V?$CElementTraits@PAVCWSDLSoapFaultElement@@@ATL@@@@QAE@XZ 00482a10 f i WSDLOperationParser.obj
 0001:00081a50       ??0?$CAtlPtrList@PAVCWSDLSoapHeaderElement@@V?$CElementTraits@PAVCWSDLSoapHeaderElement@@@ATL@@@@QAE@XZ 00482a50 f i WSDLOperationParser.obj
 0001:00081a90       ??0?$CAutoPtr@VCWSDLOperationIOParser@@@ATL@@QAE@PAVCWSDLOperationIOParser@@@Z 00482a90 f i WSDLOperationParser.obj
 0001:00081ac0       ??0?$CAutoPtr@VCWSDLPortTypeIO@@@ATL@@QAE@PAVCWSDLPortTypeIO@@@Z 00482ac0 f i WSDLOperationParser.obj
 0001:00081af0       ??0?$CAutoPtr@VCWSDLSoapElementEx@@@ATL@@QAE@XZ 00482af0 f i WSDLOperationParser.obj
 0001:00081b20       ??0CHttpOperation@@QAE@XZ  00482b20 f i WSDLOperationParser.obj
 0001:00081b50       ??0CNode@?$CAtlList@PAVCWSDLPortTypeIO@@V?$CElementTraits@PAVCWSDLPortTypeIO@@@ATL@@@ATL@@QAE@ABQAVCWSDLPortTypeIO@@@Z 00482b50 f i WSDLOperationParser.obj
 0001:00081b80       ??0CSoapOperation@@QAE@XZ  00482b80 f i WSDLOperationParser.obj
 0001:00081bc0       ??0CWSDLOperationIOParser@@QAE@PAUISAXXMLReader@@PAVCParserBase@@KPAVCWSDLPortTypeIO@@@Z 00482bc0 f i WSDLOperationParser.obj
 0001:00081c10       ??0CWSDLPortTypeIO@@QAE@XZ 00482c10 f i WSDLOperationParser.obj
 0001:00081d00       ??1?$CAtlList@PAVCWSDLSoapFaultElement@@V?$CElementTraits@PAVCWSDLSoapFaultElement@@@ATL@@@ATL@@QAE@XZ 00482d00 f i WSDLOperationParser.obj
 0001:00081d70       ??1?$CAtlList@PAVCWSDLSoapHeaderElement@@V?$CElementTraits@PAVCWSDLSoapHeaderElement@@@ATL@@@ATL@@QAE@XZ 00482d70 f i WSDLOperationParser.obj
 0001:00081de0       ??1?$CAtlPtrList@PAVCWSDLSoapFaultElement@@V?$CElementTraits@PAVCWSDLSoapFaultElement@@@ATL@@@@QAE@XZ 00482de0 f i WSDLOperationParser.obj
 0001:00081e40       ??1?$CAtlPtrList@PAVCWSDLSoapHeaderElement@@V?$CElementTraits@PAVCWSDLSoapHeaderElement@@@ATL@@@@QAE@XZ 00482e40 f i WSDLOperationParser.obj
 0001:00081ea0       ??1?$CAutoPtr@VCWSDLOperationIOParser@@@ATL@@QAE@XZ 00482ea0 f i WSDLOperationParser.obj
 0001:00081ed0       ??1?$CAutoPtr@VCWSDLSoapElementEx@@@ATL@@QAE@XZ 00482ed0 f i WSDLOperationParser.obj
 0001:00081f00       ??1CNode@?$CAtlList@PAVCWSDLSoapFaultElement@@V?$CElementTraits@PAVCWSDLSoapFaultElement@@@ATL@@@ATL@@QAE@XZ 00482f00 f i WSDLOperationParser.obj
 0001:00081f20       ??1CNode@?$CAtlList@PAVCWSDLSoapHeaderElement@@V?$CElementTraits@PAVCWSDLSoapHeaderElement@@@ATL@@@ATL@@QAE@XZ 00482f20 f i WSDLOperationParser.obj
 0001:00081f40       ??1CWSDLOperationIOParser@@UAE@XZ 00482f40 f i WSDLOperationParser.obj
 0001:00081f70       ??1CWSDLPortTypeIO@@UAE@XZ 00482f70 f i WSDLOperationParser.obj
 0001:00081fe0       ??B?$CAutoPtr@VCHttpOperation@@@ATL@@QBEPAVCHttpOperation@@XZ 00482fe0 f i WSDLOperationParser.obj
 0001:00082000       ??B?$CAutoPtr@VCWSDLOperationIOParser@@@ATL@@QBEPAVCWSDLOperationIOParser@@XZ 00483000 f i WSDLOperationParser.obj
 0001:00082020       ??_GCNode@?$CAtlList@PAVCWSDLSoapFaultElement@@V?$CElementTraits@PAVCWSDLSoapFaultElement@@@ATL@@@ATL@@QAEPAXI@Z 00483020 f i WSDLOperationParser.obj
 0001:00082070       ??_GCNode@?$CAtlList@PAVCWSDLSoapHeaderElement@@V?$CElementTraits@PAVCWSDLSoapHeaderElement@@@ATL@@@ATL@@QAEPAXI@Z 00483070 f i WSDLOperationParser.obj
 0001:000820c0       ??_ECWSDLOperationIOParser@@UAEPAXI@Z 004830c0 f i WSDLOperationParser.obj
 0001:000820c0       ??_GCWSDLOperationIOParser@@UAEPAXI@Z 004830c0 f i WSDLOperationParser.obj
 0001:00082110       ??_GCWSDLPortTypeIO@@UAEPAXI@Z 00483110 f i WSDLOperationParser.obj
 0001:00082110       ??_ECWSDLPortTypeIO@@UAEPAXI@Z 00483110 f i WSDLOperationParser.obj
 0001:00082160       ?AddFault@CWSDLPortTypeOperation@@QAEPAVCWSDLPortTypeIO@@XZ 00483160 f i WSDLOperationParser.obj
 0001:000822a0       ?AddHttpOperation@CWSDLPortTypeOperation@@QAEPAVCHttpOperation@@PAV2@@Z 004832a0 f i WSDLOperationParser.obj
 0001:00082330       ?AddInput@CWSDLPortTypeOperation@@QAEPAVCWSDLPortTypeIO@@XZ 00483330 f i WSDLOperationParser.obj
 0001:00082410       ?AddOutput@CWSDLPortTypeOperation@@QAEPAVCWSDLPortTypeIO@@XZ 00483410 f i WSDLOperationParser.obj
 0001:000824f0       ?AddSoapOperation@CWSDLPortTypeOperation@@QAEPAVCSoapOperation@@PAV2@@Z 004834f0 f i WSDLOperationParser.obj
 0001:000825d0       ?AddTail@?$CAtlList@PAVCWSDLPortTypeIO@@V?$CElementTraits@PAVCWSDLPortTypeIO@@@ATL@@@ATL@@QAEPAU__POSITION@@ABQAVCWSDLPortTypeIO@@@Z 004835d0 f i WSDLOperationParser.obj
 0001:00082640       ?Attach@?$CAutoPtr@VCHttpOperation@@@ATL@@QAEXPAVCHttpOperation@@@Z 00483640 f i WSDLOperationParser.obj
 0001:000826b0       ?Attach@?$CAutoPtr@VCSoapOperation@@@ATL@@QAEXPAVCSoapOperation@@@Z 004836b0 f i WSDLOperationParser.obj
 0001:00082720       ?Attach@?$CAutoPtr@VCWSDLPortTypeIO@@@ATL@@QAEXPAVCWSDLPortTypeIO@@@Z 00483720 f i WSDLOperationParser.obj
 0001:00082790       ?Detach@?$CAutoPtr@VCWSDLOperationIOParser@@@ATL@@QAEPAVCWSDLOperationIOParser@@XZ 00483790 f i WSDLOperationParser.obj
 0001:000827c0       ?Detach@?$CAutoPtr@VCWSDLPortTypeIO@@@ATL@@QAEPAVCWSDLPortTypeIO@@XZ 004837c0 f i WSDLOperationParser.obj
 0001:000827f0       ?Free@?$CAutoPtr@VCWSDLOperationIOParser@@@ATL@@QAEXXZ 004837f0 f i WSDLOperationParser.obj
 0001:00082850       ?FreeNode@?$CAtlList@PAVCWSDLSoapFaultElement@@V?$CElementTraits@PAVCWSDLSoapFaultElement@@@ATL@@@ATL@@AAEXPAVCNode@12@@Z 00483850 f i WSDLOperationParser.obj
 0001:00082900       ?FreeNode@?$CAtlList@PAVCWSDLSoapHeaderElement@@V?$CElementTraits@PAVCWSDLSoapHeaderElement@@@ATL@@@ATL@@AAEXPAVCNode@12@@Z 00483900 f i WSDLOperationParser.obj
 0001:000829b0       ?GetAt@?$CAtlList@PAVCWSDLSoapFaultElement@@V?$CElementTraits@PAVCWSDLSoapFaultElement@@@ATL@@@ATL@@QAEAAPAVCWSDLSoapFaultElement@@PAU__POSITION@@@Z 004839b0 f i WSDLOperationParser.obj
 0001:00082a60       ?GetAt@?$CAtlList@PAVCWSDLSoapHeaderElement@@V?$CElementTraits@PAVCWSDLSoapHeaderElement@@@ATL@@@ATL@@QAEAAPAVCWSDLSoapHeaderElement@@PAU__POSITION@@@Z 00483a60 f i WSDLOperationParser.obj
 0001:00082b10       ?GetFreeNode@?$CAtlList@PAVCWSDLPortTypeIO@@V?$CElementTraits@PAVCWSDLPortTypeIO@@@ATL@@@ATL@@AAEXXZ 00483b10 f i WSDLOperationParser.obj
 0001:00082c20       ?GetHeadPosition@?$CAtlList@PAVCWSDLSoapFaultElement@@V?$CElementTraits@PAVCWSDLSoapFaultElement@@@ATL@@@ATL@@QBEPAU__POSITION@@XZ 00483c20 f i WSDLOperationParser.obj
 0001:00082c40       ?GetNext@?$CAtlList@PAVCWSDLSoapFaultElement@@V?$CElementTraits@PAVCWSDLSoapFaultElement@@@ATL@@@ATL@@QAEAAPAVCWSDLSoapFaultElement@@AAPAU__POSITION@@@Z 00483c40 f i WSDLOperationParser.obj
 0001:00082d00       ?GetOperation@CWSDLOperationParser@@QAEPAVCWSDLPortTypeOperation@@XZ 00483d00 f i WSDLOperationParser.obj
 0001:00082d20       ?GetXMLATTRMap@CWSDLOperationIOParser@@UAEPBUXMLTAG@@XZ 00483d20 f i WSDLOperationParser.obj
 0001:00082f70       ?GetXMLTAGMap@CWSDLOperationIOParser@@UAEPBUXMLTAG@@XZ 00483f70 f i WSDLOperationParser.obj
 0001:00083a00       ?NewNode@?$CAtlList@PAVCWSDLPortTypeIO@@V?$CElementTraits@PAVCWSDLPortTypeIO@@@ATL@@@ATL@@AAEPAVCNode@12@ABQAVCWSDLPortTypeIO@@PAV312@1@Z 00484a00 f i WSDLOperationParser.obj
 0001:00083b40       ?OnDocumentation@CWSDLOperationParser@@QAEJPB_WH0H0HPAUISAXAttributes@@@Z 00484b40 f   WSDLOperationParser.obj
 0001:00083bb0       ?OnFault@CWSDLOperationParser@@QAEJPB_WH0H0HPAUISAXAttributes@@@Z 00484bb0 f   WSDLOperationParser.obj
 0001:00083db0       ?OnHttpOperation@CWSDLOperationParser@@QAEJPB_WH0H0HPAUISAXAttributes@@@Z 00484db0 f   WSDLOperationParser.obj
 0001:00083f40       ?OnInput@CWSDLOperationParser@@QAEJPB_WH0H0HPAUISAXAttributes@@@Z 00484f40 f   WSDLOperationParser.obj
 0001:00084140       ?OnName@CWSDLOperationParser@@QAEJPB_WH0H0H0HPAUISAXAttributes@@@Z 00485140 f   WSDLOperationParser.obj
 0001:000841e0       ?OnOutput@CWSDLOperationParser@@QAEJPB_WH0H0HPAUISAXAttributes@@@Z 004851e0 f   WSDLOperationParser.obj
 0001:000843e0       ?OnSoapOperation@CWSDLOperationParser@@QAEJPB_WH0H0HPAUISAXAttributes@@@Z 004853e0 f   WSDLOperationParser.obj
 0001:000845e0       ?OnUnrecognizedTag@CWSDLOperationParser@@UAEJPB_WH0H0HPAUISAXAttributes@@@Z 004855e0 f   WSDLOperationParser.obj
 0001:000846b0       ?RemoveAll@?$CAtlList@PAVCWSDLSoapFaultElement@@V?$CElementTraits@PAVCWSDLSoapFaultElement@@@ATL@@@ATL@@QAEXXZ 004856b0 f i WSDLOperationParser.obj
 0001:00084810       ?RemoveAll@?$CAtlList@PAVCWSDLSoapHeaderElement@@V?$CElementTraits@PAVCWSDLSoapHeaderElement@@@ATL@@@ATL@@QAEXXZ 00485810 f i WSDLOperationParser.obj
 0001:00084970       ?RemoveAll@?$CAtlPtrList@PAVCWSDLSoapFaultElement@@V?$CElementTraits@PAVCWSDLSoapFaultElement@@@ATL@@@@QAEXXZ 00485970 f i WSDLOperationParser.obj
 0001:00084a20       ?RemoveAll@?$CAtlPtrList@PAVCWSDLSoapHeaderElement@@V?$CElementTraits@PAVCWSDLSoapHeaderElement@@@ATL@@@@QAEXXZ 00485a20 f i WSDLOperationParser.obj
 0001:00084ad0       ?SetLocation@CHttpOperation@@QAEJABV?$CStringT@_WV?$StrTraitATL@_WV?$ChTraitsCRT@_W@ATL@@@ATL@@@ATL@@@Z 00485ad0 f i WSDLOperationParser.obj
 0001:00084b00       ?SetName@CWSDLPortTypeOperation@@QAEJPB_WH@Z 00485b00 f i WSDLOperationParser.obj
 0001:00084b50       ?SetSoapAction@CSoapOperation@@QAEJABV?$CStringT@_WV?$StrTraitATL@_WV?$ChTraitsCRT@_W@ATL@@@ATL@@@ATL@@@Z 00485b50 f i WSDLOperationParser.obj
 0001:00084b80       ?SetStyle@CSoapOperation@@QAEJPB_WH@Z 00485b80 f i WSDLOperationParser.obj
 0001:00084bc0       ?ValidateStyle@CSoapOperation@@AAEJPB_WH@Z 00485bc0 f i WSDLOperationParser.obj
 0001:00084c10       ?startPrefixMapping@CWSDLOperationParser@@UAGJPB_WH0H@Z 00485c10 f   WSDLOperationParser.obj
 0001:00084ef0       ??0?$CAtlList@PAVCSchema@@V?$CElementTraits@PAVCSchema@@@ATL@@@ATL@@QAE@I@Z 00485ef0 f i WSDLParser.obj
 0001:00084f90       ??0?$CAtlList@PAVCWSDLMessagePart@@V?$CElementTraits@PAVCWSDLMessagePart@@@ATL@@@ATL@@QAE@I@Z 00485f90 f i WSDLParser.obj
 0001:00085030       ??0?$CAtlList@PAVCWSDLPort@@V?$CElementTraits@PAVCWSDLPort@@@ATL@@@ATL@@QAE@I@Z 00486030 f i WSDLParser.obj
 0001:000850d0       ??0?$CAtlList@PAVCWSDLType@@V?$CElementTraits@PAVCWSDLType@@@ATL@@@ATL@@QAE@I@Z 004860d0 f i WSDLParser.obj
 0001:00085170       ??0?$CAtlMap@V?$CStringT@_WV?$StrTraitATL@_WV?$ChTraitsCRT@_W@ATL@@@ATL@@@ATL@@PAVCWSDLBinding@@V?$CStringRefElementTraits@V?$CStringT@_WV?$StrTraitATL@_WV?$ChTraitsCRT@_W@ATL@@@ATL@@@ATL@@@2@V?$CElementTraits@PAVCWSDLBinding@@@2@@ATL@@QAE@IMMMI@Z 00486170 f i WSDLParser.obj
 0001:000852d0       ??0?$CAtlMap@V?$CStringT@_WV?$StrTraitATL@_WV?$ChTraitsCRT@_W@ATL@@@ATL@@@ATL@@PAVCWSDLMessage@@V?$CStringRefElementTraits@V?$CStringT@_WV?$StrTraitATL@_WV?$ChTraitsCRT@_W@ATL@@@ATL@@@ATL@@@2@V?$CElementTraits@PAVCWSDLMessage@@@2@@ATL@@QAE@IMMMI@Z 004862d0 f i WSDLParser.obj
 0001:00085430       ??0?$CAtlMap@V?$CStringT@_WV?$StrTraitATL@_WV?$ChTraitsCRT@_W@ATL@@@ATL@@@ATL@@PAVCWSDLPortType@@V?$CStringRefElementTraits@V?$CStringT@_WV?$StrTraitATL@_WV?$ChTraitsCRT@_W@ATL@@@ATL@@@ATL@@@2@V?$CElementTraits@PAVCWSDLPortType@@@2@@ATL@@QAE@IMMMI@Z 00486430 f i WSDLParser.obj
 0001:00085590       ??0?$CAtlMap@V?$CStringT@_WV?$StrTraitATL@_WV?$ChTraitsCRT@_W@ATL@@@ATL@@@ATL@@PAVCWSDLPortTypeOperation@@V?$CStringRefElementTraits@V?$CStringT@_WV?$StrTraitATL@_WV?$ChTraitsCRT@_W@ATL@@@ATL@@@ATL@@@2@V?$CElementTraits@PAVCWSDLPortTypeOperation@@@2@@ATL@@QAE@IMMMI@Z 00486590 f i WSDLParser.obj
 0001:000856f0       ??0?$CAtlMap@V?$CStringT@_WV?$StrTraitATL@_WV?$ChTraitsCRT@_W@ATL@@@ATL@@@ATL@@PAVCWSDLService@@V?$CStringRefElementTraits@V?$CStringT@_WV?$StrTraitATL@_WV?$ChTraitsCRT@_W@ATL@@@ATL@@@ATL@@@2@V?$CElementTraits@PAVCWSDLService@@@2@@ATL@@QAE@IMMMI@Z 004866f0 f i WSDLParser.obj
 0001:00085850       ??0?$CAtlPtrList@PAVCSchema@@V?$CElementTraits@PAVCSchema@@@ATL@@@@QAE@XZ 00486850 f i WSDLParser.obj
 0001:00085890       ??0?$CAtlPtrList@PAVCWSDLMessagePart@@V?$CElementTraits@PAVCWSDLMessagePart@@@ATL@@@@QAE@XZ 00486890 f i WSDLParser.obj
 0001:000858d0       ??0?$CAtlPtrList@PAVCWSDLPort@@V?$CElementTraits@PAVCWSDLPort@@@ATL@@@@QAE@XZ 004868d0 f i WSDLParser.obj
 0001:00085910       ??0?$CAtlPtrList@PAVCWSDLType@@V?$CElementTraits@PAVCWSDLType@@@ATL@@@@QAE@XZ 00486910 f i WSDLParser.obj
 0001:00085950       ??0?$CAtlPtrMap@V?$CStringT@_WV?$StrTraitATL@_WV?$ChTraitsCRT@_W@ATL@@@ATL@@@ATL@@PAVCWSDLBinding@@V?$CStringRefElementTraits@V?$CStringT@_WV?$StrTraitATL@_WV?$ChTraitsCRT@_W@ATL@@@ATL@@@ATL@@@2@V?$CElementTraits@PAVCWSDLBinding@@@2@@@QAE@XZ 00486950 f i WSDLParser.obj
 0001:000859c0       ??0?$CAtlPtrMap@V?$CStringT@_WV?$StrTraitATL@_WV?$ChTraitsCRT@_W@ATL@@@ATL@@@ATL@@PAVCWSDLMessage@@V?$CStringRefElementTraits@V?$CStringT@_WV?$StrTraitATL@_WV?$ChTraitsCRT@_W@ATL@@@ATL@@@ATL@@@2@V?$CElementTraits@PAVCWSDLMessage@@@2@@@QAE@XZ 004869c0 f i WSDLParser.obj
 0001:00085a30       ??0?$CAtlPtrMap@V?$CStringT@_WV?$StrTraitATL@_WV?$ChTraitsCRT@_W@ATL@@@ATL@@@ATL@@PAVCWSDLPortType@@V?$CStringRefElementTraits@V?$CStringT@_WV?$StrTraitATL@_WV?$ChTraitsCRT@_W@ATL@@@ATL@@@ATL@@@2@V?$CElementTraits@PAVCWSDLPortType@@@2@@@QAE@XZ 00486a30 f i WSDLParser.obj
 0001:00085aa0       ??0?$CAtlPtrMap@V?$CStringT@_WV?$StrTraitATL@_WV?$ChTraitsCRT@_W@ATL@@@ATL@@@ATL@@PAVCWSDLPortTypeOperation@@V?$CStringRefElementTraits@V?$CStringT@_WV?$StrTraitATL@_WV?$ChTraitsCRT@_W@ATL@@@ATL@@@ATL@@@2@V?$CElementTraits@PAVCWSDLPortTypeOperation@@@2@@@QAE@XZ 00486aa0 f i WSDLParser.obj
 0001:00085b10       ??0?$CAtlPtrMap@V?$CStringT@_WV?$StrTraitATL@_WV?$ChTraitsCRT@_W@ATL@@@ATL@@@ATL@@PAVCWSDLService@@V?$CStringRefElementTraits@V?$CStringT@_WV?$StrTraitATL@_WV?$ChTraitsCRT@_W@ATL@@@ATL@@@ATL@@@2@V?$CElementTraits@PAVCWSDLService@@@2@@@QAE@XZ 00486b10 f i WSDLParser.obj
 0001:00085b80       ??0?$CAutoPtr@VCHttpBinding@@@ATL@@QAE@XZ 00486b80 f i WSDLParser.obj
 0001:00085bb0       ??0?$CAutoPtr@VCSoapBinding@@@ATL@@QAE@XZ 00486bb0 f i WSDLParser.obj
 0001:00085be0       ??0?$CAutoPtr@VCWSDLBinding@@@ATL@@QAE@XZ 00486be0 f i WSDLParser.obj
 0001:00085c10       ??0?$CAutoPtr@VCWSDLDocument@@@ATL@@QAE@PAVCWSDLDocument@@@Z 00486c10 f i WSDLParser.obj
 0001:00085c40       ??0?$CAutoPtr@VCWSDLMessage@@@ATL@@QAE@XZ 00486c40 f i WSDLParser.obj
 0001:00085c70       ??0?$CAutoPtr@VCWSDLMessageParser@@@ATL@@QAE@PAVCWSDLMessageParser@@@Z 00486c70 f i WSDLParser.obj
 0001:00085ca0       ??0?$CAutoPtr@VCWSDLPortType@@@ATL@@QAE@XZ 00486ca0 f i WSDLParser.obj
 0001:00085cd0       ??0?$CAutoPtr@VCWSDLPortTypeParser@@@ATL@@QAE@PAVCWSDLPortTypeParser@@@Z 00486cd0 f i WSDLParser.obj
 0001:00085d00       ??0?$CAutoPtr@VCWSDLService@@@ATL@@QAE@XZ 00486d00 f i WSDLParser.obj
 0001:00085d30       ??0?$CAutoPtr@VCWSDLServiceParser@@@ATL@@QAE@PAVCWSDLServiceParser@@@Z 00486d30 f i WSDLParser.obj
 0001:00085d60       ??0?$CAutoPtr@VCWSDLType@@@ATL@@QAE@XZ 00486d60 f i WSDLParser.obj
 0001:00085d90       ??0?$CAutoPtr@VCWSDLTypesParser@@@ATL@@QAE@PAVCWSDLTypesParser@@@Z 00486d90 f i WSDLParser.obj
 0001:00085dc0       ??0CNode@?$CAtlList@PAVCWSDLType@@V?$CElementTraits@PAVCWSDLType@@@ATL@@@ATL@@QAE@ABQAVCWSDLType@@@Z 00486dc0 f i WSDLParser.obj
 0001:00085df0       ??0CNode@?$CAtlMap@V?$CStringT@_WV?$StrTraitATL@_WV?$ChTraitsCRT@_W@ATL@@@ATL@@@ATL@@PAVCWSDLBinding@@V?$CStringRefElementTraits@V?$CStringT@_WV?$StrTraitATL@_WV?$ChTraitsCRT@_W@ATL@@@ATL@@@ATL@@@2@V?$CElementTraits@PAVCWSDLBinding@@@2@@ATL@@QAE@ABV?$CStringT@_WV?$StrTraitATL@_WV?$ChTraitsCRT@_W@ATL@@@ATL@@@2@I@Z 00486df0 f i WSDLParser.obj
 0001:00085e30       ??0CNode@?$CAtlMap@V?$CStringT@_WV?$StrTraitATL@_WV?$ChTraitsCRT@_W@ATL@@@ATL@@@ATL@@PAVCWSDLMessage@@V?$CStringRefElementTraits@V?$CStringT@_WV?$StrTraitATL@_WV?$ChTraitsCRT@_W@ATL@@@ATL@@@ATL@@@2@V?$CElementTraits@PAVCWSDLMessage@@@2@@ATL@@QAE@ABV?$CStringT@_WV?$StrTraitATL@_WV?$ChTraitsCRT@_W@ATL@@@ATL@@@2@I@Z 00486e30 f i WSDLParser.obj
 0001:00085e70       ??0CNode@?$CAtlMap@V?$CStringT@_WV?$StrTraitATL@_WV?$ChTraitsCRT@_W@ATL@@@ATL@@@ATL@@PAVCWSDLPortType@@V?$CStringRefElementTraits@V?$CStringT@_WV?$StrTraitATL@_WV?$ChTraitsCRT@_W@ATL@@@ATL@@@ATL@@@2@V?$CElementTraits@PAVCWSDLPortType@@@2@@ATL@@QAE@ABV?$CStringT@_WV?$StrTraitATL@_WV?$ChTraitsCRT@_W@ATL@@@ATL@@@2@I@Z 00486e70 f i WSDLParser.obj
 0001:00085eb0       ??0CNode@?$CAtlMap@V?$CStringT@_WV?$StrTraitATL@_WV?$ChTraitsCRT@_W@ATL@@@ATL@@@ATL@@PAVCWSDLService@@V?$CStringRefElementTraits@V?$CStringT@_WV?$StrTraitATL@_WV?$ChTraitsCRT@_W@ATL@@@ATL@@@ATL@@@2@V?$CElementTraits@PAVCWSDLService@@@2@@ATL@@QAE@ABV?$CStringT@_WV?$StrTraitATL@_WV?$ChTraitsCRT@_W@ATL@@@ATL@@@2@I@Z 00486eb0 f i WSDLParser.obj
 0001:00085ef0       ??0CNode@?$CAtlMap@V?$CStringT@_WV?$StrTraitATL@_WV?$ChTraitsCRT@_W@ATL@@@ATL@@@ATL@@V12@V?$CStringRefElementTraits@V?$CStringT@_WV?$StrTraitATL@_WV?$ChTraitsCRT@_W@ATL@@@ATL@@@ATL@@@2@V32@@ATL@@QAE@ABV?$CStringT@_WV?$StrTraitATL@_WV?$ChTraitsCRT@_W@ATL@@@ATL@@@2@I@Z 00486ef0 f i WSDLParser.obj
 0001:00085f30       ??0CPair@?$CAtlMap@V?$CStringT@_WV?$StrTraitATL@_WV?$ChTraitsCRT@_W@ATL@@@ATL@@@ATL@@PAVCWSDLBinding@@V?$CStringRefElementTraits@V?$CStringT@_WV?$StrTraitATL@_WV?$ChTraitsCRT@_W@ATL@@@ATL@@@ATL@@@2@V?$CElementTraits@PAVCWSDLBinding@@@2@@ATL@@IAE@ABV?$CStringT@_WV?$StrTraitATL@_WV?$ChTraitsCRT@_W@ATL@@@ATL@@@2@@Z 00486f30 f i WSDLParser.obj
 0001:00085f60       ??0CPair@?$CAtlMap@V?$CStringT@_WV?$StrTraitATL@_WV?$ChTraitsCRT@_W@ATL@@@ATL@@@ATL@@PAVCWSDLMessage@@V?$CStringRefElementTraits@V?$CStringT@_WV?$StrTraitATL@_WV?$ChTraitsCRT@_W@ATL@@@ATL@@@ATL@@@2@V?$CElementTraits@PAVCWSDLMessage@@@2@@ATL@@IAE@ABV?$CStringT@_WV?$StrTraitATL@_WV?$ChTraitsCRT@_W@ATL@@@ATL@@@2@@Z 00486f60 f i WSDLParser.obj
 0001:00085f90       ??0CPair@?$CAtlMap@V?$CStringT@_WV?$StrTraitATL@_WV?$ChTraitsCRT@_W@ATL@@@ATL@@@ATL@@PAVCWSDLPortType@@V?$CStringRefElementTraits@V?$CStringT@_WV?$StrTraitATL@_WV?$ChTraitsCRT@_W@ATL@@@ATL@@@ATL@@@2@V?$CElementTraits@PAVCWSDLPortType@@@2@@ATL@@IAE@ABV?$CStringT@_WV?$StrTraitATL@_WV?$ChTraitsCRT@_W@ATL@@@ATL@@@2@@Z 00486f90 f i WSDLParser.obj
 0001:00085fc0       ??0CPair@?$CAtlMap@V?$CStringT@_WV?$StrTraitATL@_WV?$ChTraitsCRT@_W@ATL@@@ATL@@@ATL@@PAVCWSDLService@@V?$CStringRefElementTraits@V?$CStringT@_WV?$StrTraitATL@_WV?$ChTraitsCRT@_W@ATL@@@ATL@@@ATL@@@2@V?$CElementTraits@PAVCWSDLService@@@2@@ATL@@IAE@ABV?$CStringT@_WV?$StrTraitATL@_WV?$ChTraitsCRT@_W@ATL@@@ATL@@@2@@Z 00486fc0 f i WSDLParser.obj
 0001:00085ff0       ??0CPair@?$CAtlMap@V?$CStringT@_WV?$StrTraitATL@_WV?$ChTraitsCRT@_W@ATL@@@ATL@@@ATL@@V12@V?$CStringRefElementTraits@V?$CStringT@_WV?$StrTraitATL@_WV?$ChTraitsCRT@_W@ATL@@@ATL@@@ATL@@@2@V32@@ATL@@IAE@ABV?$CStringT@_WV?$StrTraitATL@_WV?$ChTraitsCRT@_W@ATL@@@ATL@@@2@@Z 00486ff0 f i WSDLParser.obj
 0001:00086030       ??0CWSDLBinding@@QAE@XZ    00487030 f i WSDLParser.obj
 0001:00086120       ??0CWSDLBindingParser@@QAE@PAUISAXXMLReader@@PAVCParserBase@@KPAVCWSDLBinding@@@Z 00487120 f i WSDLParser.obj
 0001:00086170       ??0CWSDLDocument@@QAE@XZ   00487170 f i WSDLParser.obj
 0001:00086280       ??0CWSDLMessage@@QAE@XZ    00487280 f i WSDLParser.obj
 0001:00086330       ??0CWSDLMessageParser@@QAE@PAUISAXXMLReader@@PAVCParserBase@@KPAVCWSDLMessage@@@Z 00487330 f i WSDLParser.obj
 0001:00086380       ??0CWSDLParser@@QAE@PAUISAXXMLReader@@PAVCParserBase@@K@Z 00487380 f   WSDLParser.obj
 0001:00086420       ??0CWSDLParser@@QAE@XZ     00487420 f   WSDLParser.obj
 0001:000864b0       ??0CWSDLPortType@@QAE@XZ   004874b0 f i WSDLParser.obj
 0001:00086560       ??0CWSDLPortTypeParser@@QAE@PAUISAXXMLReader@@PAVCParserBase@@KPAVCWSDLPortType@@@Z 00487560 f i WSDLParser.obj
 0001:000865b0       ??0CWSDLService@@QAE@XZ    004875b0 f i WSDLParser.obj
 0001:00086660       ??0CWSDLServiceParser@@QAE@PAUISAXXMLReader@@PAVCParserBase@@KPAVCWSDLService@@@Z 00487660 f i WSDLParser.obj
 0001:000866b0       ??0CWSDLType@@QAE@XZ       004876b0 f i WSDLParser.obj
 0001:00086750       ??0CWSDLTypesParser@@QAE@PAUISAXXMLReader@@PAVCParserBase@@KPAVCWSDLType@@@Z 00487750 f i WSDLParser.obj
 0001:000867a0       ??1?$CAtlList@PAVCSchema@@V?$CElementTraits@PAVCSchema@@@ATL@@@ATL@@QAE@XZ 004877a0 f i WSDLParser.obj
 0001:00086810       ??1?$CAtlList@PAVCWSDLMessagePart@@V?$CElementTraits@PAVCWSDLMessagePart@@@ATL@@@ATL@@QAE@XZ 00487810 f i WSDLParser.obj
 0001:00086880       ??1?$CAtlList@PAVCWSDLPort@@V?$CElementTraits@PAVCWSDLPort@@@ATL@@@ATL@@QAE@XZ 00487880 f i WSDLParser.obj
 0001:000868f0       ??1?$CAtlList@PAVCWSDLType@@V?$CElementTraits@PAVCWSDLType@@@ATL@@@ATL@@QAE@XZ 004878f0 f i WSDLParser.obj
 0001:00086960       ??1?$CAtlMap@V?$CStringT@_WV?$StrTraitATL@_WV?$ChTraitsCRT@_W@ATL@@@ATL@@@ATL@@PAVCWSDLBinding@@V?$CStringRefElementTraits@V?$CStringT@_WV?$StrTraitATL@_WV?$ChTraitsCRT@_W@ATL@@@ATL@@@ATL@@@2@V?$CElementTraits@PAVCWSDLBinding@@@2@@ATL@@QAE@XZ 00487960 f i WSDLParser.obj
 0001:00086a20       ??1?$CAtlMap@V?$CStringT@_WV?$StrTraitATL@_WV?$ChTraitsCRT@_W@ATL@@@ATL@@@ATL@@PAVCWSDLMessage@@V?$CStringRefElementTraits@V?$CStringT@_WV?$StrTraitATL@_WV?$ChTraitsCRT@_W@ATL@@@ATL@@@ATL@@@2@V?$CElementTraits@PAVCWSDLMessage@@@2@@ATL@@QAE@XZ 00487a20 f i WSDLParser.obj
 0001:00086ae0       ??1?$CAtlMap@V?$CStringT@_WV?$StrTraitATL@_WV?$ChTraitsCRT@_W@ATL@@@ATL@@@ATL@@PAVCWSDLPortType@@V?$CStringRefElementTraits@V?$CStringT@_WV?$StrTraitATL@_WV?$ChTraitsCRT@_W@ATL@@@ATL@@@ATL@@@2@V?$CElementTraits@PAVCWSDLPortType@@@2@@ATL@@QAE@XZ 00487ae0 f i WSDLParser.obj
 0001:00086ba0       ??1?$CAtlMap@V?$CStringT@_WV?$StrTraitATL@_WV?$ChTraitsCRT@_W@ATL@@@ATL@@@ATL@@PAVCWSDLPortTypeOperation@@V?$CStringRefElementTraits@V?$CStringT@_WV?$StrTraitATL@_WV?$ChTraitsCRT@_W@ATL@@@ATL@@@ATL@@@2@V?$CElementTraits@PAVCWSDLPortTypeOperation@@@2@@ATL@@QAE@XZ 00487ba0 f i WSDLParser.obj
 0001:00086c60       ??1?$CAtlMap@V?$CStringT@_WV?$StrTraitATL@_WV?$ChTraitsCRT@_W@ATL@@@ATL@@@ATL@@PAVCWSDLService@@V?$CStringRefElementTraits@V?$CStringT@_WV?$StrTraitATL@_WV?$ChTraitsCRT@_W@ATL@@@ATL@@@ATL@@@2@V?$CElementTraits@PAVCWSDLService@@@2@@ATL@@QAE@XZ 00487c60 f i WSDLParser.obj
 0001:00086d20       ??1?$CAtlPtrList@PAVCSchema@@V?$CElementTraits@PAVCSchema@@@ATL@@@@QAE@XZ 00487d20 f i WSDLParser.obj
 0001:00086d80       ??1?$CAtlPtrList@PAVCWSDLMessagePart@@V?$CElementTraits@PAVCWSDLMessagePart@@@ATL@@@@QAE@XZ 00487d80 f i WSDLParser.obj
 0001:00086de0       ??1?$CAtlPtrList@PAVCWSDLPort@@V?$CElementTraits@PAVCWSDLPort@@@ATL@@@@QAE@XZ 00487de0 f i WSDLParser.obj
 0001:00086e40       ??1?$CAtlPtrList@PAVCWSDLType@@V?$CElementTraits@PAVCWSDLType@@@ATL@@@@QAE@XZ 00487e40 f i WSDLParser.obj
 0001:00086ea0       ??1?$CAtlPtrMap@V?$CStringT@_WV?$StrTraitATL@_WV?$ChTraitsCRT@_W@ATL@@@ATL@@@ATL@@PAVCWSDLBinding@@V?$CStringRefElementTraits@V?$CStringT@_WV?$StrTraitATL@_WV?$ChTraitsCRT@_W@ATL@@@ATL@@@ATL@@@2@V?$CElementTraits@PAVCWSDLBinding@@@2@@@QAE@XZ 00487ea0 f i WSDLParser.obj
 0001:00086f00       ??1?$CAtlPtrMap@V?$CStringT@_WV?$StrTraitATL@_WV?$ChTraitsCRT@_W@ATL@@@ATL@@@ATL@@PAVCWSDLMessage@@V?$CStringRefElementTraits@V?$CStringT@_WV?$StrTraitATL@_WV?$ChTraitsCRT@_W@ATL@@@ATL@@@ATL@@@2@V?$CElementTraits@PAVCWSDLMessage@@@2@@@QAE@XZ 00487f00 f i WSDLParser.obj
 0001:00086f60       ??1?$CAtlPtrMap@V?$CStringT@_WV?$StrTraitATL@_WV?$ChTraitsCRT@_W@ATL@@@ATL@@@ATL@@PAVCWSDLPortType@@V?$CStringRefElementTraits@V?$CStringT@_WV?$StrTraitATL@_WV?$ChTraitsCRT@_W@ATL@@@ATL@@@ATL@@@2@V?$CElementTraits@PAVCWSDLPortType@@@2@@@QAE@XZ 00487f60 f i WSDLParser.obj
 0001:00086fc0       ??1?$CAtlPtrMap@V?$CStringT@_WV?$StrTraitATL@_WV?$ChTraitsCRT@_W@ATL@@@ATL@@@ATL@@PAVCWSDLPortTypeOperation@@V?$CStringRefElementTraits@V?$CStringT@_WV?$StrTraitATL@_WV?$ChTraitsCRT@_W@ATL@@@ATL@@@ATL@@@2@V?$CElementTraits@PAVCWSDLPortTypeOperation@@@2@@@QAE@XZ 00487fc0 f i WSDLParser.obj
 0001:00087020       ??1?$CAtlPtrMap@V?$CStringT@_WV?$StrTraitATL@_WV?$ChTraitsCRT@_W@ATL@@@ATL@@@ATL@@PAVCWSDLService@@V?$CStringRefElementTraits@V?$CStringT@_WV?$StrTraitATL@_WV?$ChTraitsCRT@_W@ATL@@@ATL@@@ATL@@@2@V?$CElementTraits@PAVCWSDLService@@@2@@@QAE@XZ 00488020 f i WSDLParser.obj
 0001:00087080       ??1?$CAutoPtr@VCHttpBinding@@@ATL@@QAE@XZ 00488080 f i WSDLParser.obj
 0001:000870b0       ??1?$CAutoPtr@VCSoapBinding@@@ATL@@QAE@XZ 004880b0 f i WSDLParser.obj
 0001:000870e0       ??1?$CAutoPtr@VCWSDLBinding@@@ATL@@QAE@XZ 004880e0 f i WSDLParser.obj
 0001:00087110       ??1?$CAutoPtr@VCWSDLMessage@@@ATL@@QAE@XZ 00488110 f i WSDLParser.obj
 0001:00087140       ??1?$CAutoPtr@VCWSDLMessageParser@@@ATL@@QAE@XZ 00488140 f i WSDLParser.obj
 0001:00087170       ??1?$CAutoPtr@VCWSDLPortType@@@ATL@@QAE@XZ 00488170 f i WSDLParser.obj
 0001:000871a0       ??1?$CAutoPtr@VCWSDLPortTypeParser@@@ATL@@QAE@XZ 004881a0 f i WSDLParser.obj
 0001:000871d0       ??1?$CAutoPtr@VCWSDLService@@@ATL@@QAE@XZ 004881d0 f i WSDLParser.obj
 0001:00087200       ??1?$CAutoPtr@VCWSDLServiceParser@@@ATL@@QAE@XZ 00488200 f i WSDLParser.obj
 0001:00087230       ??1?$CAutoPtr@VCWSDLType@@@ATL@@QAE@XZ 00488230 f i WSDLParser.obj
 0001:00087260       ??1?$CAutoPtr@VCWSDLTypesParser@@@ATL@@QAE@XZ 00488260 f i WSDLParser.obj
 0001:00087290       ??1CNode@?$CAtlList@PAVCSchema@@V?$CElementTraits@PAVCSchema@@@ATL@@@ATL@@QAE@XZ 00488290 f i WSDLParser.obj
 0001:000872b0       ??1CNode@?$CAtlList@PAVCWSDLMessagePart@@V?$CElementTraits@PAVCWSDLMessagePart@@@ATL@@@ATL@@QAE@XZ 004882b0 f i WSDLParser.obj
 0001:000872d0       ??1CNode@?$CAtlList@PAVCWSDLPort@@V?$CElementTraits@PAVCWSDLPort@@@ATL@@@ATL@@QAE@XZ 004882d0 f i WSDLParser.obj
 0001:000872f0       ??1CNode@?$CAtlList@PAVCWSDLType@@V?$CElementTraits@PAVCWSDLType@@@ATL@@@ATL@@QAE@XZ 004882f0 f i WSDLParser.obj
 0001:00087310       ??1CNode@?$CAtlMap@V?$CStringT@_WV?$StrTraitATL@_WV?$ChTraitsCRT@_W@ATL@@@ATL@@@ATL@@PAVCWSDLBinding@@V?$CStringRefElementTraits@V?$CStringT@_WV?$StrTraitATL@_WV?$ChTraitsCRT@_W@ATL@@@ATL@@@ATL@@@2@V?$CElementTraits@PAVCWSDLBinding@@@2@@ATL@@QAE@XZ 00488310 f i WSDLParser.obj
 0001:00087340       ??1CNode@?$CAtlMap@V?$CStringT@_WV?$StrTraitATL@_WV?$ChTraitsCRT@_W@ATL@@@ATL@@@ATL@@PAVCWSDLMessage@@V?$CStringRefElementTraits@V?$CStringT@_WV?$StrTraitATL@_WV?$ChTraitsCRT@_W@ATL@@@ATL@@@ATL@@@2@V?$CElementTraits@PAVCWSDLMessage@@@2@@ATL@@QAE@XZ 00488340 f i WSDLParser.obj
 0001:00087370       ??1CNode@?$CAtlMap@V?$CStringT@_WV?$StrTraitATL@_WV?$ChTraitsCRT@_W@ATL@@@ATL@@@ATL@@PAVCWSDLPortType@@V?$CStringRefElementTraits@V?$CStringT@_WV?$StrTraitATL@_WV?$ChTraitsCRT@_W@ATL@@@ATL@@@ATL@@@2@V?$CElementTraits@PAVCWSDLPortType@@@2@@ATL@@QAE@XZ 00488370 f i WSDLParser.obj
 0001:000873a0       ??1CNode@?$CAtlMap@V?$CStringT@_WV?$StrTraitATL@_WV?$ChTraitsCRT@_W@ATL@@@ATL@@@ATL@@PAVCWSDLService@@V?$CStringRefElementTraits@V?$CStringT@_WV?$StrTraitATL@_WV?$ChTraitsCRT@_W@ATL@@@ATL@@@ATL@@@2@V?$CElementTraits@PAVCWSDLService@@@2@@ATL@@QAE@XZ 004883a0 f i WSDLParser.obj
 0001:000873d0       ??1CPair@?$CAtlMap@V?$CStringT@_WV?$StrTraitATL@_WV?$ChTraitsCRT@_W@ATL@@@ATL@@@ATL@@PAVCWSDLBinding@@V?$CStringRefElementTraits@V?$CStringT@_WV?$StrTraitATL@_WV?$ChTraitsCRT@_W@ATL@@@ATL@@@ATL@@@2@V?$CElementTraits@PAVCWSDLBinding@@@2@@ATL@@QAE@XZ 004883d0 f i WSDLParser.obj
 0001:00087400       ??1CPair@?$CAtlMap@V?$CStringT@_WV?$StrTraitATL@_WV?$ChTraitsCRT@_W@ATL@@@ATL@@@ATL@@PAVCWSDLMessage@@V?$CStringRefElementTraits@V?$CStringT@_WV?$StrTraitATL@_WV?$ChTraitsCRT@_W@ATL@@@ATL@@@ATL@@@2@V?$CElementTraits@PAVCWSDLMessage@@@2@@ATL@@QAE@XZ 00488400 f i WSDLParser.obj
 0001:00087430       ??1CPair@?$CAtlMap@V?$CStringT@_WV?$StrTraitATL@_WV?$ChTraitsCRT@_W@ATL@@@ATL@@@ATL@@PAVCWSDLPortType@@V?$CStringRefElementTraits@V?$CStringT@_WV?$StrTraitATL@_WV?$ChTraitsCRT@_W@ATL@@@ATL@@@ATL@@@2@V?$CElementTraits@PAVCWSDLPortType@@@2@@ATL@@QAE@XZ 00488430 f i WSDLParser.obj
 0001:00087460       ??1CPair@?$CAtlMap@V?$CStringT@_WV?$StrTraitATL@_WV?$ChTraitsCRT@_W@ATL@@@ATL@@@ATL@@PAVCWSDLService@@V?$CStringRefElementTraits@V?$CStringT@_WV?$StrTraitATL@_WV?$ChTraitsCRT@_W@ATL@@@ATL@@@ATL@@@2@V?$CElementTraits@PAVCWSDLService@@@2@@ATL@@QAE@XZ 00488460 f i WSDLParser.obj
 0001:00087490       ??1CWSDLBinding@@UAE@XZ    00488490 f i WSDLParser.obj
 0001:00087500       ??1CWSDLBindingParser@@UAE@XZ 00488500 f i WSDLParser.obj
 0001:00087530       ??1CWSDLDocument@@UAE@XZ   00488530 f i WSDLParser.obj
 0001:000875c0       ??1CWSDLMessage@@UAE@XZ    004885c0 f i WSDLParser.obj
 0001:00087610       ??1CWSDLMessageParser@@UAE@XZ 00488610 f i WSDLParser.obj
 0001:00087640       ??1CWSDLPortType@@UAE@XZ   00488640 f i WSDLParser.obj
 0001:00087690       ??1CWSDLPortTypeParser@@UAE@XZ 00488690 f i WSDLParser.obj
 0001:000876c0       ??1CWSDLService@@UAE@XZ    004886c0 f i WSDLParser.obj
 0001:00087710       ??1CWSDLServiceParser@@UAE@XZ 00488710 f i WSDLParser.obj
 0001:00087740       ??1CWSDLType@@UAE@XZ       00488740 f i WSDLParser.obj
 0001:00087780       ??1CWSDLTypesParser@@UAE@XZ 00488780 f i WSDLParser.obj
 0001:000877b0       ??B?$CAutoPtr@VCWSDLBinding@@@ATL@@QBEPAVCWSDLBinding@@XZ 004887b0 f i WSDLParser.obj
 0001:000877d0       ??B?$CAutoPtr@VCWSDLMessage@@@ATL@@QBEPAVCWSDLMessage@@XZ 004887d0 f i WSDLParser.obj
 0001:000877f0       ??B?$CAutoPtr@VCWSDLMessageParser@@@ATL@@QBEPAVCWSDLMessageParser@@XZ 004887f0 f i WSDLParser.obj
 0001:00087810       ??B?$CAutoPtr@VCWSDLPortType@@@ATL@@QBEPAVCWSDLPortType@@XZ 00488810 f i WSDLParser.obj
 0001:00087830       ??B?$CAutoPtr@VCWSDLPortTypeParser@@@ATL@@QBEPAVCWSDLPortTypeParser@@XZ 00488830 f i WSDLParser.obj
 0001:00087850       ??B?$CAutoPtr@VCWSDLService@@@ATL@@QBEPAVCWSDLService@@XZ 00488850 f i WSDLParser.obj
 0001:00087870       ??B?$CAutoPtr@VCWSDLServiceParser@@@ATL@@QBEPAVCWSDLServiceParser@@XZ 00488870 f i WSDLParser.obj
 0001:00087890       ??B?$CAutoPtr@VCWSDLType@@@ATL@@QBEPAVCWSDLType@@XZ 00488890 f i WSDLParser.obj
 0001:000878b0       ??B?$CAutoPtr@VCWSDLTypesParser@@@ATL@@QBEPAVCWSDLTypesParser@@XZ 004888b0 f i WSDLParser.obj
 0001:000878d0       ??C?$CAutoPtr@VCWSDLBinding@@@ATL@@QBEPAVCWSDLBinding@@XZ 004888d0 f i WSDLParser.obj
 0001:00087930       ??C?$CAutoPtr@VCWSDLMessage@@@ATL@@QBEPAVCWSDLMessage@@XZ 00488930 f i WSDLParser.obj
 0001:00087990       ??C?$CAutoPtr@VCWSDLPortType@@@ATL@@QBEPAVCWSDLPortType@@XZ 00488990 f i WSDLParser.obj
 0001:000879f0       ??C?$CAutoPtr@VCWSDLService@@@ATL@@QBEPAVCWSDLService@@XZ 004889f0 f i WSDLParser.obj
 0001:00087a50       ??_GCNode@?$CAtlList@PAVCSchema@@V?$CElementTraits@PAVCSchema@@@ATL@@@ATL@@QAEPAXI@Z 00488a50 f i WSDLParser.obj
 0001:00087aa0       ??_GCNode@?$CAtlList@PAVCWSDLMessagePart@@V?$CElementTraits@PAVCWSDLMessagePart@@@ATL@@@ATL@@QAEPAXI@Z 00488aa0 f i WSDLParser.obj
 0001:00087af0       ??_GCNode@?$CAtlList@PAVCWSDLPort@@V?$CElementTraits@PAVCWSDLPort@@@ATL@@@ATL@@QAEPAXI@Z 00488af0 f i WSDLParser.obj
 0001:00087b40       ??_GCNode@?$CAtlList@PAVCWSDLType@@V?$CElementTraits@PAVCWSDLType@@@ATL@@@ATL@@QAEPAXI@Z 00488b40 f i WSDLParser.obj
 0001:00087b90       ??_GCNode@?$CAtlMap@V?$CStringT@_WV?$StrTraitATL@_WV?$ChTraitsCRT@_W@ATL@@@ATL@@@ATL@@PAVCWSDLBinding@@V?$CStringRefElementTraits@V?$CStringT@_WV?$StrTraitATL@_WV?$ChTraitsCRT@_W@ATL@@@ATL@@@ATL@@@2@V?$CElementTraits@PAVCWSDLBinding@@@2@@ATL@@QAEPAXI@Z 00488b90 f i WSDLParser.obj
 0001:00087be0       ??_GCNode@?$CAtlMap@V?$CStringT@_WV?$StrTraitATL@_WV?$ChTraitsCRT@_W@ATL@@@ATL@@@ATL@@PAVCWSDLMessage@@V?$CStringRefElementTraits@V?$CStringT@_WV?$StrTraitATL@_WV?$ChTraitsCRT@_W@ATL@@@ATL@@@ATL@@@2@V?$CElementTraits@PAVCWSDLMessage@@@2@@ATL@@QAEPAXI@Z 00488be0 f i WSDLParser.obj
 0001:00087c30       ??_GCNode@?$CAtlMap@V?$CStringT@_WV?$StrTraitATL@_WV?$ChTraitsCRT@_W@ATL@@@ATL@@@ATL@@PAVCWSDLPortType@@V?$CStringRefElementTraits@V?$CStringT@_WV?$StrTraitATL@_WV?$ChTraitsCRT@_W@ATL@@@ATL@@@ATL@@@2@V?$CElementTraits@PAVCWSDLPortType@@@2@@ATL@@QAEPAXI@Z 00488c30 f i WSDLParser.obj
 0001:00087c80       ??_GCNode@?$CAtlMap@V?$CStringT@_WV?$StrTraitATL@_WV?$ChTraitsCRT@_W@ATL@@@ATL@@@ATL@@PAVCWSDLService@@V?$CStringRefElementTraits@V?$CStringT@_WV?$StrTraitATL@_WV?$ChTraitsCRT@_W@ATL@@@ATL@@@ATL@@@2@V?$CElementTraits@PAVCWSDLService@@@2@@ATL@@QAEPAXI@Z 00488c80 f i WSDLParser.obj
 0001:00087cd0       ??_ECWSDLBinding@@UAEPAXI@Z 00488cd0 f i WSDLParser.obj
 0001:00087cd0       ??_GCWSDLBinding@@UAEPAXI@Z 00488cd0 f i WSDLParser.obj
 0001:00087d20       ??_ECWSDLBindingParser@@UAEPAXI@Z 00488d20 f i WSDLParser.obj
 0001:00087d20       ??_GCWSDLBindingParser@@UAEPAXI@Z 00488d20 f i WSDLParser.obj
 0001:00087d70       ??_ECWSDLDocument@@UAEPAXI@Z 00488d70 f i WSDLParser.obj
 0001:00087d70       ??_GCWSDLDocument@@UAEPAXI@Z 00488d70 f i WSDLParser.obj
 0001:00087dc0       ??_GCWSDLMessage@@UAEPAXI@Z 00488dc0 f i WSDLParser.obj
 0001:00087dc0       ??_ECWSDLMessage@@UAEPAXI@Z 00488dc0 f i WSDLParser.obj
 0001:00087e10       ??_ECWSDLMessageParser@@UAEPAXI@Z 00488e10 f i WSDLParser.obj
 0001:00087e10       ??_GCWSDLMessageParser@@UAEPAXI@Z 00488e10 f i WSDLParser.obj
 0001:00087e60       ??_ECWSDLParser@@UAEPAXI@Z 00488e60 f i WSDLParser.obj
 0001:00087e60       ??_GCWSDLParser@@UAEPAXI@Z 00488e60 f i WSDLParser.obj
 0001:00087eb0       ??_GCWSDLPortType@@UAEPAXI@Z 00488eb0 f i WSDLParser.obj
 0001:00087eb0       ??_ECWSDLPortType@@UAEPAXI@Z 00488eb0 f i WSDLParser.obj
 0001:00087f00       ??_ECWSDLPortTypeParser@@UAEPAXI@Z 00488f00 f i WSDLParser.obj
 0001:00087f00       ??_GCWSDLPortTypeParser@@UAEPAXI@Z 00488f00 f i WSDLParser.obj
 0001:00087f50       ??_ECWSDLService@@UAEPAXI@Z 00488f50 f i WSDLParser.obj
 0001:00087f50       ??_GCWSDLService@@UAEPAXI@Z 00488f50 f i WSDLParser.obj
 0001:00087fa0       ??_GCWSDLServiceParser@@UAEPAXI@Z 00488fa0 f i WSDLParser.obj
 0001:00087fa0       ??_ECWSDLServiceParser@@UAEPAXI@Z 00488fa0 f i WSDLParser.obj
 0001:00087ff0       ??_GCWSDLType@@UAEPAXI@Z   00488ff0 f i WSDLParser.obj
 0001:00087ff0       ??_ECWSDLType@@UAEPAXI@Z   00488ff0 f i WSDLParser.obj
 0001:00088040       ??_ECWSDLTypesParser@@UAEPAXI@Z 00489040 f i WSDLParser.obj
 0001:00088040       ??_GCWSDLTypesParser@@UAEPAXI@Z 00489040 f i WSDLParser.obj
 0001:00088090       ?AddBinding@CWSDLDocument@@QAEPAVCWSDLBinding@@PAV2@@Z 00489090 f i WSDLParser.obj
 0001:00088100       ?AddMessage@CWSDLDocument@@QAEPAVCWSDLMessage@@PAV2@@Z 00489100 f i WSDLParser.obj
 0001:00088170       ?AddPortType@CWSDLDocument@@QAEPAVCWSDLPortType@@PAV2@@Z 00489170 f i WSDLParser.obj
 0001:000881e0       ?AddService@CWSDLDocument@@QAEPAVCWSDLService@@PAV2@@Z 004891e0 f i WSDLParser.obj
 0001:00088250       ?AddTail@?$CAtlList@PAVCWSDLType@@V?$CElementTraits@PAVCWSDLType@@@ATL@@@ATL@@QAEPAU__POSITION@@ABQAVCWSDLType@@@Z 00489250 f i WSDLParser.obj
 0001:000882c0       ?AddType@CWSDLDocument@@QAEPAVCWSDLType@@PAV2@@Z 004892c0 f i WSDLParser.obj
 0001:00088400       ?Attach@?$CAutoPtr@VCWSDLBinding@@@ATL@@QAEXPAVCWSDLBinding@@@Z 00489400 f i WSDLParser.obj
 0001:00088470       ?Attach@?$CAutoPtr@VCWSDLDocument@@@ATL@@QAEXPAVCWSDLDocument@@@Z 00489470 f i WSDLParser.obj
 0001:000884e0       ?Attach@?$CAutoPtr@VCWSDLMessage@@@ATL@@QAEXPAVCWSDLMessage@@@Z 004894e0 f i WSDLParser.obj
 0001:00088550       ?Attach@?$CAutoPtr@VCWSDLPortType@@@ATL@@QAEXPAVCWSDLPortType@@@Z 00489550 f i WSDLParser.obj
 0001:000885c0       ?Attach@?$CAutoPtr@VCWSDLService@@@ATL@@QAEXPAVCWSDLService@@@Z 004895c0 f i WSDLParser.obj
 0001:00088630       ?Attach@?$CAutoPtr@VCWSDLType@@@ATL@@QAEXPAVCWSDLType@@@Z 00489630 f i WSDLParser.obj
 0001:000886a0       ?CreateNode@?$CAtlMap@V?$CStringT@_WV?$StrTraitATL@_WV?$ChTraitsCRT@_W@ATL@@@ATL@@@ATL@@PAVCWSDLBinding@@V?$CStringRefElementTraits@V?$CStringT@_WV?$StrTraitATL@_WV?$ChTraitsCRT@_W@ATL@@@ATL@@@ATL@@@2@V?$CElementTraits@PAVCWSDLBinding@@@2@@ATL@@AAEPAVCNode@12@ABV?$CStringT@_WV?$StrTraitATL@_WV?$ChTraitsCRT@_W@ATL@@@ATL@@@2@II@Z 004896a0 f i WSDLParser.obj
 0001:00088720       ?CreateNode@?$CAtlMap@V?$CStringT@_WV?$StrTraitATL@_WV?$ChTraitsCRT@_W@ATL@@@ATL@@@ATL@@PAVCWSDLMessage@@V?$CStringRefElementTraits@V?$CStringT@_WV?$StrTraitATL@_WV?$ChTraitsCRT@_W@ATL@@@ATL@@@ATL@@@2@V?$CElementTraits@PAVCWSDLMessage@@@2@@ATL@@AAEPAVCNode@12@ABV?$CStringT@_WV?$StrTraitATL@_WV?$ChTraitsCRT@_W@ATL@@@ATL@@@2@II@Z 00489720 f i WSDLParser.obj
 0001:000887a0       ?CreateNode@?$CAtlMap@V?$CStringT@_WV?$StrTraitATL@_WV?$ChTraitsCRT@_W@ATL@@@ATL@@@ATL@@PAVCWSDLPortType@@V?$CStringRefElementTraits@V?$CStringT@_WV?$StrTraitATL@_WV?$ChTraitsCRT@_W@ATL@@@ATL@@@ATL@@@2@V?$CElementTraits@PAVCWSDLPortType@@@2@@ATL@@AAEPAVCNode@12@ABV?$CStringT@_WV?$StrTraitATL@_WV?$ChTraitsCRT@_W@ATL@@@ATL@@@2@II@Z 004897a0 f i WSDLParser.obj
 0001:00088820       ?CreateNode@?$CAtlMap@V?$CStringT@_WV?$StrTraitATL@_WV?$ChTraitsCRT@_W@ATL@@@ATL@@@ATL@@PAVCWSDLService@@V?$CStringRefElementTraits@V?$CStringT@_WV?$StrTraitATL@_WV?$ChTraitsCRT@_W@ATL@@@ATL@@@ATL@@@2@V?$CElementTraits@PAVCWSDLService@@@2@@ATL@@AAEPAVCNode@12@ABV?$CStringT@_WV?$StrTraitATL@_WV?$ChTraitsCRT@_W@ATL@@@ATL@@@2@II@Z 00489820 f i WSDLParser.obj
 0001:000888a0       ?CreateNode@?$CAtlMap@V?$CStringT@_WV?$StrTraitATL@_WV?$ChTraitsCRT@_W@ATL@@@ATL@@@ATL@@V12@V?$CStringRefElementTraits@V?$CStringT@_WV?$StrTraitATL@_WV?$ChTraitsCRT@_W@ATL@@@ATL@@@ATL@@@2@V32@@ATL@@AAEPAVCNode@12@ABV?$CStringT@_WV?$StrTraitATL@_WV?$ChTraitsCRT@_W@ATL@@@ATL@@@2@II@Z 004898a0 f i WSDLParser.obj
 0001:00088920       ?CreateWSDLDocument@CWSDLParser@@QAEPAVCWSDLDocument@@XZ 00489920 f   WSDLParser.obj
 0001:000889e0       ?Detach@?$CAutoPtr@VCWSDLBinding@@@ATL@@QAEPAVCWSDLBinding@@XZ 004899e0 f i WSDLParser.obj
 0001:00088a10       ?Detach@?$CAutoPtr@VCWSDLMessage@@@ATL@@QAEPAVCWSDLMessage@@XZ 00489a10 f i WSDLParser.obj
 0001:00088a40       ?Detach@?$CAutoPtr@VCWSDLMessageParser@@@ATL@@QAEPAVCWSDLMessageParser@@XZ 00489a40 f i WSDLParser.obj
 0001:00088a70       ?Detach@?$CAutoPtr@VCWSDLPortType@@@ATL@@QAEPAVCWSDLPortType@@XZ 00489a70 f i WSDLParser.obj
 0001:00088aa0       ?Detach@?$CAutoPtr@VCWSDLPortTypeParser@@@ATL@@QAEPAVCWSDLPortTypeParser@@XZ 00489aa0 f i WSDLParser.obj
 0001:00088ad0       ?Detach@?$CAutoPtr@VCWSDLService@@@ATL@@QAEPAVCWSDLService@@XZ 00489ad0 f i WSDLParser.obj
 0001:00088b00       ?Detach@?$CAutoPtr@VCWSDLServiceParser@@@ATL@@QAEPAVCWSDLServiceParser@@XZ 00489b00 f i WSDLParser.obj
 0001:00088b30       ?Detach@?$CAutoPtr@VCWSDLType@@@ATL@@QAEPAVCWSDLType@@XZ 00489b30 f i WSDLParser.obj
 0001:00088b60       ?Detach@?$CAutoPtr@VCWSDLTypesParser@@@ATL@@QAEPAVCWSDLTypesParser@@XZ 00489b60 f i WSDLParser.obj
 0001:00088b90       ?DisableAutoRehash@?$CAtlMap@V?$CStringT@_WV?$StrTraitATL@_WV?$ChTraitsCRT@_W@ATL@@@ATL@@@ATL@@PAVCWSDLBinding@@V?$CStringRefElementTraits@V?$CStringT@_WV?$StrTraitATL@_WV?$ChTraitsCRT@_W@ATL@@@ATL@@@ATL@@@2@V?$CElementTraits@PAVCWSDLBinding@@@2@@ATL@@QAEXXZ 00489b90 f i WSDLParser.obj
 0001:00088bc0       ?DisableAutoRehash@?$CAtlMap@V?$CStringT@_WV?$StrTraitATL@_WV?$ChTraitsCRT@_W@ATL@@@ATL@@@ATL@@PAVCWSDLMessage@@V?$CStringRefElementTraits@V?$CStringT@_WV?$StrTraitATL@_WV?$ChTraitsCRT@_W@ATL@@@ATL@@@ATL@@@2@V?$CElementTraits@PAVCWSDLMessage@@@2@@ATL@@QAEXXZ 00489bc0 f i WSDLParser.obj
 0001:00088bf0       ?DisableAutoRehash@?$CAtlMap@V?$CStringT@_WV?$StrTraitATL@_WV?$ChTraitsCRT@_W@ATL@@@ATL@@@ATL@@PAVCWSDLPortType@@V?$CStringRefElementTraits@V?$CStringT@_WV?$StrTraitATL@_WV?$ChTraitsCRT@_W@ATL@@@ATL@@@ATL@@@2@V?$CElementTraits@PAVCWSDLPortType@@@2@@ATL@@QAEXXZ 00489bf0 f i WSDLParser.obj
 0001:00088c20       ?DisableAutoRehash@?$CAtlMap@V?$CStringT@_WV?$StrTraitATL@_WV?$ChTraitsCRT@_W@ATL@@@ATL@@@ATL@@PAVCWSDLPortTypeOperation@@V?$CStringRefElementTraits@V?$CStringT@_WV?$StrTraitATL@_WV?$ChTraitsCRT@_W@ATL@@@ATL@@@ATL@@@2@V?$CElementTraits@PAVCWSDLPortTypeOperation@@@2@@ATL@@QAEXXZ 00489c20 f i WSDLParser.obj
 0001:00088c50       ?DisableAutoRehash@?$CAtlMap@V?$CStringT@_WV?$StrTraitATL@_WV?$ChTraitsCRT@_W@ATL@@@ATL@@@ATL@@PAVCWSDLService@@V?$CStringRefElementTraits@V?$CStringT@_WV?$StrTraitATL@_WV?$ChTraitsCRT@_W@ATL@@@ATL@@@ATL@@@2@V?$CElementTraits@PAVCWSDLService@@@2@@ATL@@QAEXXZ 00489c50 f i WSDLParser.obj
 0001:00088c80       ?EnableAutoRehash@?$CAtlMap@V?$CStringT@_WV?$StrTraitATL@_WV?$ChTraitsCRT@_W@ATL@@@ATL@@@ATL@@PAVCWSDLBinding@@V?$CStringRefElementTraits@V?$CStringT@_WV?$StrTraitATL@_WV?$ChTraitsCRT@_W@ATL@@@ATL@@@ATL@@@2@V?$CElementTraits@PAVCWSDLBinding@@@2@@ATL@@QAEXXZ 00489c80 f i WSDLParser.obj
 0001:00088cf0       ?EnableAutoRehash@?$CAtlMap@V?$CStringT@_WV?$StrTraitATL@_WV?$ChTraitsCRT@_W@ATL@@@ATL@@@ATL@@PAVCWSDLMessage@@V?$CStringRefElementTraits@V?$CStringT@_WV?$StrTraitATL@_WV?$ChTraitsCRT@_W@ATL@@@ATL@@@ATL@@@2@V?$CElementTraits@PAVCWSDLMessage@@@2@@ATL@@QAEXXZ 00489cf0 f i WSDLParser.obj
 0001:00088d60       ?EnableAutoRehash@?$CAtlMap@V?$CStringT@_WV?$StrTraitATL@_WV?$ChTraitsCRT@_W@ATL@@@ATL@@@ATL@@PAVCWSDLPortType@@V?$CStringRefElementTraits@V?$CStringT@_WV?$StrTraitATL@_WV?$ChTraitsCRT@_W@ATL@@@ATL@@@ATL@@@2@V?$CElementTraits@PAVCWSDLPortType@@@2@@ATL@@QAEXXZ 00489d60 f i WSDLParser.obj
 0001:00088dd0       ?EnableAutoRehash@?$CAtlMap@V?$CStringT@_WV?$StrTraitATL@_WV?$ChTraitsCRT@_W@ATL@@@ATL@@@ATL@@PAVCWSDLPortTypeOperation@@V?$CStringRefElementTraits@V?$CStringT@_WV?$StrTraitATL@_WV?$ChTraitsCRT@_W@ATL@@@ATL@@@ATL@@@2@V?$CElementTraits@PAVCWSDLPortTypeOperation@@@2@@ATL@@QAEXXZ 00489dd0 f i WSDLParser.obj
 0001:00088e40       ?EnableAutoRehash@?$CAtlMap@V?$CStringT@_WV?$StrTraitATL@_WV?$ChTraitsCRT@_W@ATL@@@ATL@@@ATL@@PAVCWSDLService@@V?$CStringRefElementTraits@V?$CStringT@_WV?$StrTraitATL@_WV?$ChTraitsCRT@_W@ATL@@@ATL@@@ATL@@@2@V?$CElementTraits@PAVCWSDLService@@@2@@ATL@@QAEXXZ 00489e40 f i WSDLParser.obj
 0001:00088eb0       ?FindNextNode@?$CAtlMap@V?$CStringT@_WV?$StrTraitATL@_WV?$ChTraitsCRT@_W@ATL@@@ATL@@@ATL@@PAVCWSDLBinding@@V?$CStringRefElementTraits@V?$CStringT@_WV?$StrTraitATL@_WV?$ChTraitsCRT@_W@ATL@@@ATL@@@ATL@@@2@V?$CElementTraits@PAVCWSDLBinding@@@2@@ATL@@ABEPAVCNode@12@PAV312@@Z 00489eb0 f i WSDLParser.obj
 0001:00088fa0       ?FindNextNode@?$CAtlMap@V?$CStringT@_WV?$StrTraitATL@_WV?$ChTraitsCRT@_W@ATL@@@ATL@@@ATL@@PAVCWSDLMessage@@V?$CStringRefElementTraits@V?$CStringT@_WV?$StrTraitATL@_WV?$ChTraitsCRT@_W@ATL@@@ATL@@@ATL@@@2@V?$CElementTraits@PAVCWSDLMessage@@@2@@ATL@@ABEPAVCNode@12@PAV312@@Z 00489fa0 f i WSDLParser.obj
 0001:00089090       ?FindNextNode@?$CAtlMap@V?$CStringT@_WV?$StrTraitATL@_WV?$ChTraitsCRT@_W@ATL@@@ATL@@@ATL@@PAVCWSDLPortType@@V?$CStringRefElementTraits@V?$CStringT@_WV?$StrTraitATL@_WV?$ChTraitsCRT@_W@ATL@@@ATL@@@ATL@@@2@V?$CElementTraits@PAVCWSDLPortType@@@2@@ATL@@ABEPAVCNode@12@PAV312@@Z 0048a090 f i WSDLParser.obj
 0001:00089180       ?Free@?$CAutoPtr@VCHttpBinding@@@ATL@@QAEXXZ 0048a180 f i WSDLParser.obj
 0001:000891e0       ?Free@?$CAutoPtr@VCSoapBinding@@@ATL@@QAEXXZ 0048a1e0 f i WSDLParser.obj
 0001:00089240       ?Free@?$CAutoPtr@VCWSDLBinding@@@ATL@@QAEXXZ 0048a240 f i WSDLParser.obj
 0001:000892a0       ?Free@?$CAutoPtr@VCWSDLMessage@@@ATL@@QAEXXZ 0048a2a0 f i WSDLParser.obj
 0001:00089300       ?Free@?$CAutoPtr@VCWSDLMessageParser@@@ATL@@QAEXXZ 0048a300 f i WSDLParser.obj
 0001:00089360       ?Free@?$CAutoPtr@VCWSDLPortType@@@ATL@@QAEXXZ 0048a360 f i WSDLParser.obj
 0001:000893c0       ?Free@?$CAutoPtr@VCWSDLPortTypeParser@@@ATL@@QAEXXZ 0048a3c0 f i WSDLParser.obj
 0001:00089420       ?Free@?$CAutoPtr@VCWSDLService@@@ATL@@QAEXXZ 0048a420 f i WSDLParser.obj
 0001:00089480       ?Free@?$CAutoPtr@VCWSDLServiceParser@@@ATL@@QAEXXZ 0048a480 f i WSDLParser.obj
 0001:000894e0       ?Free@?$CAutoPtr@VCWSDLType@@@ATL@@QAEXXZ 0048a4e0 f i WSDLParser.obj
 0001:00089540       ?Free@?$CAutoPtr@VCWSDLTypesParser@@@ATL@@QAEXXZ 0048a540 f i WSDLParser.obj
 0001:000895a0       ?FreeNode@?$CAtlList@PAVCSchema@@V?$CElementTraits@PAVCSchema@@@ATL@@@ATL@@AAEXPAVCNode@12@@Z 0048a5a0 f i WSDLParser.obj
 0001:00089650       ?FreeNode@?$CAtlList@PAVCWSDLMessagePart@@V?$CElementTraits@PAVCWSDLMessagePart@@@ATL@@@ATL@@AAEXPAVCNode@12@@Z 0048a650 f i WSDLParser.obj
 0001:00089700       ?FreeNode@?$CAtlList@PAVCWSDLPort@@V?$CElementTraits@PAVCWSDLPort@@@ATL@@@ATL@@AAEXPAVCNode@12@@Z 0048a700 f i WSDLParser.obj
 0001:000897b0       ?FreeNode@?$CAtlList@PAVCWSDLType@@V?$CElementTraits@PAVCWSDLType@@@ATL@@@ATL@@AAEXPAVCNode@12@@Z 0048a7b0 f i WSDLParser.obj
 0001:00089860       ?FreeNode@?$CAtlMap@V?$CStringT@_WV?$StrTraitATL@_WV?$ChTraitsCRT@_W@ATL@@@ATL@@@ATL@@PAVCWSDLBinding@@V?$CStringRefElementTraits@V?$CStringT@_WV?$StrTraitATL@_WV?$ChTraitsCRT@_W@ATL@@@ATL@@@ATL@@@2@V?$CElementTraits@PAVCWSDLBinding@@@2@@ATL@@AAEXPAVCNode@12@@Z 0048a860 f i WSDLParser.obj
 0001:000899d0       ?FreeNode@?$CAtlMap@V?$CStringT@_WV?$StrTraitATL@_WV?$ChTraitsCRT@_W@ATL@@@ATL@@@ATL@@PAVCWSDLMessage@@V?$CStringRefElementTraits@V?$CStringT@_WV?$StrTraitATL@_WV?$ChTraitsCRT@_W@ATL@@@ATL@@@ATL@@@2@V?$CElementTraits@PAVCWSDLMessage@@@2@@ATL@@AAEXPAVCNode@12@@Z 0048a9d0 f i WSDLParser.obj
 0001:00089b40       ?FreeNode@?$CAtlMap@V?$CStringT@_WV?$StrTraitATL@_WV?$ChTraitsCRT@_W@ATL@@@ATL@@@ATL@@PAVCWSDLPortType@@V?$CStringRefElementTraits@V?$CStringT@_WV?$StrTraitATL@_WV?$ChTraitsCRT@_W@ATL@@@ATL@@@ATL@@@2@V?$CElementTraits@PAVCWSDLPortType@@@2@@ATL@@AAEXPAVCNode@12@@Z 0048ab40 f i WSDLParser.obj
 0001:00089cb0       ?FreeNode@?$CAtlMap@V?$CStringT@_WV?$StrTraitATL@_WV?$ChTraitsCRT@_W@ATL@@@ATL@@@ATL@@PAVCWSDLService@@V?$CStringRefElementTraits@V?$CStringT@_WV?$StrTraitATL@_WV?$ChTraitsCRT@_W@ATL@@@ATL@@@ATL@@@2@V?$CElementTraits@PAVCWSDLService@@@2@@ATL@@AAEXPAVCNode@12@@Z 0048acb0 f i WSDLParser.obj
 0001:00089e20       ?FreePlexes@?$CAtlMap@V?$CStringT@_WV?$StrTraitATL@_WV?$ChTraitsCRT@_W@ATL@@@ATL@@@ATL@@PAVCWSDLBinding@@V?$CStringRefElementTraits@V?$CStringT@_WV?$StrTraitATL@_WV?$ChTraitsCRT@_W@ATL@@@ATL@@@ATL@@@2@V?$CElementTraits@PAVCWSDLBinding@@@2@@ATL@@AAEXXZ 0048ae20 f i WSDLParser.obj
 0001:00089e70       ?FreePlexes@?$CAtlMap@V?$CStringT@_WV?$StrTraitATL@_WV?$ChTraitsCRT@_W@ATL@@@ATL@@@ATL@@PAVCWSDLMessage@@V?$CStringRefElementTraits@V?$CStringT@_WV?$StrTraitATL@_WV?$ChTraitsCRT@_W@ATL@@@ATL@@@ATL@@@2@V?$CElementTraits@PAVCWSDLMessage@@@2@@ATL@@AAEXXZ 0048ae70 f i WSDLParser.obj
 0001:00089ec0       ?FreePlexes@?$CAtlMap@V?$CStringT@_WV?$StrTraitATL@_WV?$ChTraitsCRT@_W@ATL@@@ATL@@@ATL@@PAVCWSDLPortType@@V?$CStringRefElementTraits@V?$CStringT@_WV?$StrTraitATL@_WV?$ChTraitsCRT@_W@ATL@@@ATL@@@ATL@@@2@V?$CElementTraits@PAVCWSDLPortType@@@2@@ATL@@AAEXXZ 0048aec0 f i WSDLParser.obj
 0001:00089f10       ?FreePlexes@?$CAtlMap@V?$CStringT@_WV?$StrTraitATL@_WV?$ChTraitsCRT@_W@ATL@@@ATL@@@ATL@@PAVCWSDLService@@V?$CStringRefElementTraits@V?$CStringT@_WV?$StrTraitATL@_WV?$ChTraitsCRT@_W@ATL@@@ATL@@@ATL@@@2@V?$CElementTraits@PAVCWSDLService@@@2@@ATL@@AAEXXZ 0048af10 f i WSDLParser.obj
 0001:00089f60       ?GetAt@?$CAtlList@PAVCSchema@@V?$CElementTraits@PAVCSchema@@@ATL@@@ATL@@QAEAAPAVCSchema@@PAU__POSITION@@@Z 0048af60 f i WSDLParser.obj
 0001:0008a010       ?GetAt@?$CAtlList@PAVCWSDLPort@@V?$CElementTraits@PAVCWSDLPort@@@ATL@@@ATL@@QAEAAPAVCWSDLPort@@PAU__POSITION@@@Z 0048b010 f i WSDLParser.obj
 0001:0008a0c0       ?GetAt@?$CAtlList@PAVCWSDLType@@V?$CElementTraits@PAVCWSDLType@@@ATL@@@ATL@@QAEAAPAVCWSDLType@@PAU__POSITION@@@Z 0048b0c0 f i WSDLParser.obj
 0001:0008a170       ?GetFreeNode@?$CAtlList@PAVCWSDLType@@V?$CElementTraits@PAVCWSDLType@@@ATL@@@ATL@@AAEXXZ 0048b170 f i WSDLParser.obj
 0001:0008a280       ?GetHash@CNode@?$CAtlMap@V?$CStringT@_WV?$StrTraitATL@_WV?$ChTraitsCRT@_W@ATL@@@ATL@@@ATL@@PAVCWSDLBinding@@V?$CStringRefElementTraits@V?$CStringT@_WV?$StrTraitATL@_WV?$ChTraitsCRT@_W@ATL@@@ATL@@@ATL@@@2@V?$CElementTraits@PAVCWSDLBinding@@@2@@ATL@@QBEIXZ 0048b280 f i WSDLParser.obj
 0001:0008a2a0       ?GetHash@CNode@?$CAtlMap@V?$CStringT@_WV?$StrTraitATL@_WV?$ChTraitsCRT@_W@ATL@@@ATL@@@ATL@@PAVCWSDLMessage@@V?$CStringRefElementTraits@V?$CStringT@_WV?$StrTraitATL@_WV?$ChTraitsCRT@_W@ATL@@@ATL@@@ATL@@@2@V?$CElementTraits@PAVCWSDLMessage@@@2@@ATL@@QBEIXZ 0048b2a0 f i WSDLParser.obj
 0001:0008a2c0       ?GetName@CWSDLBinding@@QAEABV?$CStringT@_WV?$StrTraitATL@_WV?$ChTraitsCRT@_W@ATL@@@ATL@@@ATL@@XZ 0048b2c0 f i WSDLParser.obj
 0001:0008a2e0       ?GetName@CWSDLMessage@@QAEABV?$CStringT@_WV?$StrTraitATL@_WV?$ChTraitsCRT@_W@ATL@@@ATL@@@ATL@@XZ 0048b2e0 f i WSDLParser.obj
 0001:0008a300       ?GetName@CWSDLPortType@@QAEABV?$CStringT@_WV?$StrTraitATL@_WV?$ChTraitsCRT@_W@ATL@@@ATL@@@ATL@@XZ 0048b300 f i WSDLParser.obj
 0001:0008a320       ?GetNext@?$CAtlMap@V?$CStringT@_WV?$StrTraitATL@_WV?$ChTraitsCRT@_W@ATL@@@ATL@@@ATL@@PAVCWSDLBinding@@V?$CStringRefElementTraits@V?$CStringT@_WV?$StrTraitATL@_WV?$ChTraitsCRT@_W@ATL@@@ATL@@@ATL@@@2@V?$CElementTraits@PAVCWSDLBinding@@@2@@ATL@@QAEPAVCPair@12@AAPAU__POSITION@@@Z 0048b320 f i WSDLParser.obj
 0001:0008a3e0       ?GetNext@?$CAtlMap@V?$CStringT@_WV?$StrTraitATL@_WV?$ChTraitsCRT@_W@ATL@@@ATL@@@ATL@@PAVCWSDLMessage@@V?$CStringRefElementTraits@V?$CStringT@_WV?$StrTraitATL@_WV?$ChTraitsCRT@_W@ATL@@@ATL@@@ATL@@@2@V?$CElementTraits@PAVCWSDLMessage@@@2@@ATL@@QAEPAVCPair@12@AAPAU__POSITION@@@Z 0048b3e0 f i WSDLParser.obj
 0001:0008a4a0       ?GetNext@?$CAtlMap@V?$CStringT@_WV?$StrTraitATL@_WV?$ChTraitsCRT@_W@ATL@@@ATL@@@ATL@@PAVCWSDLPortType@@V?$CStringRefElementTraits@V?$CStringT@_WV?$StrTraitATL@_WV?$ChTraitsCRT@_W@ATL@@@ATL@@@ATL@@@2@V?$CElementTraits@PAVCWSDLPortType@@@2@@ATL@@QAEPAVCPair@12@AAPAU__POSITION@@@Z 0048b4a0 f i WSDLParser.obj
 0001:0008a560       ?GetNext@?$CAtlMap@V?$CStringT@_WV?$StrTraitATL@_WV?$ChTraitsCRT@_W@ATL@@@ATL@@@ATL@@PAVCWSDLPortTypeOperation@@V?$CStringRefElementTraits@V?$CStringT@_WV?$StrTraitATL@_WV?$ChTraitsCRT@_W@ATL@@@ATL@@@ATL@@@2@V?$CElementTraits@PAVCWSDLPortTypeOperation@@@2@@ATL@@QAEPAVCPair@12@AAPAU__POSITION@@@Z 0048b560 f i WSDLParser.obj
 0001:0008a620       ?GetNext@?$CAtlMap@V?$CStringT@_WV?$StrTraitATL@_WV?$ChTraitsCRT@_W@ATL@@@ATL@@@ATL@@PAVCWSDLService@@V?$CStringRefElementTraits@V?$CStringT@_WV?$StrTraitATL@_WV?$ChTraitsCRT@_W@ATL@@@ATL@@@ATL@@@2@V?$CElementTraits@PAVCWSDLService@@@2@@ATL@@QAEPAVCPair@12@AAPAU__POSITION@@@Z 0048b620 f i WSDLParser.obj
 0001:0008a6e0       ?GetNode@?$CAtlMap@V?$CStringT@_WV?$StrTraitATL@_WV?$ChTraitsCRT@_W@ATL@@@ATL@@@ATL@@PAVCWSDLBinding@@V?$CStringRefElementTraits@V?$CStringT@_WV?$StrTraitATL@_WV?$ChTraitsCRT@_W@ATL@@@ATL@@@ATL@@@2@V?$CElementTraits@PAVCWSDLBinding@@@2@@ATL@@ABEPAVCNode@12@ABV?$CStringT@_WV?$StrTraitATL@_WV?$ChTraitsCRT@_W@ATL@@@ATL@@@2@AAI1AAPAV312@@Z 0048b6e0 f i WSDLParser.obj
 0001:0008a7c0       ?GetNode@?$CAtlMap@V?$CStringT@_WV?$StrTraitATL@_WV?$ChTraitsCRT@_W@ATL@@@ATL@@@ATL@@PAVCWSDLMessage@@V?$CStringRefElementTraits@V?$CStringT@_WV?$StrTraitATL@_WV?$ChTraitsCRT@_W@ATL@@@ATL@@@ATL@@@2@V?$CElementTraits@PAVCWSDLMessage@@@2@@ATL@@ABEPAVCNode@12@ABV?$CStringT@_WV?$StrTraitATL@_WV?$ChTraitsCRT@_W@ATL@@@ATL@@@2@AAI1AAPAV312@@Z 0048b7c0 f i WSDLParser.obj
 0001:0008a8a0       ?GetNode@?$CAtlMap@V?$CStringT@_WV?$StrTraitATL@_WV?$ChTraitsCRT@_W@ATL@@@ATL@@@ATL@@PAVCWSDLService@@V?$CStringRefElementTraits@V?$CStringT@_WV?$StrTraitATL@_WV?$ChTraitsCRT@_W@ATL@@@ATL@@@ATL@@@2@V?$CElementTraits@PAVCWSDLService@@@2@@ATL@@ABEPAVCNode@12@ABV?$CStringT@_WV?$StrTraitATL@_WV?$ChTraitsCRT@_W@ATL@@@ATL@@@2@AAI1AAPAV312@@Z 0048b8a0 f i WSDLParser.obj
 0001:0008a980       ?GetNode@?$CAtlMap@V?$CStringT@_WV?$StrTraitATL@_WV?$ChTraitsCRT@_W@ATL@@@ATL@@@ATL@@V12@V?$CStringRefElementTraits@V?$CStringT@_WV?$StrTraitATL@_WV?$ChTraitsCRT@_W@ATL@@@ATL@@@ATL@@@2@V32@@ATL@@ABEPAVCNode@12@ABV?$CStringT@_WV?$StrTraitATL@_WV?$ChTraitsCRT@_W@ATL@@@ATL@@@2@AAI1AAPAV312@@Z 0048b980 f i WSDLParser.obj
 0001:0008aa60       ?GetStartPosition@?$CAtlMap@V?$CStringT@_WV?$StrTraitATL@_WV?$ChTraitsCRT@_W@ATL@@@ATL@@@ATL@@PAVCWSDLBinding@@V?$CStringRefElementTraits@V?$CStringT@_WV?$StrTraitATL@_WV?$ChTraitsCRT@_W@ATL@@@ATL@@@ATL@@@2@V?$CElementTraits@PAVCWSDLBinding@@@2@@ATL@@QBEPAU__POSITION@@XZ 0048ba60 f i WSDLParser.obj
 0001:0008ab10       ?GetStartPosition@?$CAtlMap@V?$CStringT@_WV?$StrTraitATL@_WV?$ChTraitsCRT@_W@ATL@@@ATL@@@ATL@@PAVCWSDLMessage@@V?$CStringRefElementTraits@V?$CStringT@_WV?$StrTraitATL@_WV?$ChTraitsCRT@_W@ATL@@@ATL@@@ATL@@@2@V?$CElementTraits@PAVCWSDLMessage@@@2@@ATL@@QBEPAU__POSITION@@XZ 0048bb10 f i WSDLParser.obj
 0001:0008abc0       ?GetStartPosition@?$CAtlMap@V?$CStringT@_WV?$StrTraitATL@_WV?$ChTraitsCRT@_W@ATL@@@ATL@@@ATL@@PAVCWSDLPortType@@V?$CStringRefElementTraits@V?$CStringT@_WV?$StrTraitATL@_WV?$ChTraitsCRT@_W@ATL@@@ATL@@@ATL@@@2@V?$CElementTraits@PAVCWSDLPortType@@@2@@ATL@@QBEPAU__POSITION@@XZ 0048bbc0 f i WSDLParser.obj
 0001:0008ac70       ?GetValueAt@?$CAtlMap@V?$CStringT@_WV?$StrTraitATL@_WV?$ChTraitsCRT@_W@ATL@@@ATL@@@ATL@@PAVCWSDLBinding@@V?$CStringRefElementTraits@V?$CStringT@_WV?$StrTraitATL@_WV?$ChTraitsCRT@_W@ATL@@@ATL@@@ATL@@@2@V?$CElementTraits@PAVCWSDLBinding@@@2@@ATL@@QAEAAPAVCWSDLBinding@@PAU__POSITION@@@Z 0048bc70 f i WSDLParser.obj
 0001:0008ad20       ?GetValueAt@?$CAtlMap@V?$CStringT@_WV?$StrTraitATL@_WV?$ChTraitsCRT@_W@ATL@@@ATL@@@ATL@@PAVCWSDLMessage@@V?$CStringRefElementTraits@V?$CStringT@_WV?$StrTraitATL@_WV?$ChTraitsCRT@_W@ATL@@@ATL@@@ATL@@@2@V?$CElementTraits@PAVCWSDLMessage@@@2@@ATL@@QAEAAPAVCWSDLMessage@@PAU__POSITION@@@Z 0048bd20 f i WSDLParser.obj
 0001:0008add0       ?GetValueAt@?$CAtlMap@V?$CStringT@_WV?$StrTraitATL@_WV?$ChTraitsCRT@_W@ATL@@@ATL@@@ATL@@PAVCWSDLPortType@@V?$CStringRefElementTraits@V?$CStringT@_WV?$StrTraitATL@_WV?$ChTraitsCRT@_W@ATL@@@ATL@@@ATL@@@2@V?$CElementTraits@PAVCWSDLPortType@@@2@@ATL@@QAEAAPAVCWSDLPortType@@PAU__POSITION@@@Z 0048bdd0 f i WSDLParser.obj
 0001:0008ae80       ?GetValueAt@?$CAtlMap@V?$CStringT@_WV?$StrTraitATL@_WV?$ChTraitsCRT@_W@ATL@@@ATL@@@ATL@@PAVCWSDLPortTypeOperation@@V?$CStringRefElementTraits@V?$CStringT@_WV?$StrTraitATL@_WV?$ChTraitsCRT@_W@ATL@@@ATL@@@ATL@@@2@V?$CElementTraits@PAVCWSDLPortTypeOperation@@@2@@ATL@@QAEAAPAVCWSDLPortTypeOperation@@PAU__POSITION@@@Z 0048be80 f i WSDLParser.obj
 0001:0008af30       ?GetValueAt@?$CAtlMap@V?$CStringT@_WV?$StrTraitATL@_WV?$ChTraitsCRT@_W@ATL@@@ATL@@@ATL@@PAVCWSDLService@@V?$CStringRefElementTraits@V?$CStringT@_WV?$StrTraitATL@_WV?$ChTraitsCRT@_W@ATL@@@ATL@@@ATL@@@2@V?$CElementTraits@PAVCWSDLService@@@2@@ATL@@QAEAAPAVCWSDLService@@PAU__POSITION@@@Z 0048bf30 f i WSDLParser.obj
 0001:0008afe0       ?GetXMLATTRMap@CWSDLBindingParser@@UAEPBUXMLTAG@@XZ 0048bfe0 f i WSDLParser.obj
 0001:0008b230       ?GetXMLATTRMap@CWSDLMessageParser@@UAEPBUXMLTAG@@XZ 0048c230 f i WSDLParser.obj
 0001:0008b380       ?GetXMLATTRMap@CWSDLParser@@UAEPBUXMLTAG@@XZ 0048c380 f i WSDLParser.obj
 0001:0008b5d0       ?GetXMLATTRMap@CWSDLPortTypeParser@@UAEPBUXMLTAG@@XZ 0048c5d0 f i WSDLParser.obj
 0001:0008b720       ?GetXMLATTRMap@CWSDLServiceParser@@UAEPBUXMLTAG@@XZ 0048c720 f i WSDLParser.obj
 0001:0008b870       ?GetXMLATTRMap@CWSDLTypesParser@@UAEPBUXMLTAG@@XZ 0048c870 f i WSDLParser.obj
 0001:0008b890       ?GetXMLTAGMap@CWSDLBindingParser@@UAEPBUXMLTAG@@XZ 0048c890 f i WSDLParser.obj
 0001:0008bd40       ?GetXMLTAGMap@CWSDLMessageParser@@UAEPBUXMLTAG@@XZ 0048cd40 f i WSDLParser.obj
 0001:0008bf90       ?GetXMLTAGMap@CWSDLParser@@UAEPBUXMLTAG@@XZ 0048cf90 f i WSDLParser.obj
 0001:0008c900       ?GetXMLTAGMap@CWSDLPortTypeParser@@UAEPBUXMLTAG@@XZ 0048d900 f i WSDLParser.obj
 0001:0008cb50       ?GetXMLTAGMap@CWSDLServiceParser@@UAEPBUXMLTAG@@XZ 0048db50 f i WSDLParser.obj
 0001:0008cda0       ?GetXMLTAGMap@CWSDLTypesParser@@UAEPBUXMLTAG@@XZ 0048dda0 f i WSDLParser.obj
 0001:0008cff0       ?InitHashTable@?$CAtlMap@V?$CStringT@_WV?$StrTraitATL@_WV?$ChTraitsCRT@_W@ATL@@@ATL@@@ATL@@PAVCWSDLBinding@@V?$CStringRefElementTraits@V?$CStringT@_WV?$StrTraitATL@_WV?$ChTraitsCRT@_W@ATL@@@ATL@@@ATL@@@2@V?$CElementTraits@PAVCWSDLBinding@@@2@@ATL@@QAE_NI_N@Z 0048dff0 f i WSDLParser.obj
 0001:0008d1c0       ?InitHashTable@?$CAtlMap@V?$CStringT@_WV?$StrTraitATL@_WV?$ChTraitsCRT@_W@ATL@@@ATL@@@ATL@@PAVCWSDLMessage@@V?$CStringRefElementTraits@V?$CStringT@_WV?$StrTraitATL@_WV?$ChTraitsCRT@_W@ATL@@@ATL@@@ATL@@@2@V?$CElementTraits@PAVCWSDLMessage@@@2@@ATL@@QAE_NI_N@Z 0048e1c0 f i WSDLParser.obj
 0001:0008d390       ?InitHashTable@?$CAtlMap@V?$CStringT@_WV?$StrTraitATL@_WV?$ChTraitsCRT@_W@ATL@@@ATL@@@ATL@@PAVCWSDLPortType@@V?$CStringRefElementTraits@V?$CStringT@_WV?$StrTraitATL@_WV?$ChTraitsCRT@_W@ATL@@@ATL@@@ATL@@@2@V?$CElementTraits@PAVCWSDLPortType@@@2@@ATL@@QAE_NI_N@Z 0048e390 f i WSDLParser.obj
 0001:0008d560       ?InitHashTable@?$CAtlMap@V?$CStringT@_WV?$StrTraitATL@_WV?$ChTraitsCRT@_W@ATL@@@ATL@@@ATL@@PAVCWSDLService@@V?$CStringRefElementTraits@V?$CStringT@_WV?$StrTraitATL@_WV?$ChTraitsCRT@_W@ATL@@@ATL@@@ATL@@@2@V?$CElementTraits@PAVCWSDLService@@@2@@ATL@@QAE_NI_N@Z 0048e560 f i WSDLParser.obj
 0001:0008d730       ?IsEmpty@?$CAtlMap@V?$CStringT@_WV?$StrTraitATL@_WV?$ChTraitsCRT@_W@ATL@@@ATL@@@ATL@@PAVCWSDLBinding@@V?$CStringRefElementTraits@V?$CStringT@_WV?$StrTraitATL@_WV?$ChTraitsCRT@_W@ATL@@@ATL@@@ATL@@@2@V?$CElementTraits@PAVCWSDLBinding@@@2@@ATL@@QBE_NXZ 0048e730 f i WSDLParser.obj
 0001:0008d770       ?IsEmpty@?$CAtlMap@V?$CStringT@_WV?$StrTraitATL@_WV?$ChTraitsCRT@_W@ATL@@@ATL@@@ATL@@PAVCWSDLMessage@@V?$CStringRefElementTraits@V?$CStringT@_WV?$StrTraitATL@_WV?$ChTraitsCRT@_W@ATL@@@ATL@@@ATL@@@2@V?$CElementTraits@PAVCWSDLMessage@@@2@@ATL@@QBE_NXZ 0048e770 f i WSDLParser.obj
 0001:0008d7b0       ?IsEmpty@?$CAtlMap@V?$CStringT@_WV?$StrTraitATL@_WV?$ChTraitsCRT@_W@ATL@@@ATL@@@ATL@@PAVCWSDLPortType@@V?$CStringRefElementTraits@V?$CStringT@_WV?$StrTraitATL@_WV?$ChTraitsCRT@_W@ATL@@@ATL@@@ATL@@@2@V?$CElementTraits@PAVCWSDLPortType@@@2@@ATL@@QBE_NXZ 0048e7b0 f i WSDLParser.obj
 0001:0008d7f0       ?IsLocked@?$CAtlMap@V?$CStringT@_WV?$StrTraitATL@_WV?$ChTraitsCRT@_W@ATL@@@ATL@@@ATL@@PAVCWSDLBinding@@V?$CStringRefElementTraits@V?$CStringT@_WV?$StrTraitATL@_WV?$ChTraitsCRT@_W@ATL@@@ATL@@@ATL@@@2@V?$CElementTraits@PAVCWSDLBinding@@@2@@ATL@@ABE_NXZ 0048e7f0 f i WSDLParser.obj
 0001:0008d830       ?IsLocked@?$CAtlMap@V?$CStringT@_WV?$StrTraitATL@_WV?$ChTraitsCRT@_W@ATL@@@ATL@@@ATL@@PAVCWSDLMessage@@V?$CStringRefElementTraits@V?$CStringT@_WV?$StrTraitATL@_WV?$ChTraitsCRT@_W@ATL@@@ATL@@@ATL@@@2@V?$CElementTraits@PAVCWSDLMessage@@@2@@ATL@@ABE_NXZ 0048e830 f i WSDLParser.obj
 0001:0008d870       ?IsLocked@?$CAtlMap@V?$CStringT@_WV?$StrTraitATL@_WV?$ChTraitsCRT@_W@ATL@@@ATL@@@ATL@@PAVCWSDLPortType@@V?$CStringRefElementTraits@V?$CStringT@_WV?$StrTraitATL@_WV?$ChTraitsCRT@_W@ATL@@@ATL@@@ATL@@@2@V?$CElementTraits@PAVCWSDLPortType@@@2@@ATL@@ABE_NXZ 0048e870 f i WSDLParser.obj
 0001:0008d8b0       ?IsLocked@?$CAtlMap@V?$CStringT@_WV?$StrTraitATL@_WV?$ChTraitsCRT@_W@ATL@@@ATL@@@ATL@@PAVCWSDLService@@V?$CStringRefElementTraits@V?$CStringT@_WV?$StrTraitATL@_WV?$ChTraitsCRT@_W@ATL@@@ATL@@@ATL@@@2@V?$CElementTraits@PAVCWSDLService@@@2@@ATL@@ABE_NXZ 0048e8b0 f i WSDLParser.obj
 0001:0008d8f0       ?NewNode@?$CAtlList@PAVCWSDLType@@V?$CElementTraits@PAVCWSDLType@@@ATL@@@ATL@@AAEPAVCNode@12@ABQAVCWSDLType@@PAV312@1@Z 0048e8f0 f i WSDLParser.obj
 0001:0008da30       ?NewNode@?$CAtlMap@V?$CStringT@_WV?$StrTraitATL@_WV?$ChTraitsCRT@_W@ATL@@@ATL@@@ATL@@PAVCWSDLBinding@@V?$CStringRefElementTraits@V?$CStringT@_WV?$StrTraitATL@_WV?$ChTraitsCRT@_W@ATL@@@ATL@@@ATL@@@2@V?$CElementTraits@PAVCWSDLBinding@@@2@@ATL@@AAEPAVCNode@12@ABV?$CStringT@_WV?$StrTraitATL@_WV?$ChTraitsCRT@_W@ATL@@@ATL@@@2@II@Z 0048ea30 f i WSDLParser.obj
 0001:0008dd00       ?NewNode@?$CAtlMap@V?$CStringT@_WV?$StrTraitATL@_WV?$ChTraitsCRT@_W@ATL@@@ATL@@@ATL@@PAVCWSDLMessage@@V?$CStringRefElementTraits@V?$CStringT@_WV?$StrTraitATL@_WV?$ChTraitsCRT@_W@ATL@@@ATL@@@ATL@@@2@V?$CElementTraits@PAVCWSDLMessage@@@2@@ATL@@AAEPAVCNode@12@ABV?$CStringT@_WV?$StrTraitATL@_WV?$ChTraitsCRT@_W@ATL@@@ATL@@@2@II@Z 0048ed00 f i WSDLParser.obj
 0001:0008dfd0       ?NewNode@?$CAtlMap@V?$CStringT@_WV?$StrTraitATL@_WV?$ChTraitsCRT@_W@ATL@@@ATL@@@ATL@@PAVCWSDLPortType@@V?$CStringRefElementTraits@V?$CStringT@_WV?$StrTraitATL@_WV?$ChTraitsCRT@_W@ATL@@@ATL@@@ATL@@@2@V?$CElementTraits@PAVCWSDLPortType@@@2@@ATL@@AAEPAVCNode@12@ABV?$CStringT@_WV?$StrTraitATL@_WV?$ChTraitsCRT@_W@ATL@@@ATL@@@2@II@Z 0048efd0 f i WSDLParser.obj
 0001:0008e2a0       ?NewNode@?$CAtlMap@V?$CStringT@_WV?$StrTraitATL@_WV?$ChTraitsCRT@_W@ATL@@@ATL@@@ATL@@PAVCWSDLService@@V?$CStringRefElementTraits@V?$CStringT@_WV?$StrTraitATL@_WV?$ChTraitsCRT@_W@ATL@@@ATL@@@ATL@@@2@V?$CElementTraits@PAVCWSDLService@@@2@@ATL@@AAEPAVCNode@12@ABV?$CStringT@_WV?$StrTraitATL@_WV?$ChTraitsCRT@_W@ATL@@@ATL@@@2@II@Z 0048f2a0 f i WSDLParser.obj
 0001:0008e570       ?NewNode@?$CAtlMap@V?$CStringT@_WV?$StrTraitATL@_WV?$ChTraitsCRT@_W@ATL@@@ATL@@@ATL@@V12@V?$CStringRefElementTraits@V?$CStringT@_WV?$StrTraitATL@_WV?$ChTraitsCRT@_W@ATL@@@ATL@@@ATL@@@2@V32@@ATL@@AAEPAVCNode@12@ABV?$CStringT@_WV?$StrTraitATL@_WV?$ChTraitsCRT@_W@ATL@@@ATL@@@2@II@Z 0048f570 f i WSDLParser.obj
 0001:0008e840       ?OnBinding@CWSDLParser@@QAEJPB_WH0H0HPAUISAXAttributes@@@Z 0048f840 f   WSDLParser.obj
 0001:0008eab0       ?OnDefinitions@CWSDLParser@@QAEJPB_WH0H0HPAUISAXAttributes@@@Z 0048fab0 f   WSDLParser.obj
 0001:0008eb10       ?OnDocumentation@CWSDLParser@@QAEJPB_WH0H0HPAUISAXAttributes@@@Z 0048fb10 f   WSDLParser.obj
 0001:0008eb80       ?OnImport@CWSDLParser@@QAEJPB_WH0H0HPAUISAXAttributes@@@Z 0048fb80 f   WSDLParser.obj
 0001:0008ede0       ?OnMessage@CWSDLParser@@QAEJPB_WH0H0HPAUISAXAttributes@@@Z 0048fde0 f   WSDLParser.obj
 0001:0008f0a0       ?OnName@CWSDLParser@@QAEJPB_WH0H0H0HPAUISAXAttributes@@@Z 004900a0 f   WSDLParser.obj
 0001:0008f140       ?OnPortType@CWSDLParser@@QAEJPB_WH0H0HPAUISAXAttributes@@@Z 00490140 f   WSDLParser.obj
 0001:0008f410       ?OnService@CWSDLParser@@QAEJPB_WH0H0HPAUISAXAttributes@@@Z 00490410 f   WSDLParser.obj
 0001:0008f6d0       ?OnTargetNamespace@CWSDLParser@@QAEJPB_WH0H0H0HPAUISAXAttributes@@@Z 004906d0 f   WSDLParser.obj
 0001:0008f770       ?OnTypes@CWSDLParser@@QAEJPB_WH0H0HPAUISAXAttributes@@@Z 00490770 f   WSDLParser.obj
 0001:0008f980       ?PickSize@?$CAtlMap@V?$CStringT@_WV?$StrTraitATL@_WV?$ChTraitsCRT@_W@ATL@@@ATL@@@ATL@@PAVCWSDLBinding@@V?$CStringRefElementTraits@V?$CStringT@_WV?$StrTraitATL@_WV?$ChTraitsCRT@_W@ATL@@@ATL@@@ATL@@@2@V?$CElementTraits@PAVCWSDLBinding@@@2@@ATL@@ABEII@Z 00490980 f i WSDLParser.obj
 0001:0008fa50       ?PickSize@?$CAtlMap@V?$CStringT@_WV?$StrTraitATL@_WV?$ChTraitsCRT@_W@ATL@@@ATL@@@ATL@@PAVCWSDLMessage@@V?$CStringRefElementTraits@V?$CStringT@_WV?$StrTraitATL@_WV?$ChTraitsCRT@_W@ATL@@@ATL@@@ATL@@@2@V?$CElementTraits@PAVCWSDLMessage@@@2@@ATL@@ABEII@Z 00490a50 f i WSDLParser.obj
 0001:0008fb20       ?PickSize@?$CAtlMap@V?$CStringT@_WV?$StrTraitATL@_WV?$ChTraitsCRT@_W@ATL@@@ATL@@@ATL@@PAVCWSDLPortType@@V?$CStringRefElementTraits@V?$CStringT@_WV?$StrTraitATL@_WV?$ChTraitsCRT@_W@ATL@@@ATL@@@ATL@@@2@V?$CElementTraits@PAVCWSDLPortType@@@2@@ATL@@ABEII@Z 00490b20 f i WSDLParser.obj
 0001:0008fbf0       ?PickSize@?$CAtlMap@V?$CStringT@_WV?$StrTraitATL@_WV?$ChTraitsCRT@_W@ATL@@@ATL@@@ATL@@PAVCWSDLService@@V?$CStringRefElementTraits@V?$CStringT@_WV?$StrTraitATL@_WV?$ChTraitsCRT@_W@ATL@@@ATL@@@ATL@@@2@V?$CElementTraits@PAVCWSDLService@@@2@@ATL@@ABEII@Z 00490bf0 f i WSDLParser.obj
 0001:0008fcc0       ?Rehash@?$CAtlMap@V?$CStringT@_WV?$StrTraitATL@_WV?$ChTraitsCRT@_W@ATL@@@ATL@@@ATL@@PAVCWSDLBinding@@V?$CStringRefElementTraits@V?$CStringT@_WV?$StrTraitATL@_WV?$ChTraitsCRT@_W@ATL@@@ATL@@@ATL@@@2@V?$CElementTraits@PAVCWSDLBinding@@@2@@ATL@@QAEXI@Z 00490cc0 f i WSDLParser.obj
 0001:0008ff10       ?Rehash@?$CAtlMap@V?$CStringT@_WV?$StrTraitATL@_WV?$ChTraitsCRT@_W@ATL@@@ATL@@@ATL@@PAVCWSDLMessage@@V?$CStringRefElementTraits@V?$CStringT@_WV?$StrTraitATL@_WV?$ChTraitsCRT@_W@ATL@@@ATL@@@ATL@@@2@V?$CElementTraits@PAVCWSDLMessage@@@2@@ATL@@QAEXI@Z 00490f10 f i WSDLParser.obj
 0001:00090160       ?Rehash@?$CAtlMap@V?$CStringT@_WV?$StrTraitATL@_WV?$ChTraitsCRT@_W@ATL@@@ATL@@@ATL@@PAVCWSDLPortType@@V?$CStringRefElementTraits@V?$CStringT@_WV?$StrTraitATL@_WV?$ChTraitsCRT@_W@ATL@@@ATL@@@ATL@@@2@V?$CElementTraits@PAVCWSDLPortType@@@2@@ATL@@QAEXI@Z 00491160 f i WSDLParser.obj
 0001:000903b0       ?Rehash@?$CAtlMap@V?$CStringT@_WV?$StrTraitATL@_WV?$ChTraitsCRT@_W@ATL@@@ATL@@@ATL@@PAVCWSDLService@@V?$CStringRefElementTraits@V?$CStringT@_WV?$StrTraitATL@_WV?$ChTraitsCRT@_W@ATL@@@ATL@@@ATL@@@2@V?$CElementTraits@PAVCWSDLService@@@2@@ATL@@QAEXI@Z 004913b0 f i WSDLParser.obj
 0001:00090600       ?RemoveAll@?$CAtlList@PAVCSchema@@V?$CElementTraits@PAVCSchema@@@ATL@@@ATL@@QAEXXZ 00491600 f i WSDLParser.obj
 0001:00090760       ?RemoveAll@?$CAtlList@PAVCWSDLMessagePart@@V?$CElementTraits@PAVCWSDLMessagePart@@@ATL@@@ATL@@QAEXXZ 00491760 f i WSDLParser.obj
 0001:000908c0       ?RemoveAll@?$CAtlList@PAVCWSDLPort@@V?$CElementTraits@PAVCWSDLPort@@@ATL@@@ATL@@QAEXXZ 004918c0 f i WSDLParser.obj
 0001:00090a20       ?RemoveAll@?$CAtlList@PAVCWSDLType@@V?$CElementTraits@PAVCWSDLType@@@ATL@@@ATL@@QAEXXZ 00491a20 f i WSDLParser.obj
 0001:00090b80       ?RemoveAll@?$CAtlMap@V?$CStringT@_WV?$StrTraitATL@_WV?$ChTraitsCRT@_W@ATL@@@ATL@@@ATL@@PAVCWSDLBinding@@V?$CStringRefElementTraits@V?$CStringT@_WV?$StrTraitATL@_WV?$ChTraitsCRT@_W@ATL@@@ATL@@@ATL@@@2@V?$CElementTraits@PAVCWSDLBinding@@@2@@ATL@@QAEXXZ 00491b80 f i WSDLParser.obj
 0001:00090c90       ?RemoveAll@?$CAtlMap@V?$CStringT@_WV?$StrTraitATL@_WV?$ChTraitsCRT@_W@ATL@@@ATL@@@ATL@@PAVCWSDLMessage@@V?$CStringRefElementTraits@V?$CStringT@_WV?$StrTraitATL@_WV?$ChTraitsCRT@_W@ATL@@@ATL@@@ATL@@@2@V?$CElementTraits@PAVCWSDLMessage@@@2@@ATL@@QAEXXZ 00491c90 f i WSDLParser.obj
 0001:00090da0       ?RemoveAll@?$CAtlMap@V?$CStringT@_WV?$StrTraitATL@_WV?$ChTraitsCRT@_W@ATL@@@ATL@@@ATL@@PAVCWSDLPortType@@V?$CStringRefElementTraits@V?$CStringT@_WV?$StrTraitATL@_WV?$ChTraitsCRT@_W@ATL@@@ATL@@@ATL@@@2@V?$CElementTraits@PAVCWSDLPortType@@@2@@ATL@@QAEXXZ 00491da0 f i WSDLParser.obj
 0001:00090eb0       ?RemoveAll@?$CAtlMap@V?$CStringT@_WV?$StrTraitATL@_WV?$ChTraitsCRT@_W@ATL@@@ATL@@@ATL@@PAVCWSDLPortTypeOperation@@V?$CStringRefElementTraits@V?$CStringT@_WV?$StrTraitATL@_WV?$ChTraitsCRT@_W@ATL@@@ATL@@@ATL@@@2@V?$CElementTraits@PAVCWSDLPortTypeOperation@@@2@@ATL@@QAEXXZ 00491eb0 f i WSDLParser.obj
 0001:00090fc0       ?RemoveAll@?$CAtlMap@V?$CStringT@_WV?$StrTraitATL@_WV?$ChTraitsCRT@_W@ATL@@@ATL@@@ATL@@PAVCWSDLService@@V?$CStringRefElementTraits@V?$CStringT@_WV?$StrTraitATL@_WV?$ChTraitsCRT@_W@ATL@@@ATL@@@ATL@@@2@V?$CElementTraits@PAVCWSDLService@@@2@@ATL@@QAEXXZ 00491fc0 f i WSDLParser.obj
 0001:000910d0       ?RemoveAll@?$CAtlPtrList@PAVCSchema@@V?$CElementTraits@PAVCSchema@@@ATL@@@@QAEXXZ 004920d0 f i WSDLParser.obj
 0001:00091180       ?RemoveAll@?$CAtlPtrList@PAVCWSDLMessagePart@@V?$CElementTraits@PAVCWSDLMessagePart@@@ATL@@@@QAEXXZ 00492180 f i WSDLParser.obj
 0001:00091230       ?RemoveAll@?$CAtlPtrList@PAVCWSDLPort@@V?$CElementTraits@PAVCWSDLPort@@@ATL@@@@QAEXXZ 00492230 f i WSDLParser.obj
 0001:000912e0       ?RemoveAll@?$CAtlPtrList@PAVCWSDLType@@V?$CElementTraits@PAVCWSDLType@@@ATL@@@@QAEXXZ 004922e0 f i WSDLParser.obj
 0001:00091390       ?RemoveAll@?$CAtlPtrMap@V?$CStringT@_WV?$StrTraitATL@_WV?$ChTraitsCRT@_W@ATL@@@ATL@@@ATL@@PAVCWSDLBinding@@V?$CStringRefElementTraits@V?$CStringT@_WV?$StrTraitATL@_WV?$ChTraitsCRT@_W@ATL@@@ATL@@@ATL@@@2@V?$CElementTraits@PAVCWSDLBinding@@@2@@@QAEXXZ 00492390 f i WSDLParser.obj
 0001:00091460       ?RemoveAll@?$CAtlPtrMap@V?$CStringT@_WV?$StrTraitATL@_WV?$ChTraitsCRT@_W@ATL@@@ATL@@@ATL@@PAVCWSDLMessage@@V?$CStringRefElementTraits@V?$CStringT@_WV?$StrTraitATL@_WV?$ChTraitsCRT@_W@ATL@@@ATL@@@ATL@@@2@V?$CElementTraits@PAVCWSDLMessage@@@2@@@QAEXXZ 00492460 f i WSDLParser.obj
 0001:00091530       ?RemoveAll@?$CAtlPtrMap@V?$CStringT@_WV?$StrTraitATL@_WV?$ChTraitsCRT@_W@ATL@@@ATL@@@ATL@@PAVCWSDLPortType@@V?$CStringRefElementTraits@V?$CStringT@_WV?$StrTraitATL@_WV?$ChTraitsCRT@_W@ATL@@@ATL@@@ATL@@@2@V?$CElementTraits@PAVCWSDLPortType@@@2@@@QAEXXZ 00492530 f i WSDLParser.obj
 0001:00091600       ?RemoveAll@?$CAtlPtrMap@V?$CStringT@_WV?$StrTraitATL@_WV?$ChTraitsCRT@_W@ATL@@@ATL@@@ATL@@PAVCWSDLPortTypeOperation@@V?$CStringRefElementTraits@V?$CStringT@_WV?$StrTraitATL@_WV?$ChTraitsCRT@_W@ATL@@@ATL@@@ATL@@@2@V?$CElementTraits@PAVCWSDLPortTypeOperation@@@2@@@QAEXXZ 00492600 f i WSDLParser.obj
 0001:000916d0       ?RemoveAll@?$CAtlPtrMap@V?$CStringT@_WV?$StrTraitATL@_WV?$ChTraitsCRT@_W@ATL@@@ATL@@@ATL@@PAVCWSDLService@@V?$CStringRefElementTraits@V?$CStringT@_WV?$StrTraitATL@_WV?$ChTraitsCRT@_W@ATL@@@ATL@@@ATL@@@2@V?$CElementTraits@PAVCWSDLService@@@2@@@QAEXXZ 004926d0 f i WSDLParser.obj
 0001:000917a0       ?RemoveAtPos@?$CAtlMap@V?$CStringT@_WV?$StrTraitATL@_WV?$ChTraitsCRT@_W@ATL@@@ATL@@@ATL@@PAVCWSDLBinding@@V?$CStringRefElementTraits@V?$CStringT@_WV?$StrTraitATL@_WV?$ChTraitsCRT@_W@ATL@@@ATL@@@ATL@@@2@V?$CElementTraits@PAVCWSDLBinding@@@2@@ATL@@QAEXPAU__POSITION@@@Z 004927a0 f i WSDLParser.obj
 0001:00091940       ?RemoveAtPos@?$CAtlMap@V?$CStringT@_WV?$StrTraitATL@_WV?$ChTraitsCRT@_W@ATL@@@ATL@@@ATL@@PAVCWSDLMessage@@V?$CStringRefElementTraits@V?$CStringT@_WV?$StrTraitATL@_WV?$ChTraitsCRT@_W@ATL@@@ATL@@@ATL@@@2@V?$CElementTraits@PAVCWSDLMessage@@@2@@ATL@@QAEXPAU__POSITION@@@Z 00492940 f i WSDLParser.obj
 0001:00091ae0       ?RemoveAtPos@?$CAtlMap@V?$CStringT@_WV?$StrTraitATL@_WV?$ChTraitsCRT@_W@ATL@@@ATL@@@ATL@@PAVCWSDLPortType@@V?$CStringRefElementTraits@V?$CStringT@_WV?$StrTraitATL@_WV?$ChTraitsCRT@_W@ATL@@@ATL@@@ATL@@@2@V?$CElementTraits@PAVCWSDLPortType@@@2@@ATL@@QAEXPAU__POSITION@@@Z 00492ae0 f i WSDLParser.obj
 0001:00091c80       ?RemoveAtPos@?$CAtlMap@V?$CStringT@_WV?$StrTraitATL@_WV?$ChTraitsCRT@_W@ATL@@@ATL@@@ATL@@PAVCWSDLService@@V?$CStringRefElementTraits@V?$CStringT@_WV?$StrTraitATL@_WV?$ChTraitsCRT@_W@ATL@@@ATL@@@ATL@@@2@V?$CElementTraits@PAVCWSDLService@@@2@@ATL@@QAEXPAU__POSITION@@@Z 00492c80 f i WSDLParser.obj
 0001:00091e20       ?RemoveAtPos@?$CAtlMap@V?$CStringT@_WV?$StrTraitATL@_WV?$ChTraitsCRT@_W@ATL@@@ATL@@@ATL@@V12@V?$CStringRefElementTraits@V?$CStringT@_WV?$StrTraitATL@_WV?$ChTraitsCRT@_W@ATL@@@ATL@@@ATL@@@2@V32@@ATL@@QAEXPAU__POSITION@@@Z 00492e20 f i WSDLParser.obj
 0001:00091fc0       ?RemoveNode@?$CAtlMap@V?$CStringT@_WV?$StrTraitATL@_WV?$ChTraitsCRT@_W@ATL@@@ATL@@@ATL@@PAVCWSDLBinding@@V?$CStringRefElementTraits@V?$CStringT@_WV?$StrTraitATL@_WV?$ChTraitsCRT@_W@ATL@@@ATL@@@ATL@@@2@V?$CElementTraits@PAVCWSDLBinding@@@2@@ATL@@AAEXPAVCNode@12@0@Z 00492fc0 f i WSDLParser.obj
 0001:00092130       ?RemoveNode@?$CAtlMap@V?$CStringT@_WV?$StrTraitATL@_WV?$ChTraitsCRT@_W@ATL@@@ATL@@@ATL@@PAVCWSDLMessage@@V?$CStringRefElementTraits@V?$CStringT@_WV?$StrTraitATL@_WV?$ChTraitsCRT@_W@ATL@@@ATL@@@ATL@@@2@V?$CElementTraits@PAVCWSDLMessage@@@2@@ATL@@AAEXPAVCNode@12@0@Z 00493130 f i WSDLParser.obj
 0001:000922a0       ?RemoveNode@?$CAtlMap@V?$CStringT@_WV?$StrTraitATL@_WV?$ChTraitsCRT@_W@ATL@@@ATL@@@ATL@@PAVCWSDLPortType@@V?$CStringRefElementTraits@V?$CStringT@_WV?$StrTraitATL@_WV?$ChTraitsCRT@_W@ATL@@@ATL@@@ATL@@@2@V?$CElementTraits@PAVCWSDLPortType@@@2@@ATL@@AAEXPAVCNode@12@0@Z 004932a0 f i WSDLParser.obj
 0001:00092410       ?RemoveNode@?$CAtlMap@V?$CStringT@_WV?$StrTraitATL@_WV?$ChTraitsCRT@_W@ATL@@@ATL@@@ATL@@PAVCWSDLService@@V?$CStringRefElementTraits@V?$CStringT@_WV?$StrTraitATL@_WV?$ChTraitsCRT@_W@ATL@@@ATL@@@ATL@@@2@V?$CElementTraits@PAVCWSDLService@@@2@@ATL@@AAEXPAVCNode@12@0@Z 00493410 f i WSDLParser.obj
 0001:00092580       ?RemoveNode@?$CAtlMap@V?$CStringT@_WV?$StrTraitATL@_WV?$ChTraitsCRT@_W@ATL@@@ATL@@@ATL@@V12@V?$CStringRefElementTraits@V?$CStringT@_WV?$StrTraitATL@_WV?$ChTraitsCRT@_W@ATL@@@ATL@@@ATL@@@2@V32@@ATL@@AAEXPAVCNode@12@0@Z 00493580 f i WSDLParser.obj
 0001:000926f0       ?SetAt@?$CAtlMap@V?$CStringT@_WV?$StrTraitATL@_WV?$ChTraitsCRT@_W@ATL@@@ATL@@@ATL@@PAVCWSDLBinding@@V?$CStringRefElementTraits@V?$CStringT@_WV?$StrTraitATL@_WV?$ChTraitsCRT@_W@ATL@@@ATL@@@ATL@@@2@V?$CElementTraits@PAVCWSDLBinding@@@2@@ATL@@QAEPAU__POSITION@@ABV?$CStringT@_WV?$StrTraitATL@_WV?$ChTraitsCRT@_W@ATL@@@ATL@@@2@ABQAVCWSDLBinding@@@Z 004936f0 f i WSDLParser.obj
 0001:000927f0       ?SetAt@?$CAtlMap@V?$CStringT@_WV?$StrTraitATL@_WV?$ChTraitsCRT@_W@ATL@@@ATL@@@ATL@@PAVCWSDLMessage@@V?$CStringRefElementTraits@V?$CStringT@_WV?$StrTraitATL@_WV?$ChTraitsCRT@_W@ATL@@@ATL@@@ATL@@@2@V?$CElementTraits@PAVCWSDLMessage@@@2@@ATL@@QAEPAU__POSITION@@ABV?$CStringT@_WV?$StrTraitATL@_WV?$ChTraitsCRT@_W@ATL@@@ATL@@@2@ABQAVCWSDLMessage@@@Z 004937f0 f i WSDLParser.obj
 0001:000928f0       ?SetAt@?$CAtlMap@V?$CStringT@_WV?$StrTraitATL@_WV?$ChTraitsCRT@_W@ATL@@@ATL@@@ATL@@PAVCWSDLPortType@@V?$CStringRefElementTraits@V?$CStringT@_WV?$StrTraitATL@_WV?$ChTraitsCRT@_W@ATL@@@ATL@@@ATL@@@2@V?$CElementTraits@PAVCWSDLPortType@@@2@@ATL@@QAEPAU__POSITION@@ABV?$CStringT@_WV?$StrTraitATL@_WV?$ChTraitsCRT@_W@ATL@@@ATL@@@2@ABQAVCWSDLPortType@@@Z 004938f0 f i WSDLParser.obj
 0001:000929f0       ?SetAt@?$CAtlMap@V?$CStringT@_WV?$StrTraitATL@_WV?$ChTraitsCRT@_W@ATL@@@ATL@@@ATL@@PAVCWSDLService@@V?$CStringRefElementTraits@V?$CStringT@_WV?$StrTraitATL@_WV?$ChTraitsCRT@_W@ATL@@@ATL@@@ATL@@@2@V?$CElementTraits@PAVCWSDLService@@@2@@ATL@@QAEPAU__POSITION@@ABV?$CStringT@_WV?$StrTraitATL@_WV?$ChTraitsCRT@_W@ATL@@@ATL@@@2@ABQAVCWSDLService@@@Z 004939f0 f i WSDLParser.obj
 0001:00092af0       ?SetAt@?$CAtlMap@V?$CStringT@_WV?$StrTraitATL@_WV?$ChTraitsCRT@_W@ATL@@@ATL@@@ATL@@V12@V?$CStringRefElementTraits@V?$CStringT@_WV?$StrTraitATL@_WV?$ChTraitsCRT@_W@ATL@@@ATL@@@ATL@@@2@V32@@ATL@@QAEPAU__POSITION@@ABV?$CStringT@_WV?$StrTraitATL@_WV?$ChTraitsCRT@_W@ATL@@@ATL@@@2@0@Z 00493af0 f i WSDLParser.obj
 0001:00092c00       ?SetName@CWSDLDocument@@QAEJPB_WH@Z 00493c00 f i WSDLParser.obj
 0001:00092c50       ?SetOptimalLoad@?$CAtlMap@V?$CStringT@_WV?$StrTraitATL@_WV?$ChTraitsCRT@_W@ATL@@@ATL@@@ATL@@PAVCWSDLBinding@@V?$CStringRefElementTraits@V?$CStringT@_WV?$StrTraitATL@_WV?$ChTraitsCRT@_W@ATL@@@ATL@@@ATL@@@2@V?$CElementTraits@PAVCWSDLBinding@@@2@@ATL@@QAEXMMM_N@Z 00493c50 f i WSDLParser.obj
 0001:00092dc0       ?SetOptimalLoad@?$CAtlMap@V?$CStringT@_WV?$StrTraitATL@_WV?$ChTraitsCRT@_W@ATL@@@ATL@@@ATL@@PAVCWSDLMessage@@V?$CStringRefElementTraits@V?$CStringT@_WV?$StrTraitATL@_WV?$ChTraitsCRT@_W@ATL@@@ATL@@@ATL@@@2@V?$CElementTraits@PAVCWSDLMessage@@@2@@ATL@@QAEXMMM_N@Z 00493dc0 f i WSDLParser.obj
 0001:00092f30       ?SetOptimalLoad@?$CAtlMap@V?$CStringT@_WV?$StrTraitATL@_WV?$ChTraitsCRT@_W@ATL@@@ATL@@@ATL@@PAVCWSDLPortType@@V?$CStringRefElementTraits@V?$CStringT@_WV?$StrTraitATL@_WV?$ChTraitsCRT@_W@ATL@@@ATL@@@ATL@@@2@V?$CElementTraits@PAVCWSDLPortType@@@2@@ATL@@QAEXMMM_N@Z 00493f30 f i WSDLParser.obj
 0001:000930a0       ?SetOptimalLoad@?$CAtlMap@V?$CStringT@_WV?$StrTraitATL@_WV?$ChTraitsCRT@_W@ATL@@@ATL@@@ATL@@PAVCWSDLPortTypeOperation@@V?$CStringRefElementTraits@V?$CStringT@_WV?$StrTraitATL@_WV?$ChTraitsCRT@_W@ATL@@@ATL@@@ATL@@@2@V?$CElementTraits@PAVCWSDLPortTypeOperation@@@2@@ATL@@QAEXMMM_N@Z 004940a0 f i WSDLParser.obj
 0001:00093210       ?SetOptimalLoad@?$CAtlMap@V?$CStringT@_WV?$StrTraitATL@_WV?$ChTraitsCRT@_W@ATL@@@ATL@@@ATL@@PAVCWSDLService@@V?$CStringRefElementTraits@V?$CStringT@_WV?$StrTraitATL@_WV?$ChTraitsCRT@_W@ATL@@@ATL@@@ATL@@@2@V?$CElementTraits@PAVCWSDLService@@@2@@ATL@@QAEXMMM_N@Z 00494210 f i WSDLParser.obj
 0001:00093380       ?SetTargetNamespace@CXMLDocument@@QAEJPB_WH@Z 00494380 f i WSDLParser.obj
 0001:000933d0       ?UpdateRehashThresholds@?$CAtlMap@V?$CStringT@_WV?$StrTraitATL@_WV?$ChTraitsCRT@_W@ATL@@@ATL@@@ATL@@PAVCWSDLBinding@@V?$CStringRefElementTraits@V?$CStringT@_WV?$StrTraitATL@_WV?$ChTraitsCRT@_W@ATL@@@ATL@@@ATL@@@2@V?$CElementTraits@PAVCWSDLBinding@@@2@@ATL@@AAEXXZ 004943d0 f i WSDLParser.obj
 0001:00093490       ?UpdateRehashThresholds@?$CAtlMap@V?$CStringT@_WV?$StrTraitATL@_WV?$ChTraitsCRT@_W@ATL@@@ATL@@@ATL@@PAVCWSDLMessage@@V?$CStringRefElementTraits@V?$CStringT@_WV?$StrTraitATL@_WV?$ChTraitsCRT@_W@ATL@@@ATL@@@ATL@@@2@V?$CElementTraits@PAVCWSDLMessage@@@2@@ATL@@AAEXXZ 00494490 f i WSDLParser.obj
 0001:00093550       ?UpdateRehashThresholds@?$CAtlMap@V?$CStringT@_WV?$StrTraitATL@_WV?$ChTraitsCRT@_W@ATL@@@ATL@@@ATL@@PAVCWSDLPortType@@V?$CStringRefElementTraits@V?$CStringT@_WV?$StrTraitATL@_WV?$ChTraitsCRT@_W@ATL@@@ATL@@@ATL@@@2@V?$CElementTraits@PAVCWSDLPortType@@@2@@ATL@@AAEXXZ 00494550 f i WSDLParser.obj
 0001:00093610       ?UpdateRehashThresholds@?$CAtlMap@V?$CStringT@_WV?$StrTraitATL@_WV?$ChTraitsCRT@_W@ATL@@@ATL@@@ATL@@PAVCWSDLService@@V?$CStringRefElementTraits@V?$CStringT@_WV?$StrTraitATL@_WV?$ChTraitsCRT@_W@ATL@@@ATL@@@ATL@@@2@V?$CElementTraits@PAVCWSDLService@@@2@@ATL@@AAEXXZ 00494610 f i WSDLParser.obj
 0001:000936d0       ?startPrefixMapping@CWSDLParser@@UAGJPB_WH0H@Z 004946d0 f   WSDLParser.obj
 0001:000939c0       ?GetBinding@CWSDLDocument@@QAEPAVCWSDLBinding@@ABV?$CStringT@_WV?$StrTraitATL@_WV?$ChTraitsCRT@_W@ATL@@@ATL@@@ATL@@@Z 004949c0 f i WSDLPort.obj
 0001:00093a10       ?GetBinding@CWSDLPort@@QAEPAVCWSDLBinding@@XZ 00494a10 f   WSDLPort.obj
 0001:00093c00       ?Lookup@?$CAtlMap@V?$CStringT@_WV?$StrTraitATL@_WV?$ChTraitsCRT@_W@ATL@@@ATL@@@ATL@@PAVCWSDLBinding@@V?$CStringRefElementTraits@V?$CStringT@_WV?$StrTraitATL@_WV?$ChTraitsCRT@_W@ATL@@@ATL@@@ATL@@@2@V?$CElementTraits@PAVCWSDLBinding@@@2@@ATL@@QAEPAVCPair@12@ABV?$CStringT@_WV?$StrTraitATL@_WV?$ChTraitsCRT@_W@ATL@@@ATL@@@2@@Z 00494c00 f i WSDLPort.obj
 0001:00093c40       ?GetMessageA@CWSDLDocument@@QAEPAVCWSDLMessage@@ABV?$CStringT@_WV?$StrTraitATL@_WV?$ChTraitsCRT@_W@ATL@@@ATL@@@ATL@@@Z 00494c40 f i WSDLPortTypeIO.obj
 0001:00093c90       ?GetMessageA@CWSDLPortTypeIO@@QAEPAVCWSDLMessage@@XZ 00494c90 f   WSDLPortTypeIO.obj
 0001:00093e40       ?Lookup@?$CAtlMap@V?$CStringT@_WV?$StrTraitATL@_WV?$ChTraitsCRT@_W@ATL@@@ATL@@@ATL@@PAVCWSDLMessage@@V?$CStringRefElementTraits@V?$CStringT@_WV?$StrTraitATL@_WV?$ChTraitsCRT@_W@ATL@@@ATL@@@ATL@@@2@V?$CElementTraits@PAVCWSDLMessage@@@2@@ATL@@QAEPAVCPair@12@ABV?$CStringT@_WV?$StrTraitATL@_WV?$ChTraitsCRT@_W@ATL@@@ATL@@@2@@Z 00494e40 f i WSDLPortTypeIO.obj
 0001:00093e80       ?AddOperation@CWSDLPortType@@QAEPAVCWSDLPortTypeOperation@@PAV2@@Z 00494e80 f i WSDLPortTypeParser.obj
 0001:00093f00       ?GetPortType@CWSDLPortTypeParser@@QAEPAVCWSDLPortType@@XZ 00494f00 f i WSDLPortTypeParser.obj
 0001:00093f20       ?OnDocumentation@CWSDLPortTypeParser@@QAEJPB_WH0H0HPAUISAXAttributes@@@Z 00494f20 f   WSDLPortTypeParser.obj
 0001:00093f90       ?OnName@CWSDLPortTypeParser@@QAEJPB_WH0H0H0HPAUISAXAttributes@@@Z 00494f90 f   WSDLPortTypeParser.obj
 0001:00094030       ?OnOperation@CWSDLPortTypeParser@@QAEJPB_WH0H0HPAUISAXAttributes@@@Z 00495030 f   WSDLPortTypeParser.obj
 0001:000942e0       ?SetName@CWSDLPortType@@QAEJPB_WH@Z 004952e0 f i WSDLPortTypeParser.obj
 0001:00094330       ?startPrefixMapping@CWSDLPortTypeParser@@UAGJPB_WH0H@Z 00495330 f   WSDLPortTypeParser.obj
 0001:00094610       ??0?$CAutoPtr@VCWSDLPort@@@ATL@@QAE@XZ 00495610 f i WSDLServiceParser.obj
 0001:00094640       ??0?$CAutoPtr@VCWSDLServicePortParser@@@ATL@@QAE@PAVCWSDLServicePortParser@@@Z 00495640 f i WSDLServiceParser.obj
 0001:00094670       ??0CNode@?$CAtlList@PAVCWSDLPort@@V?$CElementTraits@PAVCWSDLPort@@@ATL@@@ATL@@QAE@ABQAVCWSDLPort@@@Z 00495670 f i WSDLServiceParser.obj
 0001:000946a0       ??0CWSDLPort@@QAE@PAVCWSDLBinding@@@Z 004956a0 f i WSDLServiceParser.obj
 0001:00094770       ??0CWSDLServicePortParser@@QAE@PAUISAXXMLReader@@PAVCParserBase@@KPAVCWSDLPort@@@Z 00495770 f i WSDLServiceParser.obj
 0001:000947c0       ??1?$CAutoPtr@VCWSDLPort@@@ATL@@QAE@XZ 004957c0 f i WSDLServiceParser.obj
 0001:000947f0       ??1?$CAutoPtr@VCWSDLServicePortParser@@@ATL@@QAE@XZ 004957f0 f i WSDLServiceParser.obj
 0001:00094820       ??1CWSDLPort@@UAE@XZ       00495820 f i WSDLServiceParser.obj
 0001:00094880       ??1CWSDLServicePortParser@@UAE@XZ 00495880 f i WSDLServiceParser.obj
 0001:000948b0       ??B?$CAutoPtr@VCWSDLPort@@@ATL@@QBEPAVCWSDLPort@@XZ 004958b0 f i WSDLServiceParser.obj
 0001:000948d0       ??B?$CAutoPtr@VCWSDLServicePortParser@@@ATL@@QBEPAVCWSDLServicePortParser@@XZ 004958d0 f i WSDLServiceParser.obj
 0001:000948f0       ??_ECWSDLPort@@UAEPAXI@Z   004958f0 f i WSDLServiceParser.obj
 0001:000948f0       ??_GCWSDLPort@@UAEPAXI@Z   004958f0 f i WSDLServiceParser.obj
 0001:00094940       ??_ECWSDLServicePortParser@@UAEPAXI@Z 00495940 f i WSDLServiceParser.obj
 0001:00094940       ??_GCWSDLServicePortParser@@UAEPAXI@Z 00495940 f i WSDLServiceParser.obj
 0001:00094990       ?AddPortA@CWSDLService@@QAEPAVCWSDLPort@@PAV2@@Z 00495990 f i WSDLServiceParser.obj
 0001:00094ad0       ?AddTail@?$CAtlList@PAVCWSDLPort@@V?$CElementTraits@PAVCWSDLPort@@@ATL@@@ATL@@QAEPAU__POSITION@@ABQAVCWSDLPort@@@Z 00495ad0 f i WSDLServiceParser.obj
 0001:00094b40       ?Attach@?$CAutoPtr@VCWSDLPort@@@ATL@@QAEXPAVCWSDLPort@@@Z 00495b40 f i WSDLServiceParser.obj
 0001:00094bb0       ?Detach@?$CAutoPtr@VCWSDLPort@@@ATL@@QAEPAVCWSDLPort@@XZ 00495bb0 f i WSDLServiceParser.obj
 0001:00094be0       ?Detach@?$CAutoPtr@VCWSDLServicePortParser@@@ATL@@QAEPAVCWSDLServicePortParser@@XZ 00495be0 f i WSDLServiceParser.obj
 0001:00094c10       ?Free@?$CAutoPtr@VCWSDLPort@@@ATL@@QAEXXZ 00495c10 f i WSDLServiceParser.obj
 0001:00094c70       ?Free@?$CAutoPtr@VCWSDLServicePortParser@@@ATL@@QAEXXZ 00495c70 f i WSDLServiceParser.obj
 0001:00094cd0       ?GetFreeNode@?$CAtlList@PAVCWSDLPort@@V?$CElementTraits@PAVCWSDLPort@@@ATL@@@ATL@@AAEXXZ 00495cd0 f i WSDLServiceParser.obj
 0001:00094de0       ?GetService@CWSDLServiceParser@@QAEPAVCWSDLService@@XZ 00495de0 f i WSDLServiceParser.obj
 0001:00094e00       ?GetXMLATTRMap@CWSDLServicePortParser@@UAEPBUXMLTAG@@XZ 00495e00 f i WSDLServiceParser.obj
 0001:00095050       ?GetXMLTAGMap@CWSDLServicePortParser@@UAEPBUXMLTAG@@XZ 00496050 f i WSDLServiceParser.obj
 0001:000952a0       ?NewNode@?$CAtlList@PAVCWSDLPort@@V?$CElementTraits@PAVCWSDLPort@@@ATL@@@ATL@@AAEPAVCNode@12@ABQAVCWSDLPort@@PAV312@1@Z 004962a0 f i WSDLServiceParser.obj
 0001:000953e0       ?OnDocumentation@CWSDLServiceParser@@QAEJPB_WH0H0HPAUISAXAttributes@@@Z 004963e0 f   WSDLServiceParser.obj
 0001:00095450       ?OnName@CWSDLServiceParser@@QAEJPB_WH0H0H0HPAUISAXAttributes@@@Z 00496450 f   WSDLServiceParser.obj
 0001:000954f0       ?OnPort@CWSDLServiceParser@@QAEJPB_WH0H0HPAUISAXAttributes@@@Z 004964f0 f   WSDLServiceParser.obj
 0001:000956f0       ?OnUnrecognizedTag@CWSDLServiceParser@@UAEJPB_WH0H0HPAUISAXAttributes@@@Z 004966f0 f   WSDLServiceParser.obj
 0001:000957c0       ?SetName@CWSDLService@@QAEJPB_WH@Z 004967c0 f i WSDLServiceParser.obj
 0001:00095810       ?startPrefixMapping@CWSDLServiceParser@@UAGJPB_WH0H@Z 00496810 f   WSDLServiceParser.obj
 0001:00095af0       ?GetPort@CWSDLServicePortParser@@QAEPAVCWSDLPort@@XZ 00496af0 f i WSDLServicePortParser.obj
 0001:00095b10       ?OnBinding@CWSDLServicePortParser@@QAEJPB_WH0H0H0HPAUISAXAttributes@@@Z 00496b10 f   WSDLServicePortParser.obj
 0001:00095bb0       ?OnHttpAddress@CWSDLServicePortParser@@QAEJPB_WH0H0HPAUISAXAttributes@@@Z 00496bb0 f   WSDLServicePortParser.obj
 0001:00095d20       ?OnName@CWSDLServicePortParser@@QAEJPB_WH0H0H0HPAUISAXAttributes@@@Z 00496d20 f   WSDLServicePortParser.obj
 0001:00095dc0       ?OnSoapAddress@CWSDLServicePortParser@@QAEJPB_WH0H0HPAUISAXAttributes@@@Z 00496dc0 f   WSDLServicePortParser.obj
 0001:00095f30       ?OnUnrecognizedTag@CWSDLServicePortParser@@UAEJPB_WH0H0HPAUISAXAttributes@@@Z 00496f30 f   WSDLServicePortParser.obj
 0001:00096000       ?SetBinding@CWSDLPort@@QAEJPB_WH@Z 00497000 f i WSDLServicePortParser.obj
 0001:00096040       ?SetHttpAddress@CWSDLPort@@QAEJABV?$CStringT@_WV?$StrTraitATL@_WV?$ChTraitsCRT@_W@ATL@@@ATL@@@ATL@@@Z 00497040 f i WSDLServicePortParser.obj
 0001:00096070       ?SetName@CWSDLPort@@QAEJPB_WH@Z 00497070 f i WSDLServicePortParser.obj
 0001:000960c0       ?SetSoapAddress@CWSDLPort@@QAEJABV?$CStringT@_WV?$StrTraitATL@_WV?$ChTraitsCRT@_W@ATL@@@ATL@@@ATL@@@Z 004970c0 f i WSDLServicePortParser.obj
 0001:00096150       ?startPrefixMapping@CWSDLServicePortParser@@UAGJPB_WH0H@Z 00497150 f   WSDLServicePortParser.obj
 0001:00096430       ?GetMessageA@CWSDLSoapHeaderElement@@QAEPAVCWSDLMessage@@XZ 00497430 f   WSDLSoapElement.obj
 0001:000965e0       ??0?$CAtlMap@V?$CStringT@_WV?$StrTraitATL@_WV?$ChTraitsCRT@_W@ATL@@@ATL@@@ATL@@PAVCComplexType@@V?$CStringRefElementTraits@V?$CStringT@_WV?$StrTraitATL@_WV?$ChTraitsCRT@_W@ATL@@@ATL@@@ATL@@@2@V?$CElementTraits@PAVCComplexType@@@2@@ATL@@QAE@IMMMI@Z 004975e0 f i WSDLTypesParser.obj
 0001:00096740       ??0?$CAtlMap@V?$CStringT@_WV?$StrTraitATL@_WV?$ChTraitsCRT@_W@ATL@@@ATL@@@ATL@@PAVCElement@@V?$CStringRefElementTraits@V?$CStringT@_WV?$StrTraitATL@_WV?$ChTraitsCRT@_W@ATL@@@ATL@@@ATL@@@2@V?$CElementTraits@PAVCElement@@@2@@ATL@@QAE@IMMMI@Z 00497740 f i WSDLTypesParser.obj
 0001:000968a0       ??0?$CAtlMap@V?$CStringT@_WV?$StrTraitATL@_WV?$ChTraitsCRT@_W@ATL@@@ATL@@@ATL@@PAVCSimpleType@@V?$CStringRefElementTraits@V?$CStringT@_WV?$StrTraitATL@_WV?$ChTraitsCRT@_W@ATL@@@ATL@@@ATL@@@2@V?$CElementTraits@PAVCSimpleType@@@2@@ATL@@QAE@IMMMI@Z 004978a0 f i WSDLTypesParser.obj
 0001:00096a00       ??0?$CAtlPtrMap@V?$CStringT@_WV?$StrTraitATL@_WV?$ChTraitsCRT@_W@ATL@@@ATL@@@ATL@@PAVCComplexType@@V?$CStringRefElementTraits@V?$CStringT@_WV?$StrTraitATL@_WV?$ChTraitsCRT@_W@ATL@@@ATL@@@ATL@@@2@V?$CElementTraits@PAVCComplexType@@@2@@@QAE@XZ 00497a00 f i WSDLTypesParser.obj
 0001:00096a70       ??0?$CAtlPtrMap@V?$CStringT@_WV?$StrTraitATL@_WV?$ChTraitsCRT@_W@ATL@@@ATL@@@ATL@@PAVCElement@@V?$CStringRefElementTraits@V?$CStringT@_WV?$StrTraitATL@_WV?$ChTraitsCRT@_W@ATL@@@ATL@@@ATL@@@2@V?$CElementTraits@PAVCElement@@@2@@@QAE@XZ 00497a70 f i WSDLTypesParser.obj
 0001:00096ae0       ??0?$CAtlPtrMap@V?$CStringT@_WV?$StrTraitATL@_WV?$ChTraitsCRT@_W@ATL@@@ATL@@@ATL@@PAVCSimpleType@@V?$CStringRefElementTraits@V?$CStringT@_WV?$StrTraitATL@_WV?$ChTraitsCRT@_W@ATL@@@ATL@@@ATL@@@2@V?$CElementTraits@PAVCSimpleType@@@2@@@QAE@XZ 00497ae0 f i WSDLTypesParser.obj
 0001:00096b50       ??0?$CAutoPtr@VCSchema@@@ATL@@QAE@XZ 00497b50 f i WSDLTypesParser.obj
 0001:00096b80       ??0?$CAutoPtr@VCSchemaParser@@@ATL@@QAE@PAVCSchemaParser@@@Z 00497b80 f i WSDLTypesParser.obj
 0001:00096bb0       ??0CNode@?$CAtlList@PAVCSchema@@V?$CElementTraits@PAVCSchema@@@ATL@@@ATL@@QAE@ABQAVCSchema@@@Z 00497bb0 f i WSDLTypesParser.obj
 0001:00096be0       ??0CSchema@@QAE@XZ         00497be0 f i WSDLTypesParser.obj
 0001:00096cd0       ??0CSchemaParser@@QAE@PAUISAXXMLReader@@PAVCParserBase@@KPAVCSchema@@@Z 00497cd0 f i WSDLTypesParser.obj
 0001:00096d20       ??1?$CAtlMap@V?$CStringT@_WV?$StrTraitATL@_WV?$ChTraitsCRT@_W@ATL@@@ATL@@@ATL@@PAVCComplexType@@V?$CStringRefElementTraits@V?$CStringT@_WV?$StrTraitATL@_WV?$ChTraitsCRT@_W@ATL@@@ATL@@@ATL@@@2@V?$CElementTraits@PAVCComplexType@@@2@@ATL@@QAE@XZ 00497d20 f i WSDLTypesParser.obj
 0001:00096de0       ??1?$CAtlMap@V?$CStringT@_WV?$StrTraitATL@_WV?$ChTraitsCRT@_W@ATL@@@ATL@@@ATL@@PAVCElement@@V?$CStringRefElementTraits@V?$CStringT@_WV?$StrTraitATL@_WV?$ChTraitsCRT@_W@ATL@@@ATL@@@ATL@@@2@V?$CElementTraits@PAVCElement@@@2@@ATL@@QAE@XZ 00497de0 f i WSDLTypesParser.obj
 0001:00096ea0       ??1?$CAtlMap@V?$CStringT@_WV?$StrTraitATL@_WV?$ChTraitsCRT@_W@ATL@@@ATL@@@ATL@@PAVCSimpleType@@V?$CStringRefElementTraits@V?$CStringT@_WV?$StrTraitATL@_WV?$ChTraitsCRT@_W@ATL@@@ATL@@@ATL@@@2@V?$CElementTraits@PAVCSimpleType@@@2@@ATL@@QAE@XZ 00497ea0 f i WSDLTypesParser.obj
 0001:00096f60       ??1?$CAtlPtrMap@V?$CStringT@_WV?$StrTraitATL@_WV?$ChTraitsCRT@_W@ATL@@@ATL@@@ATL@@PAVCComplexType@@V?$CStringRefElementTraits@V?$CStringT@_WV?$StrTraitATL@_WV?$ChTraitsCRT@_W@ATL@@@ATL@@@ATL@@@2@V?$CElementTraits@PAVCComplexType@@@2@@@QAE@XZ 00497f60 f i WSDLTypesParser.obj
 0001:00096fc0       ??1?$CAtlPtrMap@V?$CStringT@_WV?$StrTraitATL@_WV?$ChTraitsCRT@_W@ATL@@@ATL@@@ATL@@PAVCElement@@V?$CStringRefElementTraits@V?$CStringT@_WV?$StrTraitATL@_WV?$ChTraitsCRT@_W@ATL@@@ATL@@@ATL@@@2@V?$CElementTraits@PAVCElement@@@2@@@QAE@XZ 00497fc0 f i WSDLTypesParser.obj
 0001:00097020       ??1?$CAtlPtrMap@V?$CStringT@_WV?$StrTraitATL@_WV?$ChTraitsCRT@_W@ATL@@@ATL@@@ATL@@PAVCSimpleType@@V?$CStringRefElementTraits@V?$CStringT@_WV?$StrTraitATL@_WV?$ChTraitsCRT@_W@ATL@@@ATL@@@ATL@@@2@V?$CElementTraits@PAVCSimpleType@@@2@@@QAE@XZ 00498020 f i WSDLTypesParser.obj
 0001:00097080       ??1?$CAutoPtr@VCSchema@@@ATL@@QAE@XZ 00498080 f i WSDLTypesParser.obj
 0001:000970b0       ??1?$CAutoPtr@VCSchemaParser@@@ATL@@QAE@XZ 004980b0 f i WSDLTypesParser.obj
 0001:000970e0       ??1CSchema@@UAE@XZ         004980e0 f i WSDLTypesParser.obj
 0001:00097170       ??1CSchemaParser@@UAE@XZ   00498170 f i WSDLTypesParser.obj
 0001:000971a0       ??B?$CAutoPtr@VCSchema@@@ATL@@QBEPAVCSchema@@XZ 004981a0 f i WSDLTypesParser.obj
 0001:000971c0       ??B?$CAutoPtr@VCSchemaParser@@@ATL@@QBEPAVCSchemaParser@@XZ 004981c0 f i WSDLTypesParser.obj
 0001:000971e0       ??_ECSchema@@UAEPAXI@Z     004981e0 f i WSDLTypesParser.obj
 0001:000971e0       ??_GCSchema@@UAEPAXI@Z     004981e0 f i WSDLTypesParser.obj
 0001:00097230       ??_ECSchemaParser@@UAEPAXI@Z 00498230 f i WSDLTypesParser.obj
 0001:00097230       ??_GCSchemaParser@@UAEPAXI@Z 00498230 f i WSDLTypesParser.obj
 0001:00097280       ?AddSchema@CWSDLType@@QAEPAVCSchema@@PAV2@@Z 00498280 f i WSDLTypesParser.obj
 0001:000973c0       ?AddTail@?$CAtlList@PAVCSchema@@V?$CElementTraits@PAVCSchema@@@ATL@@@ATL@@QAEPAU__POSITION@@ABQAVCSchema@@@Z 004983c0 f i WSDLTypesParser.obj
 0001:00097430       ?Attach@?$CAutoPtr@VCSchema@@@ATL@@QAEXPAVCSchema@@@Z 00498430 f i WSDLTypesParser.obj
 0001:000974a0       ?Detach@?$CAutoPtr@VCSchema@@@ATL@@QAEPAVCSchema@@XZ 004984a0 f i WSDLTypesParser.obj
 0001:000974d0       ?Detach@?$CAutoPtr@VCSchemaParser@@@ATL@@QAEPAVCSchemaParser@@XZ 004984d0 f i WSDLTypesParser.obj
 0001:00097500       ?DisableAutoRehash@?$CAtlMap@V?$CStringT@_WV?$StrTraitATL@_WV?$ChTraitsCRT@_W@ATL@@@ATL@@@ATL@@PAVCComplexType@@V?$CStringRefElementTraits@V?$CStringT@_WV?$StrTraitATL@_WV?$ChTraitsCRT@_W@ATL@@@ATL@@@ATL@@@2@V?$CElementTraits@PAVCComplexType@@@2@@ATL@@QAEXXZ 00498500 f i WSDLTypesParser.obj
 0001:00097530       ?DisableAutoRehash@?$CAtlMap@V?$CStringT@_WV?$StrTraitATL@_WV?$ChTraitsCRT@_W@ATL@@@ATL@@@ATL@@PAVCElement@@V?$CStringRefElementTraits@V?$CStringT@_WV?$StrTraitATL@_WV?$ChTraitsCRT@_W@ATL@@@ATL@@@ATL@@@2@V?$CElementTraits@PAVCElement@@@2@@ATL@@QAEXXZ 00498530 f i WSDLTypesParser.obj
 0001:00097560       ?DisableAutoRehash@?$CAtlMap@V?$CStringT@_WV?$StrTraitATL@_WV?$ChTraitsCRT@_W@ATL@@@ATL@@@ATL@@PAVCSimpleType@@V?$CStringRefElementTraits@V?$CStringT@_WV?$StrTraitATL@_WV?$ChTraitsCRT@_W@ATL@@@ATL@@@ATL@@@2@V?$CElementTraits@PAVCSimpleType@@@2@@ATL@@QAEXXZ 00498560 f i WSDLTypesParser.obj
 0001:00097590       ?EnableAutoRehash@?$CAtlMap@V?$CStringT@_WV?$StrTraitATL@_WV?$ChTraitsCRT@_W@ATL@@@ATL@@@ATL@@PAVCComplexType@@V?$CStringRefElementTraits@V?$CStringT@_WV?$StrTraitATL@_WV?$ChTraitsCRT@_W@ATL@@@ATL@@@ATL@@@2@V?$CElementTraits@PAVCComplexType@@@2@@ATL@@QAEXXZ 00498590 f i WSDLTypesParser.obj
 0001:00097600       ?EnableAutoRehash@?$CAtlMap@V?$CStringT@_WV?$StrTraitATL@_WV?$ChTraitsCRT@_W@ATL@@@ATL@@@ATL@@PAVCElement@@V?$CStringRefElementTraits@V?$CStringT@_WV?$StrTraitATL@_WV?$ChTraitsCRT@_W@ATL@@@ATL@@@ATL@@@2@V?$CElementTraits@PAVCElement@@@2@@ATL@@QAEXXZ 00498600 f i WSDLTypesParser.obj
 0001:00097670       ?EnableAutoRehash@?$CAtlMap@V?$CStringT@_WV?$StrTraitATL@_WV?$ChTraitsCRT@_W@ATL@@@ATL@@@ATL@@PAVCSimpleType@@V?$CStringRefElementTraits@V?$CStringT@_WV?$StrTraitATL@_WV?$ChTraitsCRT@_W@ATL@@@ATL@@@ATL@@@2@V?$CElementTraits@PAVCSimpleType@@@2@@ATL@@QAEXXZ 00498670 f i WSDLTypesParser.obj
 0001:000976e0       ?FindNextNode@?$CAtlMap@V?$CStringT@_WV?$StrTraitATL@_WV?$ChTraitsCRT@_W@ATL@@@ATL@@@ATL@@PAVCComplexType@@V?$CStringRefElementTraits@V?$CStringT@_WV?$StrTraitATL@_WV?$ChTraitsCRT@_W@ATL@@@ATL@@@ATL@@@2@V?$CElementTraits@PAVCComplexType@@@2@@ATL@@ABEPAVCNode@12@PAV312@@Z 004986e0 f i WSDLTypesParser.obj
 0001:000977d0       ?FindNextNode@?$CAtlMap@V?$CStringT@_WV?$StrTraitATL@_WV?$ChTraitsCRT@_W@ATL@@@ATL@@@ATL@@PAVCElement@@V?$CStringRefElementTraits@V?$CStringT@_WV?$StrTraitATL@_WV?$ChTraitsCRT@_W@ATL@@@ATL@@@ATL@@@2@V?$CElementTraits@PAVCElement@@@2@@ATL@@ABEPAVCNode@12@PAV312@@Z 004987d0 f i WSDLTypesParser.obj
 0001:000978c0       ?FindNextNode@?$CAtlMap@V?$CStringT@_WV?$StrTraitATL@_WV?$ChTraitsCRT@_W@ATL@@@ATL@@@ATL@@PAVCSimpleType@@V?$CStringRefElementTraits@V?$CStringT@_WV?$StrTraitATL@_WV?$ChTraitsCRT@_W@ATL@@@ATL@@@ATL@@@2@V?$CElementTraits@PAVCSimpleType@@@2@@ATL@@ABEPAVCNode@12@PAV312@@Z 004988c0 f i WSDLTypesParser.obj
 0001:000979b0       ?Free@?$CAutoPtr@VCSchema@@@ATL@@QAEXXZ 004989b0 f i WSDLTypesParser.obj
 0001:00097a10       ?Free@?$CAutoPtr@VCSchemaParser@@@ATL@@QAEXXZ 00498a10 f i WSDLTypesParser.obj
 0001:00097a70       ?GetFreeNode@?$CAtlList@PAVCSchema@@V?$CElementTraits@PAVCSchema@@@ATL@@@ATL@@AAEXXZ 00498a70 f i WSDLTypesParser.obj
 0001:00097b80       ?GetNext@?$CAtlMap@V?$CStringT@_WV?$StrTraitATL@_WV?$ChTraitsCRT@_W@ATL@@@ATL@@@ATL@@PAVCComplexType@@V?$CStringRefElementTraits@V?$CStringT@_WV?$StrTraitATL@_WV?$ChTraitsCRT@_W@ATL@@@ATL@@@ATL@@@2@V?$CElementTraits@PAVCComplexType@@@2@@ATL@@QAEPAVCPair@12@AAPAU__POSITION@@@Z 00498b80 f i WSDLTypesParser.obj
 0001:00097c40       ?GetNext@?$CAtlMap@V?$CStringT@_WV?$StrTraitATL@_WV?$ChTraitsCRT@_W@ATL@@@ATL@@@ATL@@PAVCElement@@V?$CStringRefElementTraits@V?$CStringT@_WV?$StrTraitATL@_WV?$ChTraitsCRT@_W@ATL@@@ATL@@@ATL@@@2@V?$CElementTraits@PAVCElement@@@2@@ATL@@QAEPAVCPair@12@AAPAU__POSITION@@@Z 00498c40 f i WSDLTypesParser.obj
 0001:00097d00       ?GetNext@?$CAtlMap@V?$CStringT@_WV?$StrTraitATL@_WV?$ChTraitsCRT@_W@ATL@@@ATL@@@ATL@@PAVCSimpleType@@V?$CStringRefElementTraits@V?$CStringT@_WV?$StrTraitATL@_WV?$ChTraitsCRT@_W@ATL@@@ATL@@@ATL@@@2@V?$CElementTraits@PAVCSimpleType@@@2@@ATL@@QAEPAVCPair@12@AAPAU__POSITION@@@Z 00498d00 f i WSDLTypesParser.obj
 0001:00097dc0       ?GetStartPosition@?$CAtlMap@V?$CStringT@_WV?$StrTraitATL@_WV?$ChTraitsCRT@_W@ATL@@@ATL@@@ATL@@PAVCComplexType@@V?$CStringRefElementTraits@V?$CStringT@_WV?$StrTraitATL@_WV?$ChTraitsCRT@_W@ATL@@@ATL@@@ATL@@@2@V?$CElementTraits@PAVCComplexType@@@2@@ATL@@QBEPAU__POSITION@@XZ 00498dc0 f i WSDLTypesParser.obj
 0001:00097e70       ?GetStartPosition@?$CAtlMap@V?$CStringT@_WV?$StrTraitATL@_WV?$ChTraitsCRT@_W@ATL@@@ATL@@@ATL@@PAVCElement@@V?$CStringRefElementTraits@V?$CStringT@_WV?$StrTraitATL@_WV?$ChTraitsCRT@_W@ATL@@@ATL@@@ATL@@@2@V?$CElementTraits@PAVCElement@@@2@@ATL@@QBEPAU__POSITION@@XZ 00498e70 f i WSDLTypesParser.obj
 0001:00097f20       ?GetStartPosition@?$CAtlMap@V?$CStringT@_WV?$StrTraitATL@_WV?$ChTraitsCRT@_W@ATL@@@ATL@@@ATL@@PAVCSimpleType@@V?$CStringRefElementTraits@V?$CStringT@_WV?$StrTraitATL@_WV?$ChTraitsCRT@_W@ATL@@@ATL@@@ATL@@@2@V?$CElementTraits@PAVCSimpleType@@@2@@ATL@@QBEPAU__POSITION@@XZ 00498f20 f i WSDLTypesParser.obj
 0001:00097fd0       ?GetType@CWSDLTypesParser@@QAEPAVCWSDLType@@XZ 00498fd0 f i WSDLTypesParser.obj
 0001:00097ff0       ?GetValueAt@?$CAtlMap@V?$CStringT@_WV?$StrTraitATL@_WV?$ChTraitsCRT@_W@ATL@@@ATL@@@ATL@@PAVCComplexType@@V?$CStringRefElementTraits@V?$CStringT@_WV?$StrTraitATL@_WV?$ChTraitsCRT@_W@ATL@@@ATL@@@ATL@@@2@V?$CElementTraits@PAVCComplexType@@@2@@ATL@@QAEAAPAVCComplexType@@PAU__POSITION@@@Z 00498ff0 f i WSDLTypesParser.obj
 0001:000980a0       ?GetValueAt@?$CAtlMap@V?$CStringT@_WV?$StrTraitATL@_WV?$ChTraitsCRT@_W@ATL@@@ATL@@@ATL@@PAVCElement@@V?$CStringRefElementTraits@V?$CStringT@_WV?$StrTraitATL@_WV?$ChTraitsCRT@_W@ATL@@@ATL@@@ATL@@@2@V?$CElementTraits@PAVCElement@@@2@@ATL@@QAEAAPAVCElement@@PAU__POSITION@@@Z 004990a0 f i WSDLTypesParser.obj
 0001:00098150       ?GetValueAt@?$CAtlMap@V?$CStringT@_WV?$StrTraitATL@_WV?$ChTraitsCRT@_W@ATL@@@ATL@@@ATL@@PAVCSimpleType@@V?$CStringRefElementTraits@V?$CStringT@_WV?$StrTraitATL@_WV?$ChTraitsCRT@_W@ATL@@@ATL@@@ATL@@@2@V?$CElementTraits@PAVCSimpleType@@@2@@ATL@@QAEAAPAVCSimpleType@@PAU__POSITION@@@Z 00499150 f i WSDLTypesParser.obj
 0001:00098200       ?GetXMLATTRMap@CSchemaParser@@UAEPBUXMLTAG@@XZ 00499200 f i WSDLTypesParser.obj
 0001:00098b70       ?GetXMLTAGMap@CSchemaParser@@UAEPBUXMLTAG@@XZ 00499b70 f i WSDLTypesParser.obj
 0001:00099860       ?IsEmpty@?$CAtlMap@V?$CStringT@_WV?$StrTraitATL@_WV?$ChTraitsCRT@_W@ATL@@@ATL@@@ATL@@PAVCComplexType@@V?$CStringRefElementTraits@V?$CStringT@_WV?$StrTraitATL@_WV?$ChTraitsCRT@_W@ATL@@@ATL@@@ATL@@@2@V?$CElementTraits@PAVCComplexType@@@2@@ATL@@QBE_NXZ 0049a860 f i WSDLTypesParser.obj
 0001:000998a0       ?IsEmpty@?$CAtlMap@V?$CStringT@_WV?$StrTraitATL@_WV?$ChTraitsCRT@_W@ATL@@@ATL@@@ATL@@PAVCElement@@V?$CStringRefElementTraits@V?$CStringT@_WV?$StrTraitATL@_WV?$ChTraitsCRT@_W@ATL@@@ATL@@@ATL@@@2@V?$CElementTraits@PAVCElement@@@2@@ATL@@QBE_NXZ 0049a8a0 f i WSDLTypesParser.obj
 0001:000998e0       ?IsEmpty@?$CAtlMap@V?$CStringT@_WV?$StrTraitATL@_WV?$ChTraitsCRT@_W@ATL@@@ATL@@@ATL@@PAVCSimpleType@@V?$CStringRefElementTraits@V?$CStringT@_WV?$StrTraitATL@_WV?$ChTraitsCRT@_W@ATL@@@ATL@@@ATL@@@2@V?$CElementTraits@PAVCSimpleType@@@2@@ATL@@QBE_NXZ 0049a8e0 f i WSDLTypesParser.obj
 0001:00099920       ?NewNode@?$CAtlList@PAVCSchema@@V?$CElementTraits@PAVCSchema@@@ATL@@@ATL@@AAEPAVCNode@12@ABQAVCSchema@@PAV312@1@Z 0049a920 f i WSDLTypesParser.obj
 0001:00099a60       ?OnDocumentation@CWSDLTypesParser@@QAEJPB_WH0H0HPAUISAXAttributes@@@Z 0049aa60 f   WSDLTypesParser.obj
 0001:00099ad0       ?OnSchema@CWSDLTypesParser@@QAEJPB_WH0H0HPAUISAXAttributes@@@Z 0049aad0 f   WSDLTypesParser.obj
 0001:00099cd0       ?OnUnrecognizedTag@CWSDLTypesParser@@UAEJPB_WH0H0HPAUISAXAttributes@@@Z 0049acd0 f   WSDLTypesParser.obj
 0001:00099da0       ?RemoveAll@?$CAtlMap@V?$CStringT@_WV?$StrTraitATL@_WV?$ChTraitsCRT@_W@ATL@@@ATL@@@ATL@@PAVCComplexType@@V?$CStringRefElementTraits@V?$CStringT@_WV?$StrTraitATL@_WV?$ChTraitsCRT@_W@ATL@@@ATL@@@ATL@@@2@V?$CElementTraits@PAVCComplexType@@@2@@ATL@@QAEXXZ 0049ada0 f i WSDLTypesParser.obj
 0001:00099eb0       ?RemoveAll@?$CAtlMap@V?$CStringT@_WV?$StrTraitATL@_WV?$ChTraitsCRT@_W@ATL@@@ATL@@@ATL@@PAVCElement@@V?$CStringRefElementTraits@V?$CStringT@_WV?$StrTraitATL@_WV?$ChTraitsCRT@_W@ATL@@@ATL@@@ATL@@@2@V?$CElementTraits@PAVCElement@@@2@@ATL@@QAEXXZ 0049aeb0 f i WSDLTypesParser.obj
 0001:00099fc0       ?RemoveAll@?$CAtlMap@V?$CStringT@_WV?$StrTraitATL@_WV?$ChTraitsCRT@_W@ATL@@@ATL@@@ATL@@PAVCSimpleType@@V?$CStringRefElementTraits@V?$CStringT@_WV?$StrTraitATL@_WV?$ChTraitsCRT@_W@ATL@@@ATL@@@ATL@@@2@V?$CElementTraits@PAVCSimpleType@@@2@@ATL@@QAEXXZ 0049afc0 f i WSDLTypesParser.obj
 0001:0009a0d0       ?RemoveAll@?$CAtlPtrMap@V?$CStringT@_WV?$StrTraitATL@_WV?$ChTraitsCRT@_W@ATL@@@ATL@@@ATL@@PAVCComplexType@@V?$CStringRefElementTraits@V?$CStringT@_WV?$StrTraitATL@_WV?$ChTraitsCRT@_W@ATL@@@ATL@@@ATL@@@2@V?$CElementTraits@PAVCComplexType@@@2@@@QAEXXZ 0049b0d0 f i WSDLTypesParser.obj
 0001:0009a1a0       ?RemoveAll@?$CAtlPtrMap@V?$CStringT@_WV?$StrTraitATL@_WV?$ChTraitsCRT@_W@ATL@@@ATL@@@ATL@@PAVCElement@@V?$CStringRefElementTraits@V?$CStringT@_WV?$StrTraitATL@_WV?$ChTraitsCRT@_W@ATL@@@ATL@@@ATL@@@2@V?$CElementTraits@PAVCElement@@@2@@@QAEXXZ 0049b1a0 f i WSDLTypesParser.obj
 0001:0009a270       ?RemoveAll@?$CAtlPtrMap@V?$CStringT@_WV?$StrTraitATL@_WV?$ChTraitsCRT@_W@ATL@@@ATL@@@ATL@@PAVCSimpleType@@V?$CStringRefElementTraits@V?$CStringT@_WV?$StrTraitATL@_WV?$ChTraitsCRT@_W@ATL@@@ATL@@@ATL@@@2@V?$CElementTraits@PAVCSimpleType@@@2@@@QAEXXZ 0049b270 f i WSDLTypesParser.obj
 0001:0009a340       ?SetOptimalLoad@?$CAtlMap@V?$CStringT@_WV?$StrTraitATL@_WV?$ChTraitsCRT@_W@ATL@@@ATL@@@ATL@@PAVCComplexType@@V?$CStringRefElementTraits@V?$CStringT@_WV?$StrTraitATL@_WV?$ChTraitsCRT@_W@ATL@@@ATL@@@ATL@@@2@V?$CElementTraits@PAVCComplexType@@@2@@ATL@@QAEXMMM_N@Z 0049b340 f i WSDLTypesParser.obj
 0001:0009a4b0       ?SetOptimalLoad@?$CAtlMap@V?$CStringT@_WV?$StrTraitATL@_WV?$ChTraitsCRT@_W@ATL@@@ATL@@@ATL@@PAVCElement@@V?$CStringRefElementTraits@V?$CStringT@_WV?$StrTraitATL@_WV?$ChTraitsCRT@_W@ATL@@@ATL@@@ATL@@@2@V?$CElementTraits@PAVCElement@@@2@@ATL@@QAEXMMM_N@Z 0049b4b0 f i WSDLTypesParser.obj
 0001:0009a620       ?SetOptimalLoad@?$CAtlMap@V?$CStringT@_WV?$StrTraitATL@_WV?$ChTraitsCRT@_W@ATL@@@ATL@@@ATL@@PAVCSimpleType@@V?$CStringRefElementTraits@V?$CStringT@_WV?$StrTraitATL@_WV?$ChTraitsCRT@_W@ATL@@@ATL@@@ATL@@@2@V?$CElementTraits@PAVCSimpleType@@@2@@ATL@@QAEXMMM_N@Z 0049b620 f i WSDLTypesParser.obj
 0001:0009a790       ?startPrefixMapping@CWSDLTypesParser@@UAGJPB_WH0H@Z 0049b790 f   WSDLTypesParser.obj
 0001:0009a7f0       ??0CXMLDocParser@@QAE@PAUISAXXMLReader@@PAVCParserBase@@K@Z 0049b7f0 f   XMLDocParser.obj
 0001:0009a840       ??0CXMLDocParser@@QAE@XZ   0049b840 f   XMLDocParser.obj
 0001:0009a880       ??1CXMLDocParser@@UAE@XZ   0049b880 f i XMLDocParser.obj
 0001:0009a8b0       ??_GCXMLDocParser@@UAEPAXI@Z 0049b8b0 f i XMLDocParser.obj
 0001:0009a8b0       ??_ECXMLDocParser@@UAEPAXI@Z 0049b8b0 f i XMLDocParser.obj
 0001:0009a900       ?GetXMLTAGMap@CXMLDocParser@@UAEPBUXMLTAG@@XZ 0049b900 f i XMLDocParser.obj
 0001:0009ab50       ?OnDefinitions@CXMLDocParser@@QAEJPB_WH0H0HPAUISAXAttributes@@@Z 0049bb50 f   XMLDocParser.obj
 0001:0009abc0       ?OnSchema@CXMLDocParser@@QAEJPB_WH0H0HPAUISAXAttributes@@@Z 0049bbc0 f   XMLDocParser.obj
 0001:0009ac30       ?OnUnrecognizedTag@CXMLDocParser@@UAEJPB_WH0H0HPAUISAXAttributes@@@Z 0049bc30 f   XMLDocParser.obj
 0001:0009acc0       ??0?$CAtlMap@V?$CStringT@_WV?$StrTraitATL@_WV?$ChTraitsCRT@_W@ATL@@@ATL@@@ATL@@PAVCXMLDocument@@V?$CStringRefElementTraits@V?$CStringT@_WV?$StrTraitATL@_WV?$ChTraitsCRT@_W@ATL@@@ATL@@@ATL@@@2@V?$CElementTraits@PAVCXMLDocument@@@2@@ATL@@QAE@IMMMI@Z 0049bcc0 f i XMLDocument.obj
 0001:0009ae20       ??0?$CAtlPtrMap@V?$CStringT@_WV?$StrTraitATL@_WV?$ChTraitsCRT@_W@ATL@@@ATL@@@ATL@@PAVCXMLDocument@@V?$CStringRefElementTraits@V?$CStringT@_WV?$StrTraitATL@_WV?$ChTraitsCRT@_W@ATL@@@ATL@@@ATL@@@2@V?$CElementTraits@PAVCXMLDocument@@@2@@@QAE@XZ 0049be20 f i XMLDocument.obj
 0001:0009ae90       ??0CNode@?$CAtlMap@V?$CStringT@_WV?$StrTraitATL@_WV?$ChTraitsCRT@_W@ATL@@@ATL@@@ATL@@PAVCXMLDocument@@V?$CStringRefElementTraits@V?$CStringT@_WV?$StrTraitATL@_WV?$ChTraitsCRT@_W@ATL@@@ATL@@@ATL@@@2@V?$CElementTraits@PAVCXMLDocument@@@2@@ATL@@QAE@ABV?$CStringT@_WV?$StrTraitATL@_WV?$ChTraitsCRT@_W@ATL@@@ATL@@@2@I@Z 0049be90 f i XMLDocument.obj
 0001:0009aed0       ??0CPair@?$CAtlMap@V?$CStringT@_WV?$StrTraitATL@_WV?$ChTraitsCRT@_W@ATL@@@ATL@@@ATL@@PAVCXMLDocument@@V?$CStringRefElementTraits@V?$CStringT@_WV?$StrTraitATL@_WV?$ChTraitsCRT@_W@ATL@@@ATL@@@ATL@@@2@V?$CElementTraits@PAVCXMLDocument@@@2@@ATL@@IAE@ABV?$CStringT@_WV?$StrTraitATL@_WV?$ChTraitsCRT@_W@ATL@@@ATL@@@2@@Z 0049bed0 f i XMLDocument.obj
 0001:0009af00       ??0CXMLDocument@@QAE@W4XMLDOCTYPE@@@Z 0049bf00 f   XMLDocument.obj
 0001:0009afc0       ??1?$CAtlMap@V?$CStringT@_WV?$StrTraitATL@_WV?$ChTraitsCRT@_W@ATL@@@ATL@@@ATL@@PAVCXMLDocument@@V?$CStringRefElementTraits@V?$CStringT@_WV?$StrTraitATL@_WV?$ChTraitsCRT@_W@ATL@@@ATL@@@ATL@@@2@V?$CElementTraits@PAVCXMLDocument@@@2@@ATL@@QAE@XZ 0049bfc0 f i XMLDocument.obj
 0001:0009b080       ??1?$CAtlPtrMap@V?$CStringT@_WV?$StrTraitATL@_WV?$ChTraitsCRT@_W@ATL@@@ATL@@@ATL@@PAVCXMLDocument@@V?$CStringRefElementTraits@V?$CStringT@_WV?$StrTraitATL@_WV?$ChTraitsCRT@_W@ATL@@@ATL@@@ATL@@@2@V?$CElementTraits@PAVCXMLDocument@@@2@@@QAE@XZ 0049c080 f i XMLDocument.obj
 0001:0009b0e0       ??1CNode@?$CAtlMap@V?$CStringT@_WV?$StrTraitATL@_WV?$ChTraitsCRT@_W@ATL@@@ATL@@@ATL@@PAVCXMLDocument@@V?$CStringRefElementTraits@V?$CStringT@_WV?$StrTraitATL@_WV?$ChTraitsCRT@_W@ATL@@@ATL@@@ATL@@@2@V?$CElementTraits@PAVCXMLDocument@@@2@@ATL@@QAE@XZ 0049c0e0 f i XMLDocument.obj
 0001:0009b110       ??1CPair@?$CAtlMap@V?$CStringT@_WV?$StrTraitATL@_WV?$ChTraitsCRT@_W@ATL@@@ATL@@@ATL@@PAVCXMLDocument@@V?$CStringRefElementTraits@V?$CStringT@_WV?$StrTraitATL@_WV?$ChTraitsCRT@_W@ATL@@@ATL@@@ATL@@@2@V?$CElementTraits@PAVCXMLDocument@@@2@@ATL@@QAE@XZ 0049c110 f i XMLDocument.obj
 0001:0009b140       ??1CXMLDocument@@UAE@XZ    0049c140 f   XMLDocument.obj
 0001:0009b1a0       ??_GCNode@?$CAtlMap@V?$CStringT@_WV?$StrTraitATL@_WV?$ChTraitsCRT@_W@ATL@@@ATL@@@ATL@@PAVCXMLDocument@@V?$CStringRefElementTraits@V?$CStringT@_WV?$StrTraitATL@_WV?$ChTraitsCRT@_W@ATL@@@ATL@@@ATL@@@2@V?$CElementTraits@PAVCXMLDocument@@@2@@ATL@@QAEPAXI@Z 0049c1a0 f i XMLDocument.obj
 0001:0009b1f0       ?AddDocument@CXMLDocument@@QAEHABV?$CStringT@_WV?$StrTraitATL@_WV?$ChTraitsCRT@_W@ATL@@@ATL@@@ATL@@PAV1@@Z 0049c1f0 f   XMLDocument.obj
 0001:0009b270       ?AddDocument@CXMLDocument@@QAEHPB_WHPAV1@@Z 0049c270 f   XMLDocument.obj
 0001:0009b320       ?CreateNode@?$CAtlMap@V?$CStringT@_WV?$StrTraitATL@_WV?$ChTraitsCRT@_W@ATL@@@ATL@@@ATL@@PAVCXMLDocument@@V?$CStringRefElementTraits@V?$CStringT@_WV?$StrTraitATL@_WV?$ChTraitsCRT@_W@ATL@@@ATL@@@ATL@@@2@V?$CElementTraits@PAVCXMLDocument@@@2@@ATL@@AAEPAVCNode@12@ABV?$CStringT@_WV?$StrTraitATL@_WV?$ChTraitsCRT@_W@ATL@@@ATL@@@2@II@Z 0049c320 f i XMLDocument.obj
 0001:0009b3a0       ?DisableAutoRehash@?$CAtlMap@V?$CStringT@_WV?$StrTraitATL@_WV?$ChTraitsCRT@_W@ATL@@@ATL@@@ATL@@PAVCXMLDocument@@V?$CStringRefElementTraits@V?$CStringT@_WV?$StrTraitATL@_WV?$ChTraitsCRT@_W@ATL@@@ATL@@@ATL@@@2@V?$CElementTraits@PAVCXMLDocument@@@2@@ATL@@QAEXXZ 0049c3a0 f i XMLDocument.obj
 0001:0009b3d0       ?EnableAutoRehash@?$CAtlMap@V?$CStringT@_WV?$StrTraitATL@_WV?$ChTraitsCRT@_W@ATL@@@ATL@@@ATL@@PAVCXMLDocument@@V?$CStringRefElementTraits@V?$CStringT@_WV?$StrTraitATL@_WV?$ChTraitsCRT@_W@ATL@@@ATL@@@ATL@@@2@V?$CElementTraits@PAVCXMLDocument@@@2@@ATL@@QAEXXZ 0049c3d0 f i XMLDocument.obj
 0001:0009b440       ?FindNextNode@?$CAtlMap@V?$CStringT@_WV?$StrTraitATL@_WV?$ChTraitsCRT@_W@ATL@@@ATL@@@ATL@@PAVCXMLDocument@@V?$CStringRefElementTraits@V?$CStringT@_WV?$StrTraitATL@_WV?$ChTraitsCRT@_W@ATL@@@ATL@@@ATL@@@2@V?$CElementTraits@PAVCXMLDocument@@@2@@ATL@@ABEPAVCNode@12@PAV312@@Z 0049c440 f i XMLDocument.obj
 0001:0009b530       ?FreeNode@?$CAtlMap@V?$CStringT@_WV?$StrTraitATL@_WV?$ChTraitsCRT@_W@ATL@@@ATL@@@ATL@@PAVCXMLDocument@@V?$CStringRefElementTraits@V?$CStringT@_WV?$StrTraitATL@_WV?$ChTraitsCRT@_W@ATL@@@ATL@@@ATL@@@2@V?$CElementTraits@PAVCXMLDocument@@@2@@ATL@@AAEXPAVCNode@12@@Z 0049c530 f i XMLDocument.obj
 0001:0009b6a0       ?FreePlexes@?$CAtlMap@V?$CStringT@_WV?$StrTraitATL@_WV?$ChTraitsCRT@_W@ATL@@@ATL@@@ATL@@PAVCXMLDocument@@V?$CStringRefElementTraits@V?$CStringT@_WV?$StrTraitATL@_WV?$ChTraitsCRT@_W@ATL@@@ATL@@@ATL@@@2@V?$CElementTraits@PAVCXMLDocument@@@2@@ATL@@AAEXXZ 0049c6a0 f i XMLDocument.obj
 0001:0009b6f0       ?GetDocument@CXMLDocument@@QAEPAV1@ABV?$CStringT@_WV?$StrTraitATL@_WV?$ChTraitsCRT@_W@ATL@@@ATL@@@ATL@@@Z 0049c6f0 f   XMLDocument.obj
 0001:0009b770       ?GetDocument@CXMLDocument@@QAEPAV1@PB_WH@Z 0049c770 f   XMLDocument.obj
 0001:0009b810       ?GetHash@CNode@?$CAtlMap@V?$CStringT@_WV?$StrTraitATL@_WV?$ChTraitsCRT@_W@ATL@@@ATL@@@ATL@@PAVCXMLDocument@@V?$CStringRefElementTraits@V?$CStringT@_WV?$StrTraitATL@_WV?$ChTraitsCRT@_W@ATL@@@ATL@@@ATL@@@2@V?$CElementTraits@PAVCXMLDocument@@@2@@ATL@@QBEIXZ 0049c810 f i XMLDocument.obj
 0001:0009b830       ?GetNext@?$CAtlMap@V?$CStringT@_WV?$StrTraitATL@_WV?$ChTraitsCRT@_W@ATL@@@ATL@@@ATL@@PAVCXMLDocument@@V?$CStringRefElementTraits@V?$CStringT@_WV?$StrTraitATL@_WV?$ChTraitsCRT@_W@ATL@@@ATL@@@ATL@@@2@V?$CElementTraits@PAVCXMLDocument@@@2@@ATL@@QAEPAVCPair@12@AAPAU__POSITION@@@Z 0049c830 f i XMLDocument.obj
 0001:0009b8f0       ?GetNode@?$CAtlMap@V?$CStringT@_WV?$StrTraitATL@_WV?$ChTraitsCRT@_W@ATL@@@ATL@@@ATL@@PAVCXMLDocument@@V?$CStringRefElementTraits@V?$CStringT@_WV?$StrTraitATL@_WV?$ChTraitsCRT@_W@ATL@@@ATL@@@ATL@@@2@V?$CElementTraits@PAVCXMLDocument@@@2@@ATL@@ABEPAVCNode@12@ABV?$CStringT@_WV?$StrTraitATL@_WV?$ChTraitsCRT@_W@ATL@@@ATL@@@2@AAI1AAPAV312@@Z 0049c8f0 f i XMLDocument.obj
 0001:0009b9d0       ?GetStartPosition@?$CAtlMap@V?$CStringT@_WV?$StrTraitATL@_WV?$ChTraitsCRT@_W@ATL@@@ATL@@@ATL@@PAVCXMLDocument@@V?$CStringRefElementTraits@V?$CStringT@_WV?$StrTraitATL@_WV?$ChTraitsCRT@_W@ATL@@@ATL@@@ATL@@@2@V?$CElementTraits@PAVCXMLDocument@@@2@@ATL@@QBEPAU__POSITION@@XZ 0049c9d0 f i XMLDocument.obj
 0001:0009ba80       ?GetValueAt@?$CAtlMap@V?$CStringT@_WV?$StrTraitATL@_WV?$ChTraitsCRT@_W@ATL@@@ATL@@@ATL@@PAVCXMLDocument@@V?$CStringRefElementTraits@V?$CStringT@_WV?$StrTraitATL@_WV?$ChTraitsCRT@_W@ATL@@@ATL@@@ATL@@@2@V?$CElementTraits@PAVCXMLDocument@@@2@@ATL@@QAEAAPAVCXMLDocument@@PAU__POSITION@@@Z 0049ca80 f i XMLDocument.obj
 0001:0009bb30       ?InitHashTable@?$CAtlMap@V?$CStringT@_WV?$StrTraitATL@_WV?$ChTraitsCRT@_W@ATL@@@ATL@@@ATL@@PAVCXMLDocument@@V?$CStringRefElementTraits@V?$CStringT@_WV?$StrTraitATL@_WV?$ChTraitsCRT@_W@ATL@@@ATL@@@ATL@@@2@V?$CElementTraits@PAVCXMLDocument@@@2@@ATL@@QAE_NI_N@Z 0049cb30 f i XMLDocument.obj
 0001:0009bd00       ?IsEmpty@?$CAtlMap@V?$CStringT@_WV?$StrTraitATL@_WV?$ChTraitsCRT@_W@ATL@@@ATL@@@ATL@@PAVCXMLDocument@@V?$CStringRefElementTraits@V?$CStringT@_WV?$StrTraitATL@_WV?$ChTraitsCRT@_W@ATL@@@ATL@@@ATL@@@2@V?$CElementTraits@PAVCXMLDocument@@@2@@ATL@@QBE_NXZ 0049cd00 f i XMLDocument.obj
 0001:0009bd40       ?IsLocked@?$CAtlMap@V?$CStringT@_WV?$StrTraitATL@_WV?$ChTraitsCRT@_W@ATL@@@ATL@@@ATL@@PAVCXMLDocument@@V?$CStringRefElementTraits@V?$CStringT@_WV?$StrTraitATL@_WV?$ChTraitsCRT@_W@ATL@@@ATL@@@ATL@@@2@V?$CElementTraits@PAVCXMLDocument@@@2@@ATL@@ABE_NXZ 0049cd40 f i XMLDocument.obj
 0001:0009bd80       ?Lookup@?$CAtlMap@V?$CStringT@_WV?$StrTraitATL@_WV?$ChTraitsCRT@_W@ATL@@@ATL@@@ATL@@PAVCXMLDocument@@V?$CStringRefElementTraits@V?$CStringT@_WV?$StrTraitATL@_WV?$ChTraitsCRT@_W@ATL@@@ATL@@@ATL@@@2@V?$CElementTraits@PAVCXMLDocument@@@2@@ATL@@QAEPAVCPair@12@ABV?$CStringT@_WV?$StrTraitATL@_WV?$ChTraitsCRT@_W@ATL@@@ATL@@@2@@Z 0049cd80 f i XMLDocument.obj
 0001:0009bdc0       ?NewNode@?$CAtlMap@V?$CStringT@_WV?$StrTraitATL@_WV?$ChTraitsCRT@_W@ATL@@@ATL@@@ATL@@PAVCXMLDocument@@V?$CStringRefElementTraits@V?$CStringT@_WV?$StrTraitATL@_WV?$ChTraitsCRT@_W@ATL@@@ATL@@@ATL@@@2@V?$CElementTraits@PAVCXMLDocument@@@2@@ATL@@AAEPAVCNode@12@ABV?$CStringT@_WV?$StrTraitATL@_WV?$ChTraitsCRT@_W@ATL@@@ATL@@@2@II@Z 0049cdc0 f i XMLDocument.obj
 0001:0009c090       ?PickSize@?$CAtlMap@V?$CStringT@_WV?$StrTraitATL@_WV?$ChTraitsCRT@_W@ATL@@@ATL@@@ATL@@PAVCXMLDocument@@V?$CStringRefElementTraits@V?$CStringT@_WV?$StrTraitATL@_WV?$ChTraitsCRT@_W@ATL@@@ATL@@@ATL@@@2@V?$CElementTraits@PAVCXMLDocument@@@2@@ATL@@ABEII@Z 0049d090 f i XMLDocument.obj
 0001:0009c160       ?Rehash@?$CAtlMap@V?$CStringT@_WV?$StrTraitATL@_WV?$ChTraitsCRT@_W@ATL@@@ATL@@@ATL@@PAVCXMLDocument@@V?$CStringRefElementTraits@V?$CStringT@_WV?$StrTraitATL@_WV?$ChTraitsCRT@_W@ATL@@@ATL@@@ATL@@@2@V?$CElementTraits@PAVCXMLDocument@@@2@@ATL@@QAEXI@Z 0049d160 f i XMLDocument.obj
 0001:0009c3b0       ?RemoveAll@?$CAtlMap@V?$CStringT@_WV?$StrTraitATL@_WV?$ChTraitsCRT@_W@ATL@@@ATL@@@ATL@@PAVCXMLDocument@@V?$CStringRefElementTraits@V?$CStringT@_WV?$StrTraitATL@_WV?$ChTraitsCRT@_W@ATL@@@ATL@@@ATL@@@2@V?$CElementTraits@PAVCXMLDocument@@@2@@ATL@@QAEXXZ 0049d3b0 f i XMLDocument.obj
 0001:0009c4c0       ?RemoveAll@?$CAtlPtrMap@V?$CStringT@_WV?$StrTraitATL@_WV?$ChTraitsCRT@_W@ATL@@@ATL@@@ATL@@PAVCXMLDocument@@V?$CStringRefElementTraits@V?$CStringT@_WV?$StrTraitATL@_WV?$ChTraitsCRT@_W@ATL@@@ATL@@@ATL@@@2@V?$CElementTraits@PAVCXMLDocument@@@2@@@QAEXXZ 0049d4c0 f i XMLDocument.obj
 0001:0009c590       ?RemoveAtPos@?$CAtlMap@V?$CStringT@_WV?$StrTraitATL@_WV?$ChTraitsCRT@_W@ATL@@@ATL@@@ATL@@PAVCXMLDocument@@V?$CStringRefElementTraits@V?$CStringT@_WV?$StrTraitATL@_WV?$ChTraitsCRT@_W@ATL@@@ATL@@@ATL@@@2@V?$CElementTraits@PAVCXMLDocument@@@2@@ATL@@QAEXPAU__POSITION@@@Z 0049d590 f i XMLDocument.obj
 0001:0009c730       ?RemoveNode@?$CAtlMap@V?$CStringT@_WV?$StrTraitATL@_WV?$ChTraitsCRT@_W@ATL@@@ATL@@@ATL@@PAVCXMLDocument@@V?$CStringRefElementTraits@V?$CStringT@_WV?$StrTraitATL@_WV?$ChTraitsCRT@_W@ATL@@@ATL@@@ATL@@@2@V?$CElementTraits@PAVCXMLDocument@@@2@@ATL@@AAEXPAVCNode@12@0@Z 0049d730 f i XMLDocument.obj
 0001:0009c8a0       ?SetAt@?$CAtlMap@V?$CStringT@_WV?$StrTraitATL@_WV?$ChTraitsCRT@_W@ATL@@@ATL@@@ATL@@PAVCXMLDocument@@V?$CStringRefElementTraits@V?$CStringT@_WV?$StrTraitATL@_WV?$ChTraitsCRT@_W@ATL@@@ATL@@@ATL@@@2@V?$CElementTraits@PAVCXMLDocument@@@2@@ATL@@QAEPAU__POSITION@@ABV?$CStringT@_WV?$StrTraitATL@_WV?$ChTraitsCRT@_W@ATL@@@ATL@@@2@ABQAVCXMLDocument@@@Z 0049d8a0 f i XMLDocument.obj
 0001:0009c9a0       ?SetOptimalLoad@?$CAtlMap@V?$CStringT@_WV?$StrTraitATL@_WV?$ChTraitsCRT@_W@ATL@@@ATL@@@ATL@@PAVCXMLDocument@@V?$CStringRefElementTraits@V?$CStringT@_WV?$StrTraitATL@_WV?$ChTraitsCRT@_W@ATL@@@ATL@@@ATL@@@2@V?$CElementTraits@PAVCXMLDocument@@@2@@ATL@@QAEXMMM_N@Z 0049d9a0 f i XMLDocument.obj
 0001:0009cb10       ?UpdateRehashThresholds@?$CAtlMap@V?$CStringT@_WV?$StrTraitATL@_WV?$ChTraitsCRT@_W@ATL@@@ATL@@@ATL@@PAVCXMLDocument@@V?$CStringRefElementTraits@V?$CStringT@_WV?$StrTraitATL@_WV?$ChTraitsCRT@_W@ATL@@@ATL@@@ATL@@@2@V?$CElementTraits@PAVCXMLDocument@@@2@@ATL@@AAEXXZ 0049db10 f i XMLDocument.obj
 0001:0009ce50       ??0?$CStringT@_WV?$StrTraitATL@_WV?$ChTraitsCRT@_W@ATL@@@ATL@@@ATL@@QAE@PB_WH@Z 0049de50 f i XMLElement.obj
 0001:0009ce90       ?GetNamespaceUri@CXMLElement@@QAEJABV?$CStringT@_WV?$StrTraitATL@_WV?$ChTraitsCRT@_W@ATL@@@ATL@@@ATL@@AAV23@@Z 0049de90 f   XMLElement.obj
 0001:0009cf00       ?GetNamespaceUri@CXMLElement@@QAEPB_WPB_WH@Z 0049df00 f   XMLElement.obj
 0001:0009d020       ?Lookup@?$CAtlMap@V?$CStringT@_WV?$StrTraitATL@_WV?$ChTraitsCRT@_W@ATL@@@ATL@@@ATL@@V12@V?$CStringRefElementTraits@V?$CStringT@_WV?$StrTraitATL@_WV?$ChTraitsCRT@_W@ATL@@@ATL@@@ATL@@@2@V32@@ATL@@QBE_NABV?$CStringT@_WV?$StrTraitATL@_WV?$ChTraitsCRT@_W@ATL@@@ATL@@@2@AAV32@@Z 0049e020 f i XMLElement.obj
 0001:0009d080       ?SetNamespaceUri@CXMLElement@@QAEJABV?$CStringT@_WV?$StrTraitATL@_WV?$ChTraitsCRT@_W@ATL@@@ATL@@@ATL@@AAV23@@Z 0049e080 f   XMLElement.obj
 0001:0009d0e0       ?SetNamespaceUri@CXMLElement@@QAEJPB_WH0H@Z 0049e0e0 f   XMLElement.obj
 0001:0009d45c       _DecodePointer@4           0049e45c f   kernel32:KERNEL32.dll
 0001:0009d462       _RaiseException@16         0049e462 f   kernel32:KERNEL32.dll
 0001:0009d468       _GetLastError@0            0049e468 f   kernel32:KERNEL32.dll
 0001:0009d46e       _SetLastError@4            0049e46e f   kernel32:KERNEL32.dll
 0001:0009d474       _HeapDestroy@4             0049e474 f   kernel32:KERNEL32.dll
 0001:0009d47a       _HeapAlloc@12              0049e47a f   kernel32:KERNEL32.dll
 0001:0009d480       _HeapReAlloc@16            0049e480 f   kernel32:KERNEL32.dll
 0001:0009d486       _HeapFree@12               0049e486 f   kernel32:KERNEL32.dll
 0001:0009d48c       _HeapSize@12               0049e48c f   kernel32:KERNEL32.dll
 0001:0009d492       _GetProcessHeap@0          0049e492 f   kernel32:KERNEL32.dll
 0001:0009d498       _InitializeCriticalSectionAndSpinCount@8 0049e498 f   kernel32:KERNEL32.dll
 0001:0009d49e       _DeleteCriticalSection@4   0049e49e f   kernel32:KERNEL32.dll
 0001:0009d4a4       _MultiByteToWideChar@24    0049e4a4 f   kernel32:KERNEL32.dll
 0001:0009d4aa       _FindResourceExW@16        0049e4aa f   kernel32:KERNEL32.dll
 0001:0009d4b0       _LoadResource@8            0049e4b0 f   kernel32:KERNEL32.dll
 0001:0009d4b6       _LockResource@4            0049e4b6 f   kernel32:KERNEL32.dll
 0001:0009d4bc       _SizeofResource@8          0049e4bc f   kernel32:KERNEL32.dll
 0001:0009d4c2       _FindResourceW@12          0049e4c2 f   kernel32:KERNEL32.dll
 0001:0009d4c8       _WideCharToMultiByte@32    0049e4c8 f   kernel32:KERNEL32.dll
 0001:0009d4ce       _CreateFileW@28            0049e4ce f   kernel32:KERNEL32.dll
 0001:0009d4d4       _FlushFileBuffers@4        0049e4d4 f   kernel32:KERNEL32.dll
 0001:0009d4da       _WriteFile@20              0049e4da f   kernel32:KERNEL32.dll
 0001:0009d4e0       _CloseHandle@4             0049e4e0 f   kernel32:KERNEL32.dll
 0001:0009d4e6       _GetSystemTime@4           0049e4e6 f   kernel32:KERNEL32.dll
 0001:0009d4ec       _GetModuleHandleA@4        0049e4ec f   kernel32:KERNEL32.dll
 0001:0009d4f2       _FindResourceA@12          0049e4f2 f   kernel32:KERNEL32.dll
 0001:0009d4f8       _SystemTimeToTzSpecificLocalTime@12 0049e4f8 f   kernel32:KERNEL32.dll
 0001:0009d4fe       _GetTimeZoneInformation@4  0049e4fe f   kernel32:KERNEL32.dll
 0001:0009d504       _GetLocaleInfoA@16         0049e504 f   kernel32:KERNEL32.dll
 0001:0009d50a       _GetThreadLocale@0         0049e50a f   kernel32:KERNEL32.dll
 0001:0009d510       _SetThreadLocale@4         0049e510 f   kernel32:KERNEL32.dll
 0001:0009d516       _GetFullPathNameW@16       0049e516 f   kernel32:KERNEL32.dll
 0001:0009d51c       _LocalFree@4               0049e51c f   kernel32:KERNEL32.dll
 0001:0009d522       _FormatMessageA@28         0049e522 f   kernel32:KERNEL32.dll
 0001:0009d528       _VerSetConditionMask@16    0049e528 f   kernel32:KERNEL32.dll
 0001:0009d52e       _GetCommandLineW@0         0049e52e f   kernel32:KERNEL32.dll
 0001:0009d534       _CreateFileA@28            0049e534 f   kernel32:KERNEL32.dll
 0001:0009d53a       _FindClose@4               0049e53a f   kernel32:KERNEL32.dll
 0001:0009d540       _FindFirstFileA@8          0049e540 f   kernel32:KERNEL32.dll
 0001:0009d546       _FindNextFileA@8           0049e546 f   kernel32:KERNEL32.dll
 0001:0009d54c       _GetFileAttributesA@4      0049e54c f   kernel32:KERNEL32.dll
 0001:0009d552       _ReadFile@20               0049e552 f   kernel32:KERNEL32.dll
 0001:0009d558       _IsDebuggerPresent@0       0049e558 f   kernel32:KERNEL32.dll
 0001:0009d55e       _DuplicateHandle@28        0049e55e f   kernel32:KERNEL32.dll
 0001:0009d564       _WaitForSingleObject@8     0049e564 f   kernel32:KERNEL32.dll
 0001:0009d56a       _GetCurrentProcess@0       0049e56a f   kernel32:KERNEL32.dll
 0001:0009d570       _GetCurrentProcessId@0     0049e570 f   kernel32:KERNEL32.dll
 0001:0009d576       _CreateThread@24           0049e576 f   kernel32:KERNEL32.dll
 0001:0009d57c       _GetCurrentThread@0        0049e57c f   kernel32:KERNEL32.dll
 0001:0009d582       _SuspendThread@4           0049e582 f   kernel32:KERNEL32.dll
 0001:0009d588       _ResumeThread@4            0049e588 f   kernel32:KERNEL32.dll
 0001:0009d58e       _GetThreadContext@8        0049e58e f   kernel32:KERNEL32.dll
 0001:0009d594       _VirtualQueryEx@16         0049e594 f   kernel32:KERNEL32.dll
 0001:0009d59a       _GetModuleFileNameA@12     0049e59a f   kernel32:KERNEL32.dll
 0001:0009d5a0       _GetModuleFileNameW@12     0049e5a0 f   kernel32:KERNEL32.dll
 0001:0009d5a6       _GetModuleHandleW@4        0049e5a6 f   kernel32:KERNEL32.dll
 0001:0009d5ac       _GetProcAddress@8          0049e5ac f   kernel32:KERNEL32.dll
 0001:0009d5b2       _LoadLibraryExA@12         0049e5b2 f   kernel32:KERNEL32.dll
 0001:0009d5b8       _GlobalFree@4              0049e5b8 f   kernel32:KERNEL32.dll
 0001:0009d5be       _EnumResourceLanguagesA@20 0049e5be f   kernel32:KERNEL32.dll
 0001:0009d5c4       _WaitNamedPipeA@8          0049e5c4 f   kernel32:KERNEL32.dll
 0001:0009d5ca       _GetComputerNameA@8        0049e5ca f   kernel32:KERNEL32.dll
 0001:0009d5d0       _VerifyVersionInfoA@16     0049e5d0 f   kernel32:KERNEL32.dll
 0001:0009d5d6       _UnregisterClassA@8        0049e5d6 f   user32:USER32.dll
 0001:0009d5dc       _CharNextExA@12            0049e5dc f   user32:USER32.dll
 0001:0009d5e2       _CharPrevExA@16            0049e5e2 f   user32:USER32.dll
 0001:0009d5e8       _SetThreadToken@8          0049e5e8 f   advapi32:ADVAPI32.dll
 0001:0009d5ee       _OpenThreadToken@16        0049e5ee f   advapi32:ADVAPI32.dll
 0001:0009d5f4       _RevertToSelf@0            0049e5f4 f   advapi32:ADVAPI32.dll
 0001:0009d5fa       _RegCloseKey@4             0049e5fa f   advapi32:ADVAPI32.dll
 0001:0009d600       _RegOpenKeyExA@20          0049e600 f   advapi32:ADVAPI32.dll
 0001:0009d606       _RegQueryValueExA@24       0049e606 f   advapi32:ADVAPI32.dll
 0001:0009d60c       _CommandLineToArgvW@8      0049e60c f   shell32:SHELL32.dll
 0001:0009d612       _CoCreateInstance@20       0049e612 f   ole32:ole32.dll
 0001:0009d618       _CoUninitialize@0          0049e618 f   ole32:ole32.dll
 0001:0009d61e       _CoInitialize@4            0049e61e f   ole32:ole32.dll
 0001:0009d624       _SysFreeString@4           0049e624 f   oleaut32:OLEAUT32.dll
 0001:0009d62a       _SysAllocString@4          0049e62a f   oleaut32:OLEAUT32.dll
 0001:0009d630       ??$?2PAUHINSTANCE__@@@Wrapper@?$CSimpleArray@PAUHINSTANCE__@@V?$CSimpleArrayEqualHelper@PAUHINSTANCE__@@@ATL@@@ATL@@SAPAXIPAPAUHINSTANCE__@@@Z 0049e630 f i atls:atlbase.obj
 0001:0009d63a       ??0?$CComCritSecLock@VCComCriticalSection@ATL@@@ATL@@QAE@AAVCComCriticalSection@1@_N@Z 0049e63a f i atls:atlbase.obj
 0001:0009d66a       ??0?$CSimpleArray@PAUHINSTANCE__@@V?$CSimpleArrayEqualHelper@PAUHINSTANCE__@@@ATL@@@ATL@@QAE@XZ 0049e66a f i atls:atlbase.obj
 0001:0009d67a       ??0CAtlBaseModule@ATL@@QAE@XZ 0049e67a f   atls:atlbase.obj
 0001:0009d6e1       ??0Wrapper@?$CSimpleArray@PAUHINSTANCE__@@V?$CSimpleArrayEqualHelper@PAUHINSTANCE__@@@ATL@@@ATL@@QAE@ABQAUHINSTANCE__@@@Z 0049e6e1 f i atls:atlbase.obj
 0001:0009d6f5       ??0_ATL_BASE_MODULE70@ATL@@QAE@XZ 0049e6f5 f i atls:atlbase.obj
 0001:0009d720       ??1?$CComCritSecLock@VCComCriticalSection@ATL@@@ATL@@QAE@XZ 0049e720 f i atls:atlbase.obj
 0001:0009d73c       ??1?$CSimpleArray@PAUHINSTANCE__@@V?$CSimpleArrayEqualHelper@PAUHINSTANCE__@@@ATL@@@ATL@@QAE@XZ 0049e73c f i atls:atlbase.obj
 0001:0009d741       ??1CAtlBaseModule@ATL@@QAE@XZ 0049e741 f   atls:atlbase.obj
 0001:0009d75c       ??1_ATL_BASE_MODULE70@ATL@@QAE@XZ 0049e75c f i atls:atlbase.obj
 0001:0009d766       ??A?$CSimpleArray@PAUHINSTANCE__@@V?$CSimpleArrayEqualHelper@PAUHINSTANCE__@@@ATL@@@ATL@@QAEAAPAUHINSTANCE__@@H@Z 0049e766 f i atls:atlbase.obj
 0001:0009d794       ?Add@?$CSimpleArray@PAUHINSTANCE__@@V?$CSimpleArrayEqualHelper@PAUHINSTANCE__@@@ATL@@@ATL@@QAEHABQAUHINSTANCE__@@@Z 0049e794 f i atls:atlbase.obj
 0001:0009d82a       ?AddResourceInstance@CAtlBaseModule@ATL@@QAE_NPAUHINSTANCE__@@@Z 0049e82a f   atls:atlbase.obj
 0001:0009d869       ?GetHInstanceAt@CAtlBaseModule@ATL@@QAEPAUHINSTANCE__@@H@Z 0049e869 f   atls:atlbase.obj
 0001:0009d8bf       ?GetSize@?$CSimpleArray@PAUHINSTANCE__@@V?$CSimpleArrayEqualHelper@PAUHINSTANCE__@@@ATL@@@ATL@@QBEHXZ 0049e8bf f i atls:atlbase.obj
 0001:0009d8c3       ?InternalSetAtIndex@?$CSimpleArray@PAUHINSTANCE__@@V?$CSimpleArrayEqualHelper@PAUHINSTANCE__@@@ATL@@@ATL@@QAEXHABQAUHINSTANCE__@@@Z 0049e8c3 f i atls:atlbase.obj
 0001:0009d8e3       ?Lock@?$CComCritSecLock@VCComCriticalSection@ATL@@@ATL@@QAEJXZ 0049e8e3 f i atls:atlbase.obj
 0001:0009d8fa       ?Lock@CComCriticalSection@ATL@@QAEJXZ 0049e8fa f i atls:atlbase.obj
 0001:0009d906       ?RemoveAll@?$CSimpleArray@PAUHINSTANCE__@@V?$CSimpleArrayEqualHelper@PAUHINSTANCE__@@@ATL@@@ATL@@QAEXXZ 0049e906 f i atls:atlbase.obj
 0001:0009d92a       ?RemoveAt@?$CSimpleArray@PAUHINSTANCE__@@V?$CSimpleArrayEqualHelper@PAUHINSTANCE__@@@ATL@@@ATL@@QAEHH@Z 0049e92a f i atls:atlbase.obj
 0001:0009d984       ?RemoveResourceInstance@CAtlBaseModule@ATL@@QAE_NPAUHINSTANCE__@@@Z 0049e984 f   atls:atlbase.obj
 0001:0009d9fa       ?Unlock@?$CComCritSecLock@VCComCriticalSection@ATL@@@ATL@@QAEXXZ 0049e9fa f i atls:atlbase.obj
 0001:0009da0f       ?Unlock@CComCriticalSection@ATL@@QAEJXZ 0049ea0f f i atls:atlbase.obj
 0001:0009da7a       ??0?$CTraceCategoryEx@$00$0A@@ATL@@QAE@PB_W@Z 0049ea7a f i atls:stdafx.obj
 0001:0009da7f       ??0?$CTraceCategoryEx@$01$0A@@ATL@@QAE@PB_W@Z 0049ea7f f i atls:stdafx.obj
 0001:0009da84       ??0?$CTraceCategoryEx@$03$0A@@ATL@@QAE@PB_W@Z 0049ea84 f i atls:stdafx.obj
 0001:0009da89       ??0?$CTraceCategoryEx@$07$0A@@ATL@@QAE@PB_W@Z 0049ea89 f i atls:stdafx.obj
 0001:0009da8e       ??0?$CTraceCategoryEx@$0BA@$0A@@ATL@@QAE@PB_W@Z 0049ea8e f i atls:stdafx.obj
 0001:0009da93       ??0?$CTraceCategoryEx@$0BAA@$0A@@ATL@@QAE@PB_W@Z 0049ea93 f i atls:stdafx.obj
 0001:0009da98       ??0?$CTraceCategoryEx@$0BAAA@$0A@@ATL@@QAE@PB_W@Z 0049ea98 f i atls:stdafx.obj
 0001:0009da9d       ??0?$CTraceCategoryEx@$0BAAAA@$0A@@ATL@@QAE@PB_W@Z 0049ea9d f i atls:stdafx.obj
 0001:0009daa2       ??0?$CTraceCategoryEx@$0BAAAAA@$0A@@ATL@@QAE@PB_W@Z 0049eaa2 f i atls:stdafx.obj
 0001:0009daa7       ??0?$CTraceCategoryEx@$0CA@$0A@@ATL@@QAE@PB_W@Z 0049eaa7 f i atls:stdafx.obj
 0001:0009daac       ??0?$CTraceCategoryEx@$0CAA@$0A@@ATL@@QAE@PB_W@Z 0049eaac f i atls:stdafx.obj
 0001:0009dab1       ??0?$CTraceCategoryEx@$0CAAA@$0A@@ATL@@QAE@PB_W@Z 0049eab1 f i atls:stdafx.obj
 0001:0009dab6       ??0?$CTraceCategoryEx@$0CAAAA@$0A@@ATL@@QAE@PB_W@Z 0049eab6 f i atls:stdafx.obj
 0001:0009dabb       ??0?$CTraceCategoryEx@$0CAAAAA@$0A@@ATL@@QAE@PB_W@Z 0049eabb f i atls:stdafx.obj
 0001:0009dac0       ??0?$CTraceCategoryEx@$0EA@$0A@@ATL@@QAE@PB_W@Z 0049eac0 f i atls:stdafx.obj
 0001:0009dac5       ??0?$CTraceCategoryEx@$0EAA@$0A@@ATL@@QAE@PB_W@Z 0049eac5 f i atls:stdafx.obj
 0001:0009daca       ??0?$CTraceCategoryEx@$0EAAA@$0A@@ATL@@QAE@PB_W@Z 0049eaca f i atls:stdafx.obj
 0001:0009dacf       ??0?$CTraceCategoryEx@$0EAAAA@$0A@@ATL@@QAE@PB_W@Z 0049eacf f i atls:stdafx.obj
 0001:0009dad4       ??0?$CTraceCategoryEx@$0EAAAAA@$0A@@ATL@@QAE@PB_W@Z 0049ead4 f i atls:stdafx.obj
 0001:0009dad9       ??0?$CTraceCategoryEx@$0IA@$0A@@ATL@@QAE@PB_W@Z 0049ead9 f i atls:stdafx.obj
 0001:0009dade       ??0?$CTraceCategoryEx@$0IAA@$0A@@ATL@@QAE@PB_W@Z 0049eade f i atls:stdafx.obj
 0001:0009dae3       ??0?$CTraceCategoryEx@$0IAAA@$0A@@ATL@@QAE@PB_W@Z 0049eae3 f i atls:stdafx.obj
 0001:0009dae8       ??0?$CTraceCategoryEx@$0IAAAA@$0A@@ATL@@QAE@PB_W@Z 0049eae8 f i atls:stdafx.obj
 0001:0009daed       ??_I@YGXPAXIIP6EX0@Z@Z     0049eaed f i atls:stdafx.obj
 0001:0009db2c       _PathCombineW@12           0049eb2c f   shlwapi:SHLWAPI.dll
 0001:0009db32       _WSACleanup@0              0049eb32 f   ws2_32:WS2_32.dll
 0001:0009db38       _UnDecorateSymbolName@16   0049eb38 f   dbghelp:dbghelp.dll
 0001:0009db3e       _StackWalk@36              0049eb3e f   dbghelp:dbghelp.dll
 0001:0009db44       _SymSetOptions@4           0049eb44 f   dbghelp:dbghelp.dll
 0001:0009db4a       _SymGetOptions@0           0049eb4a f   dbghelp:dbghelp.dll
 0001:0009db50       _SymCleanup@4              0049eb50 f   dbghelp:dbghelp.dll
 0001:0009db56       _SymFunctionTableAccess@8  0049eb56 f   dbghelp:dbghelp.dll
 0001:0009db5c       _SymGetModuleInfo@12       0049eb5c f   dbghelp:dbghelp.dll
 0001:0009db62       _SymInitialize@12          0049eb62 f   dbghelp:dbghelp.dll
 0001:0009db68       _SymUnDName@12             0049eb68 f   dbghelp:dbghelp.dll
 0001:0009db6e       _SymGetSymFromAddr@16      0049eb6e f   dbghelp:dbghelp.dll
 0001:0009db74       _SymLoadModule@24          0049eb74 f   dbghelp:dbghelp.dll
 0001:0009db80       ??3@YAXPAX@Z               0049eb80 f   LIBCMTD:delete_scalar.obj
 0001:0009dba0       ??_M@YGXPAXIHP6EX0@Z@Z     0049eba0 f   LIBCMTD:ehvecdtr.obj
 0001:0009dbd0       ??_M@YGXPAXIIP6EX0@Z@Z     0049ebd0 f   LIBCMTD:ehvecdtr.obj
 0001:0009dd00       ?__ArrayUnwind@@YGXPAXIIP6EX0@Z@Z 0049ed00 f   LIBCMTD:ehvecdtr.obj
 0001:0009ddd0       ??3@YAXPAXI@Z              0049edd0 f   LIBCMTD:delete_scalar_size.obj
 0001:0009ddf0       ??_V@YAXPAXI@Z             0049edf0 f   LIBCMTD:delete_array_size.obj
 0001:0009de10       ??$__crt_fast_decode_pointer@PAP6AXXZ@@YAPAP6AXXZQAP6AXXZ@Z 0049ee10 f i LIBCMTD:utility.obj
 0001:0009de40       ??$__crt_fast_encode_pointer@PAP6AXXZ@@YAPAP6AXXZQAP6AXXZ@Z 0049ee40 f i LIBCMTD:utility.obj
 0001:0009de80       ?__crt_rotate_pointer_value@@YAIIH@Z 0049ee80 f i LIBCMTD:utility.obj
 0001:0009de90       ?configure_argv@__scrt_narrow_argv_policy@@SAHXZ 0049ee90 f i LIBCMTD:utility.obj
 0001:0009dff0       _NtCurrentTeb              0049eff0 f i LIBCMTD:utility.obj
 0001:0009e000       ___scrt_acquire_startup_lock 0049f000 f   LIBCMTD:utility.obj
 0001:0009e060       ___scrt_dllmain_after_initialize_c 0049f060 f   LIBCMTD:utility.obj
 0001:0009e0a0       ___scrt_dllmain_before_initialize_c 0049f0a0 f   LIBCMTD:utility.obj
 0001:0009e0d0       ___scrt_dllmain_crt_thread_attach 0049f0d0 f   LIBCMTD:utility.obj
 0001:0009e110       ___scrt_dllmain_crt_thread_detach 0049f110 f   LIBCMTD:utility.obj
 0001:0009e130       ___scrt_dllmain_exception_filter 0049f130 f   LIBCMTD:utility.obj
 0001:0009e190       ___scrt_dllmain_uninitialize_c 0049f190 f   LIBCMTD:utility.obj
 0001:0009e1d0       ___scrt_dllmain_uninitialize_critical 0049f1d0 f   LIBCMTD:utility.obj
 0001:0009e1f0       ___scrt_initialize_crt     0049f1f0 f   LIBCMTD:utility.obj
 0001:0009e250       ___scrt_initialize_onexit_tables 0049f250 f   LIBCMTD:utility.obj
 0001:0009e370       ___scrt_is_nonwritable_in_current_image 0049f370 f   LIBCMTD:utility.obj
 0001:0009e4f0       ___scrt_release_startup_lock 0049f4f0 f   LIBCMTD:utility.obj
 0001:0009e520       ___scrt_uninitialize_crt   0049f520 f   LIBCMTD:utility.obj
 0001:0009e570       __onexit                   0049f570 f   LIBCMTD:utility.obj
 0001:0009e600       _at_quick_exit             0049f600 f   LIBCMTD:utility.obj
 0001:0009e660       _atexit                    0049f660 f   LIBCMTD:utility.obj
 0001:0009e6a0       ___raise_securityfailure   0049f6a0 f   LIBCMTD:gs_report.obj
 0001:0009e6e0       ___report_gsfailure        0049f6e0 f   LIBCMTD:gs_report.obj
 0001:0009e830       ___report_rangecheckfailure 0049f830 f   LIBCMTD:gs_report.obj
 0001:0009e840       ___report_securityfailure  0049f840 f   LIBCMTD:gs_report.obj
 0001:0009e950       ___report_securityfailureEx 0049f950 f   LIBCMTD:gs_report.obj
 0001:0009eb00       ??$__crt_fast_decode_pointer@P6GHPAU_RTL_CONDITION_VARIABLE@@PAU_RTL_CRITICAL_SECTION@@K@Z@@YAP6GHPAU_RTL_CONDITION_VARIABLE@@PAU_RTL_CRITICAL_SECTION@@K@ZQ6GH01K@Z@Z 0049fb00 f i LIBCMTD:thread_safe_statics.obj
 0001:0009eb30       ??$__crt_fast_decode_pointer@P6GXPAU_RTL_CONDITION_VARIABLE@@@Z@@YAP6GXPAU_RTL_CONDITION_VARIABLE@@@ZQ6GX0@Z@Z 0049fb30 f i LIBCMTD:thread_safe_statics.obj
 0001:0009eb60       ??$__crt_fast_encode_pointer@P6GHPAU_RTL_CONDITION_VARIABLE@@PAU_RTL_CRITICAL_SECTION@@K@Z@@YAP6GHPAU_RTL_CONDITION_VARIABLE@@PAU_RTL_CRITICAL_SECTION@@K@ZQ6GH01K@Z@Z 0049fb60 f i LIBCMTD:thread_safe_statics.obj
 0001:0009eba0       ??$__crt_fast_encode_pointer@P6GXPAU_RTL_CONDITION_VARIABLE@@@Z@@YAP6GXPAU_RTL_CONDITION_VARIABLE@@@ZQ6GX0@Z@Z 0049fba0 f i LIBCMTD:thread_safe_statics.obj
 0001:0009ed50       __Init_thread_abort        0049fd50 f   LIBCMTD:thread_safe_statics.obj
 0001:0009ed80       __Init_thread_footer       0049fd80 f   LIBCMTD:thread_safe_statics.obj
 0001:0009ede0       __Init_thread_header       0049fde0 f   LIBCMTD:thread_safe_statics.obj
 0001:0009ee70       __Init_thread_lock         0049fe70 f   LIBCMTD:thread_safe_statics.obj
 0001:0009ee90       __Init_thread_notify       0049fe90 f   LIBCMTD:thread_safe_statics.obj
 0001:0009ef00       __Init_thread_unlock       0049ff00 f   LIBCMTD:thread_safe_statics.obj
 0001:0009ef20       __Init_thread_wait         0049ff20 f   LIBCMTD:thread_safe_statics.obj
 0001:0009f010       @__security_check_cookie@4 004a0010 f   LIBCMTD:_secchk_.obj
 0001:0009f030       ??1type_info@@UAE@XZ       004a0030 f   LIBCMTD:std_type_info_static.obj
 0001:0009f050       ??_Etype_info@@UAEPAXI@Z   004a0050 f i LIBCMTD:std_type_info_static.obj
 0001:0009f050       ??_Gtype_info@@UAEPAXI@Z   004a0050 f i LIBCMTD:std_type_info_static.obj
 0001:0009f090       ??2@YAPAXI@Z               004a0090 f   LIBCMTD:new_scalar.obj
 0001:0009f0f0       ??_V@YAXPAX@Z              004a00f0 f   LIBCMTD:delete_array.obj
 0001:0009f110       ??_U@YAPAXIABUnothrow_t@std@@@Z 004a0110 f   LIBCMTD:new_array_nothrow.obj
 0001:0009f130       __ftoui3                   004a0130 f   LIBCMTD:_ftol3_.obj
 0001:0009f13f       __ftoul3                   004a013f f   LIBCMTD:_ftol3_.obj
 0001:0009f14e       __ftol3                    004a014e f   LIBCMTD:_ftol3_.obj
 0001:0009f15b       __ftol3_NaN                004a015b f   LIBCMTD:_ftol3_.obj
 0001:0009f173       __ftol3_work               004a0173 f   LIBCMTD:_ftol3_.obj
 0001:0009f1f9       __ftol3_common             004a01f9 f   LIBCMTD:_ftol3_.obj
 0001:0009f2bb       __ftol3_arg_error          004a02bb f   LIBCMTD:_ftol3_.obj
 0001:0009f2cd       __ftol3_except             004a02cd f   LIBCMTD:_ftol3_.obj
 0001:0009f311       __dtoui3                   004a0311 f   LIBCMTD:_ftol3_.obj
 0001:0009f320       __dtoul3                   004a0320 f   LIBCMTD:_ftol3_.obj
 0001:0009f32f       __dtol3                    004a032f f   LIBCMTD:_ftol3_.obj
 0001:0009f33c       __dtol3_NaN                004a033c f   LIBCMTD:_ftol3_.obj
 0001:0009f359       __dtol3_work               004a0359 f   LIBCMTD:_ftol3_.obj
 0001:0009f440       __ultod3                   004a0440 f   LIBCMTD:_ftol3_.obj
 0001:0009f480       __ltod3                    004a0480 f   LIBCMTD:_ftol3_.obj
 0001:0009f590       ??_U@YAPAXI@Z              004a0590 f   LIBCMTD:new_array.obj
 0001:0009f5b0       __chkstk                   004a05b0 f   LIBCMTD:chkstk.obj
 0001:0009f5b0       __alloca_probe             004a05b0 f   LIBCMTD:chkstk.obj
 0001:0009f9c0       ?get_app_type@__scrt_main_policy@@SA?AW4_crt_app_type@@XZ 004a09c0 f i LIBCMTD:exe_main.obj
 0001:0009fa10       _mainCRTStartup            004a0a10 f   LIBCMTD:exe_main.obj
 0001:0009fa20       @_guard_check_icall@4      004a0a20 f i LIBCMTD:checkcfg.obj
 0001:0009fa40       ___isa_available_init      004a0a40 f   LIBCMTD:_cpu_disp_.obj
 0001:0009fdd0       __get_startup_argv_mode    004a0dd0 f   LIBCMTD:argv_mode.obj
 0001:0009fde0       ___scrt_is_ucrt_dll_in_use 004a0de0 f   LIBCMTD:ucrt_detection.obj
 0001:0009fe10       ___scrt_fastfail           004a0e10 f   LIBCMTD:utility_desktop.obj
 0001:0009ffa0       ___scrt_get_show_window_mode 004a0fa0 f   LIBCMTD:utility_desktop.obj
 0001:0009fff0       ___scrt_initialize_winrt   004a0ff0 f   LIBCMTD:utility_desktop.obj
 0001:000a0000       ___scrt_is_managed_app     004a1000 f   LIBCMTD:utility_desktop.obj
 0001:000a00b0       ___scrt_set_unhandled_exception_filter 004a10b0 f   LIBCMTD:utility_desktop.obj
 0001:000a00d0       ___scrt_unhandled_exception_filter@4 004a10d0 f   LIBCMTD:utility_desktop.obj
 0001:000a0150       __crt_debugger_hook        004a1150 f   LIBCMTD:utility_desktop.obj
 0001:000a0170       ??0bad_alloc@std@@AAE@QBD@Z 004a1170 f i LIBCMTD:throw_bad_alloc.obj
 0001:000a01a0       ??0bad_alloc@std@@QAE@ABV01@@Z 004a11a0 f i LIBCMTD:throw_bad_alloc.obj
 0001:000a01d0       ??0bad_alloc@std@@QAE@XZ   004a11d0 f i LIBCMTD:throw_bad_alloc.obj
 0001:000a0200       ??0bad_array_new_length@std@@QAE@ABV01@@Z 004a1200 f i LIBCMTD:throw_bad_alloc.obj
 0001:000a0230       ??0bad_array_new_length@std@@QAE@XZ 004a1230 f i LIBCMTD:throw_bad_alloc.obj
 0001:000a0260       ??0exception@std@@QAE@ABV01@@Z 004a1260 f i LIBCMTD:throw_bad_alloc.obj
 0001:000a02b0       ??0exception@std@@QAE@QBDH@Z 004a12b0 f i LIBCMTD:throw_bad_alloc.obj
 0001:000a02f0       ??1bad_alloc@std@@UAE@XZ   004a12f0 f i LIBCMTD:throw_bad_alloc.obj
 0001:000a0310       ??1bad_array_new_length@std@@UAE@XZ 004a1310 f i LIBCMTD:throw_bad_alloc.obj
 0001:000a0330       ??1exception@std@@UAE@XZ   004a1330 f i LIBCMTD:throw_bad_alloc.obj
 0001:000a0360       ??_Gbad_alloc@std@@UAEPAXI@Z 004a1360 f i LIBCMTD:throw_bad_alloc.obj
 0001:000a0360       ??_Ebad_alloc@std@@UAEPAXI@Z 004a1360 f i LIBCMTD:throw_bad_alloc.obj
 0001:000a03a0       ??_Gbad_array_new_length@std@@UAEPAXI@Z 004a13a0 f i LIBCMTD:throw_bad_alloc.obj
 0001:000a03a0       ??_Ebad_array_new_length@std@@UAEPAXI@Z 004a13a0 f i LIBCMTD:throw_bad_alloc.obj
 0001:000a03e0       ??_Gexception@std@@UAEPAXI@Z 004a13e0 f i LIBCMTD:throw_bad_alloc.obj
 0001:000a03e0       ??_Eexception@std@@UAEPAXI@Z 004a13e0 f i LIBCMTD:throw_bad_alloc.obj
 0001:000a0420       ?__scrt_throw_std_bad_alloc@@YAXXZ 004a1420 f   LIBCMTD:throw_bad_alloc.obj
 0001:000a0450       ?__scrt_throw_std_bad_array_new_length@@YAXXZ 004a1450 f   LIBCMTD:throw_bad_alloc.obj
 0001:000a0480       ?what@exception@std@@UBEPBDXZ 004a1480 f i LIBCMTD:throw_bad_alloc.obj
 0001:000a04c0       ??2@YAPAXIABUnothrow_t@std@@@Z 004a14c0 f   LIBCMTD:new_scalar_nothrow.obj
 0001:000a0560       ___security_init_cookie    004a1560 f   LIBCMTD:gs_support.obj
 0001:000a0680       __matherr                  004a1680 f   LIBCMTD:matherr.obj
 0001:000a0690       __get_startup_commit_mode  004a1690 f   LIBCMTD:commit_mode.obj
 0001:000a06a0       __get_startup_file_mode    004a16a0 f   LIBCMTD:file_mode.obj
 0001:000a06b0       __get_startup_new_mode     004a16b0 f   LIBCMTD:new_mode.obj
 0001:000a06c0       __get_startup_thread_locale_mode 004a16c0 f   LIBCMTD:thread_locale.obj
 0001:000a06d0       ?__scrt_initialize_type_info@@YAXXZ 004a16d0 f   LIBCMTD:tncleanup.obj
 0001:000a06f0       ?__scrt_uninitialize_type_info@@YAXXZ 004a16f0 f   LIBCMTD:tncleanup.obj
 0001:000a0710       __should_initialize_environment 004a1710 f   LIBCMTD:env_mode.obj
 0001:000a0720       __initialize_default_precision 004a1720 f   LIBCMTD:default_precision.obj
 0001:000a0750       __initialize_invalid_parameter_handler 004a1750 f   LIBCMTD:invalid_parameter_handler.obj
 0001:000a0760       __initialize_denormal_control 004a1760 f   LIBCMTD:denormal_control.obj
 0001:000a0770       ___scrt_initialize_default_local_stdio_options 004a1770 f   LIBCMTD:default_local_stdio_options.obj
 0001:000a07c0       ___scrt_is_user_matherr_present 004a17c0 f   LIBCMTD:matherr_detection.obj
 0001:000a07f0       ___scrt_get_dyn_tls_init_callback 004a17f0 f   LIBCMTD:dyn_tls_init.obj
 0001:000a0800       ___scrt_get_dyn_tls_dtor_callback 004a1800 f   LIBCMTD:dyn_tls_dtor.obj
 0001:000a0810       __RTC_Initialize           004a1810 f   LIBCMTD:_initsect_.obj
 0001:000a0850       __RTC_Terminate            004a1850 f   LIBCMTD:_initsect_.obj
 0001:000a0890       @_guard_check_icall_nop@4  004a1890 f i LIBCMTD:guard_support.obj
 0001:000a08a0       __guard_icall_checks_enforced 004a18a0 f i LIBCMTD:guard_support.obj
 0001:000a08d0       _memcpy                    004a18d0 f   libvcruntimed:memcpy.obj
 0001:000a0fb0       _memmove                   004a1fb0 f   libvcruntimed:memmove.obj
 0001:000a1690       _memset                    004a2690 f   libvcruntimed:memset.obj
 0001:000a1840       __CxxThrowException@8      004a2840 f   libvcruntimed:throw.obj
 0001:000a1920       ?_CallCatchBlock2@@YAPAXPAUEHRegistrationNode@@PBU_s_FuncInfo@@PAXHK@Z 004a2920 f   libvcruntimed:trnsctrl.obj
 0001:000a19b0       ?_CallSETranslator@@YAHPAUEHExceptionRecord@@PAUEHRegistrationNode@@PAX2PBU_s_FuncInfo@@H1@Z 004a29b0 f   libvcruntimed:trnsctrl.obj
 0001:000a1ae0       ?_GetRangeOfTrysToCheck@@YAPBU_s_TryBlockMapEntry@@PBU_s_FuncInfo@@HHPAI1@Z 004a2ae0 f   libvcruntimed:trnsctrl.obj
 0001:000a1be0       ?_JumpToContinuation@@YGXPAXPAUEHRegistrationNode@@@Z 004a2be0 f   libvcruntimed:trnsctrl.obj
 0001:000a1c20       ?_UnwindNestedFrames@@YGXPAUEHRegistrationNode@@PAUEHExceptionRecord@@@Z 004a2c20 f   libvcruntimed:trnsctrl.obj
 0001:000a1c90       __CatchGuardHandler        004a2c90 f   libvcruntimed:trnsctrl.obj
 0001:000a1cf0       __CreateFrameInfo          004a2cf0 f   libvcruntimed:trnsctrl.obj
 0001:000a1d30       __FindAndUnlinkFrame       004a2d30 f   libvcruntimed:trnsctrl.obj
 0001:000a1dc0       __IsExceptionObjectToBeDestroyed 004a2dc0 f   libvcruntimed:trnsctrl.obj
 0001:000a1e10       __TranslatorGuardHandler   004a2e10 f   libvcruntimed:trnsctrl.obj
 0001:000a1ef0       ___CxxFrameHandler         004a2ef0 f   libvcruntimed:trnsctrl.obj
 0001:000a1f40       ___CxxFrameHandler2        004a2f40 f   libvcruntimed:trnsctrl.obj
 0001:000a1f90       ___CxxFrameHandler3        004a2f90 f   libvcruntimed:trnsctrl.obj
 0001:000a1fe0       ___CxxLongjmpUnwind@4      004a2fe0 f   libvcruntimed:trnsctrl.obj
 0001:000a2030       _wcschr                    004a3030 f   libvcruntimed:wcschr.obj
 0001:000a21f0       ??$__crt_fast_decode_pointer@P6AXXZ@@YAP6AXXZQ6AXXZ@Z 004a31f0 f i libvcruntimed:purevirt.obj
 0001:000a2220       ??$__crt_fast_encode_pointer@P6AXXZ@@YAP6AXXZQ6AXXZ@Z 004a3220 f i libvcruntimed:purevirt.obj
 0001:000a2260       ??$__crt_interlocked_exchange_pointer@$$A6AXXZP6AXXZ@@YAP6AXXZPDS6AXXZQ6AXXZ@Z 004a3260 f i libvcruntimed:purevirt.obj
 0001:000a2270       ??$__crt_interlocked_read_pointer@$$A6AXXZ@@YAP6AXXZPDS6AXXZ@Z 004a3270 f i libvcruntimed:purevirt.obj
 0001:000a2290       ?__crt_interlocked_read_32@@YAHPDH@Z 004a3290 f i libvcruntimed:purevirt.obj
 0001:000a22b0       __get_purecall_handler     004a32b0 f   libvcruntimed:purevirt.obj
 0001:000a22e0       __purecall                 004a32e0 f   libvcruntimed:purevirt.obj
 0001:000a2320       __set_purecall_handler     004a3320 f   libvcruntimed:purevirt.obj
 0001:000a2570       _memcmp                    004a3570 f   libvcruntimed:_memcmp_.obj
 0001:000a3070       _strchr                    004a4070 f   libvcruntimed:strchr.obj
 0001:000a30de       ___from_strstr_to_strchr   004a40de     libvcruntimed:strchr.obj
 0001:000a31f0       _wcsstr                    004a41f0 f   libvcruntimed:wcsstr.obj
 0001:000a3870       __except_handler4          004a4870 f   libvcruntimed:_chandler4_.obj
 0001:000a3ac0       ___vcrt_initialize         004a4ac0 f   libvcruntimed:initialization.obj
 0001:000a3b10       ___vcrt_thread_attach      004a4b10 f   libvcruntimed:initialization.obj
 0001:000a3b30       ___vcrt_thread_detach      004a4b30 f   libvcruntimed:initialization.obj
 0001:000a3b50       ___vcrt_uninitialize       004a4b50 f   libvcruntimed:initialization.obj
 0001:000a3b80       ___vcrt_uninitialize_critical 004a4b80 f   libvcruntimed:initialization.obj
 0001:000a3ba0       ??$?BX@__crt_fast_encoded_nullptr_t@@QBEPAXXZ 004a4ba0 f i libvcruntimed:winapi_downlevel.obj
 0001:000a3bc0       ??$__crt_fast_decode_pointer@PAX@@YAPAXQAX@Z 004a4bc0 f i libvcruntimed:winapi_downlevel.obj
 0001:000a3bf0       ??$__crt_fast_encode_pointer@PAX@@YAPAXQAX@Z 004a4bf0 f i libvcruntimed:winapi_downlevel.obj
 0001:000a3c30       ??$__crt_interlocked_exchange_pointer@UHINSTANCE__@@PAU1@@@YAPAUHINSTANCE__@@PDSAU0@QAU0@@Z 004a4c30 f i libvcruntimed:winapi_downlevel.obj
 0001:000a3c40       ??$__crt_interlocked_exchange_pointer@UHINSTANCE__@@PAX@@YAPAUHINSTANCE__@@PDSAU0@QAX@Z 004a4c40 f i libvcruntimed:winapi_downlevel.obj
 0001:000a3c50       ??$__crt_interlocked_exchange_pointer@XPAX@@YAPAXPDSAXQAX@Z 004a4c50 f i libvcruntimed:winapi_downlevel.obj
 0001:000a3c60       ??$__crt_interlocked_read_pointer@UHINSTANCE__@@@@YAPAUHINSTANCE__@@PDSAU0@@Z 004a4c60 f i libvcruntimed:winapi_downlevel.obj
 0001:000a3c80       ??$__crt_interlocked_read_pointer@X@@YAPAXPDSAX@Z 004a4c80 f i libvcruntimed:winapi_downlevel.obj
 0001:000a3ca0       ?__crt_fast_encode_pointer@@YA?AU__crt_fast_encoded_nullptr_t@@$$T@Z 004a4ca0 f i libvcruntimed:winapi_downlevel.obj
 0001:000a41a0       ___vcrt_FlsAlloc           004a51a0 f   libvcruntimed:winapi_downlevel.obj
 0001:000a41f0       ___vcrt_FlsFree            004a51f0 f   libvcruntimed:winapi_downlevel.obj
 0001:000a4240       ___vcrt_FlsGetValue        004a5240 f   libvcruntimed:winapi_downlevel.obj
 0001:000a4290       ___vcrt_FlsSetValue        004a5290 f   libvcruntimed:winapi_downlevel.obj
 0001:000a42f0       ___vcrt_InitializeCriticalSectionEx 004a52f0 f   libvcruntimed:winapi_downlevel.obj
 0001:000a4350       ___vcrt_initialize_winapi_thunks 004a5350 f   libvcruntimed:winapi_downlevel.obj
 0001:000a43d0       ___vcrt_uninitialize_winapi_thunks 004a53d0 f   libvcruntimed:winapi_downlevel.obj
 0001:000a4460       ??$?RD@__crt_public_free_policy@@QBEXQBD@Z 004a5460 f i libvcruntimed:std_exception.obj
 0001:000a4480       ??0?$__crt_unique_heap_ptr@DU__crt_public_free_policy@@@@QAE@QAD@Z 004a5480 f i libvcruntimed:std_exception.obj
 0001:000a44a0       ??1?$__crt_unique_heap_ptr@DU__crt_public_free_policy@@@@QAE@XZ 004a54a0 f i libvcruntimed:std_exception.obj
 0001:000a44c0       ??B?$__crt_unique_heap_ptr@DU__crt_public_free_policy@@@@QBE_NXZ 004a54c0 f i libvcruntimed:std_exception.obj
 0001:000a44e0       ?detach@?$__crt_unique_heap_ptr@DU__crt_public_free_policy@@@@QAEPADXZ 004a54e0 f i libvcruntimed:std_exception.obj
 0001:000a4510       ?get@?$__crt_unique_heap_ptr@DU__crt_public_free_policy@@@@QBEPADXZ 004a5510 f i libvcruntimed:std_exception.obj
 0001:000a4530       ?is_valid@?$__crt_unique_heap_ptr@DU__crt_public_free_policy@@@@QBE_NXZ 004a5530 f i libvcruntimed:std_exception.obj
 0001:000a4570       ?release@?$__crt_unique_heap_ptr@DU__crt_public_free_policy@@@@QAEXXZ 004a5570 f i libvcruntimed:std_exception.obj
 0001:000a45a0       ___std_exception_copy      004a55a0 f   libvcruntimed:std_exception.obj
 0001:000a46c0       ___std_exception_destroy   004a56c0 f   libvcruntimed:std_exception.obj
 0001:000a4740       ??$?RD@__crt_internal_free_policy@@QBEXQBD@Z 004a5740 f i libvcruntimed:std_type_info.obj
 0001:000a4770       ??$?RX@__crt_internal_free_policy@@QBEXQBX@Z 004a5770 f i libvcruntimed:std_type_info.obj
 0001:000a47a0       ??$__crt_interlocked_compare_exchange_pointer@$$CBDPAD$$T@@YAPBDPDSBDQAD$$T@Z 004a57a0 f i libvcruntimed:std_type_info.obj
 0001:000a47c0       ??$__crt_interlocked_read_pointer@$$CBD@@YAPBDPDSBD@Z 004a57c0 f i libvcruntimed:std_type_info.obj
 0001:000a47e0       ??0?$__crt_unique_heap_ptr@DU__crt_internal_free_policy@@@@QAE@QAD@Z 004a57e0 f i libvcruntimed:std_type_info.obj
 0001:000a4800       ??0?$__crt_unique_heap_ptr@XU__crt_internal_free_policy@@@@QAE@QAX@Z 004a5800 f i libvcruntimed:std_type_info.obj
 0001:000a4820       ??1?$__crt_unique_heap_ptr@DU__crt_internal_free_policy@@@@QAE@XZ 004a5820 f i libvcruntimed:std_type_info.obj
 0001:000a4840       ??1?$__crt_unique_heap_ptr@XU__crt_internal_free_policy@@@@QAE@XZ 004a5840 f i libvcruntimed:std_type_info.obj
 0001:000a48a0       ??B?$__crt_unique_heap_ptr@DU__crt_internal_free_policy@@@@QBE_NXZ 004a58a0 f i libvcruntimed:std_type_info.obj
 0001:000a48c0       ??B?$__crt_unique_heap_ptr@XU__crt_internal_free_policy@@@@QBE_NXZ 004a58c0 f i libvcruntimed:std_type_info.obj
 0001:000a4940       ?detach@?$__crt_unique_heap_ptr@XU__crt_internal_free_policy@@@@QAEPAXXZ 004a5940 f i libvcruntimed:std_type_info.obj
 0001:000a4970       ?get@?$__crt_unique_heap_ptr@DU__crt_internal_free_policy@@@@QBEPADXZ 004a5970 f i libvcruntimed:std_type_info.obj
 0001:000a4990       ?get@?$__crt_unique_heap_ptr@XU__crt_internal_free_policy@@@@QBEPAXXZ 004a5990 f i libvcruntimed:std_type_info.obj
 0001:000a49b0       ?is_valid@?$__crt_unique_heap_ptr@DU__crt_internal_free_policy@@@@QBE_NXZ 004a59b0 f i libvcruntimed:std_type_info.obj
 0001:000a49f0       ?is_valid@?$__crt_unique_heap_ptr@XU__crt_internal_free_policy@@@@QBE_NXZ 004a59f0 f i libvcruntimed:std_type_info.obj
 0001:000a4a30       ?release@?$__crt_unique_heap_ptr@DU__crt_internal_free_policy@@@@QAEXXZ 004a5a30 f i libvcruntimed:std_type_info.obj
 0001:000a4a60       ?release@?$__crt_unique_heap_ptr@XU__crt_internal_free_policy@@@@QAEXXZ 004a5a60 f i libvcruntimed:std_type_info.obj
 0001:000a4a90       ___std_type_info_compare   004a5a90 f   libvcruntimed:std_type_info.obj
 0001:000a4ac0       ___std_type_info_destroy_list 004a5ac0 f   libvcruntimed:std_type_info.obj
 0001:000a4b10       ___std_type_info_hash      004a5b10 f   libvcruntimed:std_type_info.obj
 0001:000a4b80       ___std_type_info_name      004a5b80 f   libvcruntimed:std_type_info.obj
 0001:000a4dd0       ??$?RU__vcrt_ptd@@@__crt_internal_free_policy@@QBEXQBU__vcrt_ptd@@@Z 004a5dd0 f i libvcruntimed:per_thread_data.obj
 0001:000a4e00       ??0?$__crt_unique_heap_ptr@U__vcrt_ptd@@U__crt_internal_free_policy@@@@QAE@QAU__vcrt_ptd@@@Z 004a5e00 f i libvcruntimed:per_thread_data.obj
 0001:000a4e40       ??1?$__crt_unique_heap_ptr@U__vcrt_ptd@@U__crt_internal_free_policy@@@@QAE@XZ 004a5e40 f i libvcruntimed:per_thread_data.obj
 0001:000a4e80       ??B?$__crt_unique_heap_ptr@U__vcrt_ptd@@U__crt_internal_free_policy@@@@QBE_NXZ 004a5e80 f i libvcruntimed:per_thread_data.obj
 0001:000a4ea0       ?detach@?$__crt_unique_heap_ptr@U__vcrt_ptd@@U__crt_internal_free_policy@@@@QAEPAU__vcrt_ptd@@XZ 004a5ea0 f i libvcruntimed:per_thread_data.obj
 0001:000a4ed0       ?get@?$__crt_unique_heap_ptr@U__vcrt_ptd@@U__crt_internal_free_policy@@@@QBEPAU__vcrt_ptd@@XZ 004a5ed0 f i libvcruntimed:per_thread_data.obj
 0001:000a4ef0       ?is_valid@?$__crt_unique_heap_ptr@U__vcrt_ptd@@U__crt_internal_free_policy@@@@QBE_NXZ 004a5ef0 f i libvcruntimed:per_thread_data.obj
 0001:000a4f30       ?release@?$__crt_unique_heap_ptr@U__vcrt_ptd@@U__crt_internal_free_policy@@@@QAEXXZ 004a5f30 f i libvcruntimed:per_thread_data.obj
 0001:000a4f90       ___vcrt_freefls@4          004a5f90 f   libvcruntimed:per_thread_data.obj
 0001:000a4fc0       ___vcrt_freeptd            004a5fc0 f   libvcruntimed:per_thread_data.obj
 0001:000a5030       ___vcrt_getptd             004a6030 f   libvcruntimed:per_thread_data.obj
 0001:000a5060       ___vcrt_getptd_noexit      004a6060 f   libvcruntimed:per_thread_data.obj
 0001:000a5210       ___vcrt_getptd_noinit      004a6210 f   libvcruntimed:per_thread_data.obj
 0001:000a5280       ___vcrt_initialize_ptd     004a6280 f   libvcruntimed:per_thread_data.obj
 0001:000a52e0       ___vcrt_uninitialize_ptd   004a62e0 f   libvcruntimed:per_thread_data.obj
 0001:000a5320       __CallSettingFrame@12      004a6320 f   libvcruntimed:lowhelpr.obj
 0001:000a5347       __NLG_Return               004a6347     libvcruntimed:lowhelpr.obj
 0001:000a5380       ___DestructExceptionObject 004a6380 f   libvcruntimed:frame.obj
 0001:000a5500       ??0bad_exception@std@@QAE@ABV01@@Z 004a6500 f i libvcruntimed:frame.obj
 0001:000a5530       ??0bad_exception@std@@QAE@XZ 004a6530 f i libvcruntimed:frame.obj
 0001:000a5560       ??1bad_exception@std@@UAE@XZ 004a6560 f i libvcruntimed:frame.obj
 0001:000a5580       ??8type_info@@QBE_NABV0@@Z 004a6580 f i libvcruntimed:frame.obj
 0001:000a55d0       ??_Ebad_exception@std@@UAEPAXI@Z 004a65d0 f i libvcruntimed:frame.obj
 0001:000a55d0       ??_Gbad_exception@std@@UAEPAXI@Z 004a65d0 f i libvcruntimed:frame.obj
 0001:000a64a0       ?_CallMemberFunction0@@YGXQAX0@Z 004a74a0 f i libvcruntimed:frame.obj
 0001:000a64b0       ?_CallMemberFunction1@@YGXQAX00@Z 004a74b0 f i libvcruntimed:frame.obj
 0001:000a64c0       ?_CallMemberFunction2@@YGXQAX00H@Z 004a74c0 f i libvcruntimed:frame.obj
 0001:000a64d0       ?_ValidateExecute@@YA_NP6GHXZ@Z 004a74d0 f i libvcruntimed:frame.obj
 0001:000a64f0       ?_ValidateRead@@YA_NPBXI@Z 004a74f0 f i libvcruntimed:frame.obj
 0001:000a6510       ?_ValidateWrite@@YA_NPAXI@Z 004a7510 f i libvcruntimed:frame.obj
 0001:000a6530       ?raw_name@type_info@@QBEPBDXZ 004a7530 f i libvcruntimed:frame.obj
 0001:000a6550       __SetWinRTOutOfMemoryExceptionCallback 004a7550 f   libvcruntimed:frame.obj
 0001:000a6560       ___AdjustPointer           004a7560 f   libvcruntimed:frame.obj
 0001:000a65c0       ___BuildCatchObject        004a75c0 f   libvcruntimed:frame.obj
 0001:000a6710       ___BuildCatchObjectHelper  004a7710 f   libvcruntimed:frame.obj
 0001:000a6b00       ___CxxDetectRethrow        004a7b00 f   libvcruntimed:frame.obj
 0001:000a6ba0       ___CxxExceptionFilter      004a7ba0 f   libvcruntimed:frame.obj
 0001:000a6e10       ___CxxQueryExceptionSize   004a7e10 f   libvcruntimed:frame.obj
 0001:000a6e20       ___CxxRegisterExceptionObject 004a7e20 f   libvcruntimed:frame.obj
 0001:000a6f90       ___CxxUnregisterExceptionObject 004a7f90 f   libvcruntimed:frame.obj
 0001:000a7140       ___FrameUnwindFilter       004a8140 f   libvcruntimed:frame.obj
 0001:000a71d0       ___FrameUnwindToState      004a81d0 f   libvcruntimed:frame.obj
 0001:000a73b0       ___GetPlatformExceptionInfo 004a83b0 f   libvcruntimed:frame.obj
 0001:000a7450       ___InternalCxxFrameHandler 004a8450 f   libvcruntimed:frame.obj
 0001:000a7660       ___TypeMatch               004a8660 f   libvcruntimed:frame.obj
 0001:000a7770       ___current_exception       004a8770 f   libvcruntimed:frame.obj
 0001:000a7780       ___current_exception_context 004a8780 f   libvcruntimed:frame.obj
 0001:000a7790       ___processing_throw        004a8790 f   libvcruntimed:frame.obj
 0001:000a77a0       ___std_terminate           004a87a0 f   libvcruntimed:frame.obj
 0001:000a77b0       ___uncaught_exception      004a87b0 f   libvcruntimed:frame.obj
 0001:000a77e0       ___uncaught_exceptions     004a87e0 f   libvcruntimed:frame.obj
 0001:000a7820       __is_exception_typeof      004a8820 f   libvcruntimed:frame.obj
 0001:000a7930       _ReadNoFence               004a8930 f i libvcruntimed:jbcxrval.obj
 0001:000a7950       _ReadPointerNoFence        004a8950 f i libvcruntimed:jbcxrval.obj
 0001:000a7970       ___except_validate_context_record 004a8970 f   libvcruntimed:jbcxrval.obj
 0001:000a79d0       ___except_validate_jump_buffer 004a89d0 f   libvcruntimed:jbcxrval.obj
 0001:000a7a30       ??$?B$$A6AXXZ@__crt_fast_encoded_nullptr_t@@QBEP6AXXZXZ 004a8a30 f i libvcruntimed:purevirt_data.obj
 0001:000a7a50       ___vcrt_initialize_pure_virtual_call_handler 004a8a50 f   libvcruntimed:purevirt_data.obj
 0001:000a7a80       __local_unwind4            004a8a80 f   libvcruntimed:_exsup4_.obj
 0001:000a7b56       __seh_longjmp_unwind4@4    004a8b56 f   libvcruntimed:_exsup4_.obj
 0001:000a7b7e       @_EH4_CallFilterFunc@8     004a8b7e f   libvcruntimed:_exsup4_.obj
 0001:000a7b95       @_EH4_TransferToHandler@8  004a8b95 f   libvcruntimed:_exsup4_.obj
 0001:000a7bae       @_EH4_GlobalUnwind2@8      004a8bae f   libvcruntimed:_exsup4_.obj
 0001:000a7bc7       @_EH4_LocalUnwind@16       004a8bc7 f   libvcruntimed:_exsup4_.obj
 0001:000a7c40       ___vcrt_initialize_locks   004a8c40 f   libvcruntimed:locks.obj
 0001:000a7cb0       ___vcrt_lock               004a8cb0 f   libvcruntimed:locks.obj
 0001:000a7cd0       ___vcrt_uninitialize_locks 004a8cd0 f   libvcruntimed:locks.obj
 0001:000a7d30       ___vcrt_unlock             004a8d30 f   libvcruntimed:locks.obj
 0001:000a7d50       ??0Block@_HeapManager@@QAE@XZ 004a8d50 f i libvcruntimed:undname.obj
 0001:000a7d70       ??0DName@@QAE@AAPBDD@Z     004a8d70 f   libvcruntimed:undname.obj
 0001:000a8020       ??0DName@@QAE@ABV0@@Z      004a9020 f i libvcruntimed:undname.obj
 0001:000a8050       ??0DName@@QAE@D@Z          004a9050 f   libvcruntimed:undname.obj
 0001:000a80a0       ??0DName@@QAE@PAV0@@Z      004a90a0 f   libvcruntimed:undname.obj
 0001:000a8180       ??0DName@@QAE@PBD@Z        004a9180 f   libvcruntimed:undname.obj
 0001:000a81f0       ??0DName@@QAE@W4DNameStatus@@@Z 004a91f0 f   libvcruntimed:undname.obj
 0001:000a82b0       ??0DName@@QAE@XZ           004a92b0 f i libvcruntimed:undname.obj
 0001:000a82e0       ??0DName@@QAE@_J@Z         004a92e0 f   libvcruntimed:undname.obj
 0001:000a8400       ??0DName@@QAE@_K@Z         004a9400 f   libvcruntimed:undname.obj
 0001:000a84d0       ??0DNameNode@@IAE@XZ       004a94d0 f   libvcruntimed:undname.obj
 0001:000a84f0       ??0DNameStatusNode@@AAE@W4DNameStatus@@@Z 004a94f0 f   libvcruntimed:undname.obj
 0001:000a8560       ??0Replicator@@QAE@XZ      004a9560 f i libvcruntimed:undname.obj
 0001:000a8580       ??0UnDecorator@@QAE@PADPBDHP6APADJ@ZK@Z 004a9580 f i libvcruntimed:undname.obj
 0001:000a8640       ??0charNode@@QAE@D@Z       004a9640 f   libvcruntimed:undname.obj
 0001:000a8680       ??0pDNameNode@@QAE@PAVDName@@@Z 004a9680 f   libvcruntimed:undname.obj
 0001:000a8700       ??0pairNode@@QAE@PAVDNameNode@@0@Z 004a9700 f   libvcruntimed:undname.obj
 0001:000a8750       ??0pcharNode@@QAE@PBDH@Z   004a9750 f   libvcruntimed:undname.obj
 0001:000a8810       ??2@YAPAXIAAV_HeapManager@@H@Z 004a9810 f i libvcruntimed:undname.obj
 0001:000a8830       ??4DName@@QAEAAV0@ABV0@@Z  004a9830 f   libvcruntimed:undname.obj
 0001:000a8860       ??4DName@@QAEAAV0@D@Z      004a9860 f i libvcruntimed:undname.obj
 0001:000a88b0       ??4DName@@QAEAAV0@PAV0@@Z  004a98b0 f   libvcruntimed:undname.obj
 0001:000a8970       ??4DName@@QAEAAV0@PBD@Z    004a9970 f   libvcruntimed:undname.obj
 0001:000a89c0       ??4DName@@QAEAAV0@W4DNameStatus@@@Z 004a99c0 f   libvcruntimed:undname.obj
 0001:000a8a60       ??AReplicator@@QBE?AVDName@@H@Z 004a9a60 f   libvcruntimed:undname.obj
 0001:000a8ae0       ??BUnDecorator@@QAEPADXZ   004a9ae0 f i libvcruntimed:undname.obj
 0001:000a8e30       ??H@YA?AVDName@@DABV0@@Z   004a9e30 f i libvcruntimed:undname.obj
 0001:000a8e70       ??H@YA?AVDName@@PBDABV0@@Z 004a9e70 f i libvcruntimed:undname.obj
 0001:000a8eb0       ??H@YA?AVDName@@W4DNameStatus@@ABV0@@Z 004a9eb0 f i libvcruntimed:undname.obj
 0001:000a8ef0       ??HDName@@QBE?AV0@ABV0@@Z  004a9ef0 f   libvcruntimed:undname.obj
 0001:000a8f40       ??HDName@@QBE?AV0@D@Z      004a9f40 f   libvcruntimed:undname.obj
 0001:000a8f90       ??HDName@@QBE?AV0@PAV0@@Z  004a9f90 f   libvcruntimed:undname.obj
 0001:000a8fe0       ??HDName@@QBE?AV0@PBD@Z    004a9fe0 f   libvcruntimed:undname.obj
 0001:000a9030       ??HDName@@QBE?AV0@W4DNameStatus@@@Z 004aa030 f   libvcruntimed:undname.obj
 0001:000a9080       ??YDName@@QAEAAV0@ABV0@@Z  004aa080 f   libvcruntimed:undname.obj
 0001:000a9100       ??YDName@@QAEAAV0@D@Z      004aa100 f   libvcruntimed:undname.obj
 0001:000a91a0       ??YDName@@QAEAAV0@PAV0@@Z  004aa1a0 f   libvcruntimed:undname.obj
 0001:000a9280       ??YDName@@QAEAAV0@PBD@Z    004aa280 f   libvcruntimed:undname.obj
 0001:000a9340       ??YDName@@QAEAAV0@W4DNameStatus@@@Z 004aa340 f   libvcruntimed:undname.obj
 0001:000a93c0       ??YReplicator@@QAEAAV0@ABVDName@@@Z 004aa3c0 f   libvcruntimed:undname.obj
 0001:000a9470       ??_5DName@@QAEAAV0@ABV0@@Z 004aa470 f   libvcruntimed:undname.obj
 0001:000a94e0       ?Constructor@_HeapManager@@QAEXP6APAXI@ZP6AXPAX@Z@Z 004aa4e0 f i libvcruntimed:undname.obj
 0001:000a9530       ?Destructor@_HeapManager@@QAEXXZ 004aa530 f i libvcruntimed:undname.obj
 0001:000a95a0       ?UScore@UnDecorator@@SAPBDW4Tokens@@@Z 004aa5a0 f   libvcruntimed:undname.obj
 0001:000a95e0       ?append@DName@@AAEXPAVDNameNode@@@Z 004aa5e0 f   libvcruntimed:undname.obj
 0001:000a9690       ?composeDeclaration@UnDecorator@@CA?AVDName@@ABV2@@Z 004aa690 f i libvcruntimed:undname.obj
 0001:000aba40       ?dbGetString@DName@@QBEPADXZ 004aca40 f   libvcruntimed:undname.obj
 0001:000aba70       ?doAccessSpecifiers@UnDecorator@@SAHXZ 004aca70 f i libvcruntimed:undname.obj
 0001:000abaa0       ?doAllocationLanguage@UnDecorator@@SAHXZ 004acaa0 f i libvcruntimed:undname.obj
 0001:000abad0       ?doAllocationModel@UnDecorator@@SAHXZ 004acad0 f i libvcruntimed:undname.obj
 0001:000abb00       ?doEcsu@UnDecorator@@SAHXZ 004acb00 f i libvcruntimed:undname.obj
 0001:000abb30       ?doEllipsis@UnDecorator@@SAHXZ 004acb30 f i libvcruntimed:undname.obj
 0001:000abb60       ?doFunctionReturns@UnDecorator@@SAHXZ 004acb60 f i libvcruntimed:undname.obj
 0001:000abb90       ?doMSKeywords@UnDecorator@@SAHXZ 004acb90 f i libvcruntimed:undname.obj
 0001:000abbc0       ?doMemberTypes@UnDecorator@@SAHXZ 004acbc0 f i libvcruntimed:undname.obj
 0001:000abbf0       ?doNameOnly@UnDecorator@@SAHXZ 004acbf0 f i libvcruntimed:undname.obj
 0001:000abc10       ?doNoIdentCharCheck@UnDecorator@@SAHXZ 004acc10 f i libvcruntimed:undname.obj
 0001:000abc30       ?doPchar@DName@@AAEXPBDH@Z 004acc30 f   libvcruntimed:undname.obj
 0001:000abdc0       ?doPtr64@UnDecorator@@SAHXZ 004acdc0 f i libvcruntimed:undname.obj
 0001:000abdf0       ?doRestrictionSpec@UnDecorator@@SAHXZ 004acdf0 f i libvcruntimed:undname.obj
 0001:000abe20       ?doThisTypes@UnDecorator@@SAHXZ 004ace20 f i libvcruntimed:undname.obj
 0001:000abe60       ?doThrowTypes@UnDecorator@@SAHXZ 004ace60 f i libvcruntimed:undname.obj
 0001:000abe90       ?doTypeOnly@UnDecorator@@SAHXZ 004ace90 f i libvcruntimed:undname.obj
 0001:000abeb0       ?doUnderScore@UnDecorator@@SAHXZ 004aceb0 f i libvcruntimed:undname.obj
 0001:000abee0       ?getArgumentList@UnDecorator@@CA?AVDName@@XZ 004acee0 f   libvcruntimed:undname.obj
 0001:000ac080       ?getArgumentTypes@UnDecorator@@CA?AVDName@@XZ 004ad080 f   libvcruntimed:undname.obj
 0001:000ac230       ?getArrayType@UnDecorator@@CA?AVDName@@ABV2@@Z 004ad230 f i libvcruntimed:undname.obj
 0001:000ac4f0       ?getBasedType@UnDecorator@@CA?AVDName@@XZ 004ad4f0 f   libvcruntimed:undname.obj
 0001:000ac5e0       ?getBasicDataType@UnDecorator@@CA?AVDName@@ABV2@@Z 004ad5e0 f   libvcruntimed:undname.obj
 0001:000acd40       ?getCallIndex@UnDecorator@@CA?AVDName@@XZ 004add40 f i libvcruntimed:undname.obj
 0001:000acd60       ?getCallingConvention@UnDecorator@@CA?AVDName@@XZ 004add60 f   libvcruntimed:undname.obj
 0001:000acf50       ?getDataIndirectType@UnDecorator@@CA?AVDName@@ABV2@PBD0H@Z 004adf50 f   libvcruntimed:undname.obj
 0001:000ad900       ?getDataIndirectType@UnDecorator@@CA?AVDName@@XZ 004ae900 f i libvcruntimed:undname.obj
 0001:000ad950       ?getDataType@UnDecorator@@CA?AVDName@@PAV2@@Z 004ae950 f   libvcruntimed:undname.obj
 0001:000adab0       ?getDecoratedName@UnDecorator@@CA?AVDName@@XZ 004aeab0 f   libvcruntimed:undname.obj
 0001:000adea0       ?getDimension@UnDecorator@@CA?AVDName@@_N@Z 004aeea0 f   libvcruntimed:undname.obj
 0001:000ae200       ?getDispatchTarget@UnDecorator@@CA?AVDName@@XZ 004af200 f   libvcruntimed:undname.obj
 0001:000ae2c0       ?getDisplacement@UnDecorator@@CA?AVDName@@XZ 004af2c0 f i libvcruntimed:undname.obj
 0001:000ae2e0       ?getECSUDataType@UnDecorator@@CA?AVDName@@XZ 004af2e0 f   libvcruntimed:undname.obj
 0001:000ae520       ?getECSUName@UnDecorator@@CA?AVDName@@XZ 004af520 f i libvcruntimed:undname.obj
 0001:000ae540       ?getEnumType@UnDecorator@@CA?AVDName@@XZ 004af540 f i libvcruntimed:undname.obj
 0001:000ae6e0       ?getExtendedDataIndirectType@UnDecorator@@CA?AVDName@@AAPBDAA_NH@Z 004af6e0 f   libvcruntimed:undname.obj
 0001:000ae9c0       ?getExternalDataType@UnDecorator@@CA?AVDName@@ABV2@@Z 004af9c0 f i libvcruntimed:undname.obj
 0001:000aea80       ?getFunctionIndirectType@UnDecorator@@CA?AVDName@@ABV2@@Z 004afa80 f   libvcruntimed:undname.obj
 0001:000af030       ?getGuardNumber@UnDecorator@@CA?AVDName@@XZ 004b0030 f i libvcruntimed:undname.obj
 0001:000af050       ?getLastChar@DName@@QBEDXZ 004b0050 f i libvcruntimed:undname.obj
 0001:000af0a0       ?getLastChar@DNameStatusNode@@UBEDXZ 004b00a0 f i libvcruntimed:undname.obj
 0001:000af0e0       ?getLastChar@charNode@@UBEDXZ 004b00e0 f i libvcruntimed:undname.obj
 0001:000af100       ?getLastChar@pDNameNode@@UBEDXZ 004b0100 f i libvcruntimed:undname.obj
 0001:000af140       ?getLastChar@pairNode@@UBEDXZ 004b0140 f i libvcruntimed:undname.obj
 0001:000af1c0       ?getLastChar@pcharNode@@UBEDXZ 004b01c0 f i libvcruntimed:undname.obj
 0001:000af200       ?getLexicalFrame@UnDecorator@@CA?AVDName@@XZ 004b0200 f i libvcruntimed:undname.obj
 0001:000af250       ?getMemory@_HeapManager@@QAEPAXIH@Z 004b0250 f   libvcruntimed:undname.obj
 0001:000af3b0       ?getNumberOfDimensions@UnDecorator@@CAHXZ 004b03b0 f   libvcruntimed:undname.obj
 0001:000af4f0       ?getOperatorName@UnDecorator@@CA?AVDName@@_NPA_N@Z 004b04f0 f i libvcruntimed:undname.obj
 0001:000b01b0       ?getPointerType@UnDecorator@@CA?AVDName@@ABV2@0@Z 004b11b0 f i libvcruntimed:undname.obj
 0001:000b01f0       ?getPointerTypeArray@UnDecorator@@CA?AVDName@@ABV2@0@Z 004b11f0 f i libvcruntimed:undname.obj
 0001:000b0230       ?getPrimaryDataType@UnDecorator@@CA?AVDName@@ABV2@@Z 004b1230 f   libvcruntimed:undname.obj
 0001:000b0720       ?getPtrRefDataType@UnDecorator@@CA?AVDName@@ABV2@H@Z 004b1720 f   libvcruntimed:undname.obj
 0001:000b09d0       ?getPtrRefType@UnDecorator@@CA?AVDName@@ABV2@0PBD@Z 004b19d0 f   libvcruntimed:undname.obj
 0001:000b0ba0       ?getReferenceType@UnDecorator@@CA?AVDName@@ABV2@0PBD@Z 004b1ba0 f i libvcruntimed:undname.obj
 0001:000b0bd0       ?getRestrictionSpec@UnDecorator@@CA?AVDName@@XZ 004b1bd0 f   libvcruntimed:undname.obj
 0001:000b0d70       ?getReturnType@UnDecorator@@CA?AVDName@@PAV2@@Z 004b1d70 f   libvcruntimed:undname.obj
 0001:000b0dd0       ?getScope@UnDecorator@@CA?AVDName@@XZ 004b1dd0 f   libvcruntimed:undname.obj
 0001:000b1400       ?getScopedName@UnDecorator@@CA?AVDName@@XZ 004b2400 f   libvcruntimed:undname.obj
 0001:000b1560       ?getSignedDimension@UnDecorator@@CA?AVDName@@XZ 004b2560 f   libvcruntimed:undname.obj
 0001:000b1600       ?getStorageConvention@UnDecorator@@CA?AVDName@@XZ 004b2600 f i libvcruntimed:undname.obj
 0001:000b1620       ?getString@DName@@QBEPADPAD0@Z 004b2620 f i libvcruntimed:undname.obj
 0001:000b1680       ?getString@DName@@QBEPADPADH@Z 004b2680 f i libvcruntimed:undname.obj
 0001:000b1730       ?getString@DNameStatusNode@@UBEPADPAD0@Z 004b2730 f i libvcruntimed:undname.obj
 0001:000b1770       ?getString@charNode@@UBEPADPAD0@Z 004b2770 f i libvcruntimed:undname.obj
 0001:000b17b0       ?getString@pDNameNode@@UBEPADPAD0@Z 004b27b0 f i libvcruntimed:undname.obj
 0001:000b1800       ?getString@pairNode@@UBEPADPAD0@Z 004b2800 f i libvcruntimed:undname.obj
 0001:000b18a0       ?getString@pcharNode@@UBEPADPAD0@Z 004b28a0 f i libvcruntimed:undname.obj
 0001:000b18e0       ?getStringEncoding@UnDecorator@@CA?AVDName@@PBDH@Z 004b28e0 f   libvcruntimed:undname.obj
 0001:000b1a30       ?getStringHelper@@YAPADPADPBD1H@Z 004b2a30 f i libvcruntimed:undname.obj
 0001:000b1a80       ?getSymbolName@UnDecorator@@CA?AVDName@@XZ 004b2a80 f i libvcruntimed:undname.obj
 0001:000b1b30       ?getTemplateArgumentList@UnDecorator@@CA?AVDName@@XZ 004b2b30 f   libvcruntimed:undname.obj
 0001:000b2010       ?getTemplateConstant@UnDecorator@@CA?AVDName@@XZ 004b3010 f   libvcruntimed:undname.obj
 0001:000b2720       ?getTemplateName@UnDecorator@@CA?AVDName@@_N@Z 004b3720 f   libvcruntimed:undname.obj
 0001:000b2960       ?getThisType@UnDecorator@@CA?AVDName@@XZ 004b3960 f i libvcruntimed:undname.obj
 0001:000b29b0       ?getThrowTypes@UnDecorator@@CA?AVDName@@XZ 004b39b0 f   libvcruntimed:undname.obj
 0001:000b2a80       ?getTypeEncoding@UnDecorator@@CAHXZ 004b3a80 f i libvcruntimed:undname.obj
 0001:000b3750       ?getVCallThunkType@UnDecorator@@CA?AVDName@@XZ 004b4750 f i libvcruntimed:undname.obj
 0001:000b37d0       ?getVbTableType@UnDecorator@@CA?AVDName@@ABV2@@Z 004b47d0 f i libvcruntimed:undname.obj
 0001:000b37f0       ?getVdispMapType@UnDecorator@@CA?AVDName@@ABV2@@Z 004b47f0 f i libvcruntimed:undname.obj
 0001:000b3880       ?getVfTableType@UnDecorator@@CA?AVDName@@ABV2@@Z 004b4880 f i libvcruntimed:undname.obj
 0001:000b3ab0       ?getZName@UnDecorator@@CA?AVDName@@_N0@Z 004b4ab0 f   libvcruntimed:undname.obj
 0001:000b3e30       ?haveTemplateParameters@UnDecorator@@SAHXZ 004b4e30 f i libvcruntimed:undname.obj
 0001:000b3e50       ?isArray@DName@@QBEHXZ     004b4e50 f i libvcruntimed:undname.obj
 0001:000b3e70       ?isComArray@DName@@QBEHXZ  004b4e70 f i libvcruntimed:undname.obj
 0001:000b3e90       ?isEmpty@DName@@QBEHXZ     004b4e90 f i libvcruntimed:undname.obj
 0001:000b3ed0       ?isFull@Replicator@@QBEHXZ 004b4ed0 f i libvcruntimed:undname.obj
 0001:000b3f10       ?isNoTE@DName@@QBEHXZ      004b4f10 f i libvcruntimed:undname.obj
 0001:000b3f30       ?isPinPtr@DName@@QBEHXZ    004b4f30 f i libvcruntimed:undname.obj
 0001:000b3f50       ?isPtrRef@DName@@QBEHXZ    004b4f50 f i libvcruntimed:undname.obj
 0001:000b3f70       ?isUDC@DName@@QBEHXZ       004b4f70 f i libvcruntimed:undname.obj
 0001:000b3fc0       ?isUDTThunk@DName@@QBEHXZ  004b4fc0 f i libvcruntimed:undname.obj
 0001:000b4010       ?isVCallThunk@DName@@QBEHXZ 004b5010 f i libvcruntimed:undname.obj
 0001:000b4030       ?isValid@DName@@QBEHXZ     004b5030 f i libvcruntimed:undname.obj
 0001:000b4070       ?length@DName@@QBEHXZ      004b5070 f i libvcruntimed:undname.obj
 0001:000b40c0       ?length@DNameStatusNode@@UBEHXZ 004b50c0 f i libvcruntimed:undname.obj
 0001:000b40e0       ?length@charNode@@UBEHXZ   004b50e0 f i libvcruntimed:undname.obj
 0001:000b4100       ?length@pDNameNode@@UBEHXZ 004b5100 f i libvcruntimed:undname.obj
 0001:000b4140       ?length@pairNode@@UBEHXZ   004b5140 f i libvcruntimed:undname.obj
 0001:000b41d0       ?length@pcharNode@@UBEHXZ  004b51d0 f i libvcruntimed:undname.obj
 0001:000b41f0       ?make@DNameStatusNode@@SAPAV1@W4DNameStatus@@@Z 004b51f0 f i libvcruntimed:undname.obj
 0001:000b4280       ?setIsArray@DName@@QAEXXZ  004b5280 f i libvcruntimed:undname.obj
 0001:000b42b0       ?setIsComArray@DName@@QAEXXZ 004b52b0 f i libvcruntimed:undname.obj
 0001:000b42e0       ?setIsNoTE@DName@@QAEXXZ   004b52e0 f i libvcruntimed:undname.obj
 0001:000b4310       ?setIsPinPtr@DName@@QAEXXZ 004b5310 f i libvcruntimed:undname.obj
 0001:000b4340       ?setIsUDC@DName@@QAEXXZ    004b5340 f i libvcruntimed:undname.obj
 0001:000b4380       ?setIsVCallThunk@DName@@QAEXXZ 004b5380 f i libvcruntimed:undname.obj
 0001:000b43b0       ?setPtrRef@DName@@QAEAAV1@XZ 004b53b0 f i libvcruntimed:undname.obj
 0001:000b43e0       ?status@DName@@QBE?AW4DNameStatus@@XZ 004b53e0 f i libvcruntimed:undname.obj
 0001:000b4500       ___unDName                 004b5500 f   libvcruntimed:undname.obj
 0001:000b4600       ___unDNameEx               004b5600 f   libvcruntimed:undname.obj
 0001:000b4700       __global_unwind2           004b5700 f   libvcruntimed:_exsup_.obj
 0001:000b4765       __local_unwind2            004b5765 f   libvcruntimed:_exsup_.obj
 0001:000b47e9       __abnormal_termination     004b57e9 f   libvcruntimed:_exsup_.obj
 0001:000b480c       __NLG_Notify1              004b580c f   libvcruntimed:_exsup_.obj
 0001:000b4815       __NLG_Notify               004b5815 f   libvcruntimed:_exsup_.obj
 0001:000b482c       __NLG_Dispatch2            004b582c     libvcruntimed:_exsup_.obj
 0001:000b482c       __NLG_Dispatch             004b582c     libvcruntimed:_exsup_.obj
 0001:000b4834       __NLG_Call                 004b5834 f   libvcruntimed:_exsup_.obj
 0001:000b4836       __NLG_Return2              004b5836     libvcruntimed:_exsup_.obj
 0001:000b48c0       __get_unexpected           004b58c0 f   libvcruntimed:unexpected.obj
 0001:000b48e0       _set_unexpected            004b58e0 f   libvcruntimed:unexpected.obj
 0001:000b4920       _unexpected                004b5920 f   libvcruntimed:unexpected.obj
 0001:000b4960       ??$__crt_fast_decode_pointer@P6AXPB_W00II@Z@@YAP6AXPB_W00II@ZQ6AX000II@Z@Z 004b5960 f i libucrtd:invalid_parameter.obj
 0001:000b49a0       ??$__crt_fast_encode_pointer@P6AXPB_W00II@Z@@YAP6AXPB_W00II@ZQ6AX000II@Z@Z 004b59a0 f i libucrtd:invalid_parameter.obj
 0001:000b49e0       ??$initialize_from_array@$$BY00Q6AXPB_W00II@Z@?$dual_state_global@P6AXPB_W00II@Z@__crt_state_management@@QAAXAAY00Q6AXPB_W00II@Z@Z 004b59e0 f i libucrtd:invalid_parameter.obj
 0001:000b4a40       ?dangerous_get_state_array@?$dual_state_global@P6AXPB_W00II@Z@__crt_state_management@@QAEPAP6AXPB_W00II@ZXZ 004b5a40 f i libucrtd:invalid_parameter.obj
 0001:000b4a60       ?get_current_state_index@__crt_state_management@@YAIXZ 004b5a60 f i libucrtd:invalid_parameter.obj
 0001:000b4a70       ?value@?$dual_state_global@P6AXPB_W00II@Z@__crt_state_management@@QAEAAP6AXPB_W00II@ZXZ 004b5a70 f i libucrtd:invalid_parameter.obj
 0001:000b4a90       ___acrt_call_reportfault   004b5a90 f   libucrtd:invalid_parameter.obj
 0001:000b4c40       ___acrt_initialize_invalid_parameter_handler 004b5c40 f   libucrtd:invalid_parameter.obj
 0001:000b4c70       __get_invalid_parameter_handler 004b5c70 f   libucrtd:invalid_parameter.obj
 0001:000b4ca0       __get_thread_local_invalid_parameter_handler 004b5ca0 f   libucrtd:invalid_parameter.obj
 0001:000b4cd0       __invalid_parameter        004b5cd0 f   libucrtd:invalid_parameter.obj
 0001:000b4dd0       __invalid_parameter_noinfo 004b5dd0 f   libucrtd:invalid_parameter.obj
 0001:000b4df0       __invalid_parameter_noinfo_noreturn 004b5df0 f   libucrtd:invalid_parameter.obj
 0001:000b4e30       __invoke_watson            004b5e30 f   libucrtd:invalid_parameter.obj
 0001:000b4e80       __set_invalid_parameter_handler 004b5e80 f   libucrtd:invalid_parameter.obj
 0001:000b4ee0       __set_thread_local_invalid_parameter_handler 004b5ee0 f   libucrtd:invalid_parameter.obj
 0001:000b4f20       ___acrt_errno_from_os_error 004b5f20 f   libucrtd:errno.obj
 0001:000b4fc0       ___acrt_errno_map_os_error 004b5fc0 f   libucrtd:errno.obj
 0001:000b5000       ___doserrno                004b6000 f   libucrtd:errno.obj
 0001:000b5030       __errno                    004b6030 f   libucrtd:errno.obj
 0001:000b5060       __get_doserrno             004b6060 f   libucrtd:errno.obj
 0001:000b5110       __get_errno                004b6110 f   libucrtd:errno.obj
 0001:000b51c0       __set_doserrno             004b61c0 f   libucrtd:errno.obj
 0001:000b5200       __set_errno                004b6200 f   libucrtd:errno.obj
 0001:000b5240       _free                      004b6240 f   libucrtd:free.obj
 0001:000b5270       _malloc                    004b6270 f   libucrtd:malloc.obj
 0001:000b5290       __msize                    004b6290 f   libucrtd:msize.obj
 0001:000b52b0       __msize_base               004b62b0 f   libucrtd:msize.obj
 0001:000b5370       _realloc                   004b6370 f   libucrtd:realloc.obj
 0001:000b53a0       ??$?RU?$__crt_report_hook_node@D@@@__crt_internal_free_policy@@QBEXQBU?$__crt_report_hook_node@D@@@Z 004b63a0 f i libucrtd:dbgrpt.obj
 0001:000b53d0       ??$?RU?$__crt_report_hook_node@_W@@@__crt_internal_free_policy@@QBEXQBU?$__crt_report_hook_node@_W@@@Z 004b63d0 f i libucrtd:dbgrpt.obj
 0001:000b5400       ??$?RV<lambda_39c757ba59d6ac35fb053df21e15f225>@@AAV<lambda_0e8d296f2015d00575aaed1fd344af09>@@V<lambda_6437917bd4515e197deeccd168d5d84f>@@@?$__crt_seh_guarded_call@H@@QAEH$$QAV<lambda_39c757ba59d6ac35fb053df21e15f225>@@AAV<lambda_0e8d296f2015d00575aaed1fd344af09>@@$$QAV<lambda_6437917bd4515e197deeccd168d5d84f>@@@Z 004b6400 f i libucrtd:dbgrpt.obj
 0001:000b54b0       ??$?RV<lambda_636fb9b48025d66c2559a49a493587d5>@@AAV<lambda_c8faeb264fdcc4f3901f0705ce773d88>@@V<lambda_dced16f8255fcb5c10431ec2cadde238>@@@?$__crt_seh_guarded_call@H@@QAEH$$QAV<lambda_636fb9b48025d66c2559a49a493587d5>@@AAV<lambda_c8faeb264fdcc4f3901f0705ce773d88>@@$$QAV<lambda_dced16f8255fcb5c10431ec2cadde238>@@@Z 004b64b0 f i libucrtd:dbgrpt.obj
 0001:000b5560       ??$__acrt_lock_and_call@V<lambda_0e8d296f2015d00575aaed1fd344af09>@@@@YAHW4__acrt_lock_id@@$$QAV<lambda_0e8d296f2015d00575aaed1fd344af09>@@@Z 004b6560 f i libucrtd:dbgrpt.obj
 0001:000b55a0       ??$__acrt_lock_and_call@V<lambda_c8faeb264fdcc4f3901f0705ce773d88>@@@@YAHW4__acrt_lock_id@@$$QAV<lambda_c8faeb264fdcc4f3901f0705ce773d88>@@@Z 004b65a0 f i libucrtd:dbgrpt.obj
 0001:000b64d0       ??$get_module_file_name@AAPAUHINSTANCE__@@AAY0BAF@DK@?$__crt_char_traits@D@@SAKAAPAUHINSTANCE__@@AAY0BAF@D$$QAK@Z 004b74d0 f i libucrtd:dbgrpt.obj
 0001:000b6500       ??$get_module_file_name@AAPAUHINSTANCE__@@AAY0BAF@_WK@?$__crt_char_traits@_W@@SAKAAPAUHINSTANCE__@@AAY0BAF@_W$$QAK@Z 004b7500 f i libucrtd:dbgrpt.obj
 0001:000b6530       ??$tcscpy_s@AAY0BAF@DIPBD@?$__crt_char_traits@D@@SAHAAY0BAF@D$$QAI$$QAPBD@Z 004b7530 f i libucrtd:dbgrpt.obj
 0001:000b6560       ??$tcscpy_s@AAY0BAF@_WIPB_W@?$__crt_char_traits@_W@@SAHAAY0BAF@_W$$QAI$$QAPB_W@Z 004b7560 f i libucrtd:dbgrpt.obj
 0001:000b6590       ??$tcslen@AAY0BAF@D@?$__crt_char_traits@D@@SAIAAY0BAF@D@Z 004b7590 f i libucrtd:dbgrpt.obj
 0001:000b65b0       ??$tcslen@AAY0BAF@_W@?$__crt_char_traits@_W@@SAIAAY0BAF@_W@Z 004b75b0 f i libucrtd:dbgrpt.obj
 0001:000b65d0       ??$tcslen@ABQBD@?$__crt_char_traits@D@@SAIABQBD@Z 004b75d0 f i libucrtd:dbgrpt.obj
 0001:000b65f0       ??$tcslen@ABQB_W@?$__crt_char_traits@_W@@SAIABQB_W@Z 004b75f0 f i libucrtd:dbgrpt.obj
 0001:000b6730       ??0?$__crt_unique_heap_ptr@U?$__crt_report_hook_node@D@@U__crt_internal_free_policy@@@@QAE@QAU?$__crt_report_hook_node@D@@@Z 004b7730 f i libucrtd:dbgrpt.obj
 0001:000b6750       ??0?$__crt_unique_heap_ptr@U?$__crt_report_hook_node@_W@@U__crt_internal_free_policy@@@@QAE@QAU?$__crt_report_hook_node@_W@@@Z 004b7750 f i libucrtd:dbgrpt.obj
 0001:000b6770       ??1?$__crt_unique_heap_ptr@U?$__crt_report_hook_node@D@@U__crt_internal_free_policy@@@@QAE@XZ 004b7770 f i libucrtd:dbgrpt.obj
 0001:000b6790       ??1?$__crt_unique_heap_ptr@U?$__crt_report_hook_node@_W@@U__crt_internal_free_policy@@@@QAE@XZ 004b7790 f i libucrtd:dbgrpt.obj
 0001:000b67b0       ??B?$__crt_unique_heap_ptr@U?$__crt_report_hook_node@D@@U__crt_internal_free_policy@@@@QBE_NXZ 004b77b0 f i libucrtd:dbgrpt.obj
 0001:000b67d0       ??B?$__crt_unique_heap_ptr@U?$__crt_report_hook_node@_W@@U__crt_internal_free_policy@@@@QBE_NXZ 004b77d0 f i libucrtd:dbgrpt.obj
 0001:000b6e70       ?detach@?$__crt_unique_heap_ptr@U?$__crt_report_hook_node@D@@U__crt_internal_free_policy@@@@QAEPAU?$__crt_report_hook_node@D@@XZ 004b7e70 f i libucrtd:dbgrpt.obj
 0001:000b6ea0       ?detach@?$__crt_unique_heap_ptr@U?$__crt_report_hook_node@_W@@U__crt_internal_free_policy@@@@QAEPAU?$__crt_report_hook_node@_W@@XZ 004b7ea0 f i libucrtd:dbgrpt.obj
 0001:000b6ed0       ?get@?$__crt_unique_heap_ptr@U?$__crt_report_hook_node@D@@U__crt_internal_free_policy@@@@QBEPAU?$__crt_report_hook_node@D@@XZ 004b7ed0 f i libucrtd:dbgrpt.obj
 0001:000b6ef0       ?get@?$__crt_unique_heap_ptr@U?$__crt_report_hook_node@_W@@U__crt_internal_free_policy@@@@QBEPAU?$__crt_report_hook_node@_W@@XZ 004b7ef0 f i libucrtd:dbgrpt.obj
 0001:000b6f70       ?is_valid@?$__crt_unique_heap_ptr@U?$__crt_report_hook_node@D@@U__crt_internal_free_policy@@@@QBE_NXZ 004b7f70 f i libucrtd:dbgrpt.obj
 0001:000b6fb0       ?is_valid@?$__crt_unique_heap_ptr@U?$__crt_report_hook_node@_W@@U__crt_internal_free_policy@@@@QBE_NXZ 004b7fb0 f i libucrtd:dbgrpt.obj
 0001:000b6ff0       ?release@?$__crt_unique_heap_ptr@U?$__crt_report_hook_node@D@@U__crt_internal_free_policy@@@@QAEXXZ 004b7ff0 f i libucrtd:dbgrpt.obj
 0001:000b7020       ?release@?$__crt_unique_heap_ptr@U?$__crt_report_hook_node@_W@@U__crt_internal_free_policy@@@@QAEXXZ 004b8020 f i libucrtd:dbgrpt.obj
 0001:000b7050       __CrtDbgReport             004b8050 f   libucrtd:dbgrpt.obj
 0001:000b70b0       __CrtDbgReportW            004b80b0 f   libucrtd:dbgrpt.obj
 0001:000b7110       __CrtSetReportHook2        004b8110 f   libucrtd:dbgrpt.obj
 0001:000b7130       __CrtSetReportHookW2       004b8130 f   libucrtd:dbgrpt.obj
 0001:000b7150       ___acrt_MessageWindowA     004b8150 f   libucrtd:dbgrpt.obj
 0001:000b7180       ___acrt_MessageWindowW     004b8180 f   libucrtd:dbgrpt.obj
 0001:000b71b0       __invoke_watson_if_error   004b81b0 f i libucrtd:dbgrpt.obj
 0001:000b71f0       __invoke_watson_if_oneof   004b81f0 f i libucrtd:dbgrpt.obj
 0001:000b7240       __snwprintf_s              004b8240 f i libucrtd:dbgrpt.obj
 0001:000b72a0       __vsnwprintf_s_l           004b82a0 f i libucrtd:dbgrpt.obj
 0001:000b76f0       _wcscpy_s                  004b86f0 f   libucrtd:wcscpy_s.obj
 0001:000b8760       ??1?$__crt_simd_cleanup_guard@$00@@QAE@XZ 004b9760 f i libucrtd:strnlen.obj
 0001:000b8780       ??1?$__crt_simd_cleanup_guard@$0A@@@QAE@XZ 004b9780 f i libucrtd:strnlen.obj
 0001:000b8790       ?compare_equals@?$__crt_simd_traits@$00E@@SA?AT__m256i@@T2@0@Z 004b9790 f i libucrtd:strnlen.obj
 0001:000b87e0       ?compare_equals@?$__crt_simd_traits@$00G@@SA?AT__m256i@@T2@0@Z 004b97e0 f i libucrtd:strnlen.obj
 0001:000b8830       ?compare_equals@?$__crt_simd_traits@$0A@E@@SA?AT__m128i@@T2@0@Z 004b9830 f i libucrtd:strnlen.obj
 0001:000b8880       ?compare_equals@?$__crt_simd_traits@$0A@G@@SA?AT__m128i@@T2@0@Z 004b9880 f i libucrtd:strnlen.obj
 0001:000b88d0       ?compute_byte_mask@?$__crt_simd_pack_traits@$00@@SAHT__m256i@@@Z 004b98d0 f i libucrtd:strnlen.obj
 0001:000b8910       ?compute_byte_mask@?$__crt_simd_pack_traits@$0A@@@SAHT__m128i@@@Z 004b9910 f i libucrtd:strnlen.obj
 0001:000b8950       ?get_zero_pack@?$__crt_simd_pack_traits@$00@@SA?AT__m256i@@XZ 004b9950 f i libucrtd:strnlen.obj
 0001:000b8990       ?get_zero_pack@?$__crt_simd_pack_traits@$0A@@@SA?AT__m128i@@XZ 004b9990 f i libucrtd:strnlen.obj
 0001:000b89d0       _strnlen                   004b99d0 f   libucrtd:strnlen.obj
 0001:000b89f0       _wcslen                    004b99f0 f   libucrtd:strnlen.obj
 0001:000b8a10       _wcsnlen                   004b9a10 f   libucrtd:strnlen.obj
 0001:000b8a30       _wcsncmp                   004b9a30 f   libucrtd:wcsncmp.obj
 0001:000b8aa0       ??$?0ABV?$stream_output_adapter@D@__crt_stdio_output@@AB_KABQBDABQAU__crt_locale_pointers@@ABQAD@?$format_validation_base@DV?$stream_output_adapter@D@__crt_stdio_output@@@__crt_stdio_output@@IAE@ABV?$stream_output_adapter@D@1@AB_KABQBDABQAU__crt_locale_pointers@@ABQAD@Z 004b9aa0 f i libucrtd:output.obj
 0001:000b8ae0       ??$?0ABV?$stream_output_adapter@D@__crt_stdio_output@@AB_KABQBDABQAU__crt_locale_pointers@@ABQAD@?$positional_parameter_base@DV?$stream_output_adapter@D@__crt_stdio_output@@@__crt_stdio_output@@IAE@ABV?$stream_output_adapter@D@1@AB_KABQBDABQAU__crt_locale_pointers@@ABQAD@Z 004b9ae0 f i libucrtd:output.obj
 0001:000b8b70       ??$?0ABV?$stream_output_adapter@D@__crt_stdio_output@@AB_KABQBDABQAU__crt_locale_pointers@@ABQAD@?$standard_base@DV?$stream_output_adapter@D@__crt_stdio_output@@@__crt_stdio_output@@IAE@ABV?$stream_output_adapter@D@1@AB_KABQBDABQAU__crt_locale_pointers@@ABQAD@Z 004b9b70 f i libucrtd:output.obj
 0001:000b8bd0       ??$?0ABV?$stream_output_adapter@_W@__crt_stdio_output@@AB_KABQB_WABQAU__crt_locale_pointers@@ABQAD@?$format_validation_base@_WV?$stream_output_adapter@_W@__crt_stdio_output@@@__crt_stdio_output@@IAE@ABV?$stream_output_adapter@_W@1@AB_KABQB_WABQAU__crt_locale_pointers@@ABQAD@Z 004b9bd0 f i libucrtd:output.obj
 0001:000b8c10       ??$?0ABV?$stream_output_adapter@_W@__crt_stdio_output@@AB_KABQB_WABQAU__crt_locale_pointers@@ABQAD@?$positional_parameter_base@_WV?$stream_output_adapter@_W@__crt_stdio_output@@@__crt_stdio_output@@IAE@ABV?$stream_output_adapter@_W@1@AB_KABQB_WABQAU__crt_locale_pointers@@ABQAD@Z 004b9c10 f i libucrtd:output.obj
 0001:000b8ca0       ??$?0ABV?$stream_output_adapter@_W@__crt_stdio_output@@AB_KABQB_WABQAU__crt_locale_pointers@@ABQAD@?$standard_base@_WV?$stream_output_adapter@_W@__crt_stdio_output@@@__crt_stdio_output@@IAE@ABV?$stream_output_adapter@_W@1@AB_KABQB_WABQAU__crt_locale_pointers@@ABQAD@Z 004b9ca0 f i libucrtd:output.obj
 0001:000b8d00       ??$?0ABV?$string_output_adapter@D@__crt_stdio_output@@AB_KABQBDABQAU__crt_locale_pointers@@ABQAD@?$format_validation_base@DV?$string_output_adapter@D@__crt_stdio_output@@@__crt_stdio_output@@IAE@ABV?$string_output_adapter@D@1@AB_KABQBDABQAU__crt_locale_pointers@@ABQAD@Z 004b9d00 f i libucrtd:output.obj
 0001:000b8d40       ??$?0ABV?$string_output_adapter@D@__crt_stdio_output@@AB_KABQBDABQAU__crt_locale_pointers@@ABQAD@?$positional_parameter_base@DV?$string_output_adapter@D@__crt_stdio_output@@@__crt_stdio_output@@IAE@ABV?$string_output_adapter@D@1@AB_KABQBDABQAU__crt_locale_pointers@@ABQAD@Z 004b9d40 f i libucrtd:output.obj
 0001:000b8dd0       ??$?0ABV?$string_output_adapter@D@__crt_stdio_output@@AB_KABQBDABQAU__crt_locale_pointers@@ABQAD@?$standard_base@DV?$string_output_adapter@D@__crt_stdio_output@@@__crt_stdio_output@@IAE@ABV?$string_output_adapter@D@1@AB_KABQBDABQAU__crt_locale_pointers@@ABQAD@Z 004b9dd0 f i libucrtd:output.obj
 0001:000b8e30       ??$?0ABV?$string_output_adapter@_W@__crt_stdio_output@@AB_KABQB_WABQAU__crt_locale_pointers@@ABQAD@?$format_validation_base@_WV?$string_output_adapter@_W@__crt_stdio_output@@@__crt_stdio_output@@IAE@ABV?$string_output_adapter@_W@1@AB_KABQB_WABQAU__crt_locale_pointers@@ABQAD@Z 004b9e30 f i libucrtd:output.obj
 0001:000b8e70       ??$?0ABV?$string_output_adapter@_W@__crt_stdio_output@@AB_KABQB_WABQAU__crt_locale_pointers@@ABQAD@?$positional_parameter_base@_WV?$string_output_adapter@_W@__crt_stdio_output@@@__crt_stdio_output@@IAE@ABV?$string_output_adapter@_W@1@AB_KABQB_WABQAU__crt_locale_pointers@@ABQAD@Z 004b9e70 f i libucrtd:output.obj
 0001:000b8f00       ??$?0ABV?$string_output_adapter@_W@__crt_stdio_output@@AB_KABQB_WABQAU__crt_locale_pointers@@ABQAD@?$standard_base@_WV?$string_output_adapter@_W@__crt_stdio_output@@@__crt_stdio_output@@IAE@ABV?$string_output_adapter@_W@1@AB_KABQB_WABQAU__crt_locale_pointers@@ABQAD@Z 004b9f00 f i libucrtd:output.obj
 0001:000b8f60       ??$?RV<lambda_3a2a6cca1b0f7007a3db339dcecd1562>@@AAV<lambda_e38011a3ba6e07c7dbcef4d549f26102>@@V<lambda_b2332a2b562101f3c3c34baab19e0511>@@@?$__crt_seh_guarded_call@H@@QAEH$$QAV<lambda_3a2a6cca1b0f7007a3db339dcecd1562>@@AAV<lambda_e38011a3ba6e07c7dbcef4d549f26102>@@$$QAV<lambda_b2332a2b562101f3c3c34baab19e0511>@@@Z 004b9f60 f i libucrtd:output.obj
 0001:000b9010       ??$?RV<lambda_75d23329f2fb3d02b2e1cf5509bb1caf>@@AAV<lambda_c4f131f91cb4ec00a5b0a26aa161b8b4>@@V<lambda_114dc79c86b00c313cb0b6b3b001aaf8>@@@?$__crt_seh_guarded_call@H@@QAEH$$QAV<lambda_75d23329f2fb3d02b2e1cf5509bb1caf>@@AAV<lambda_c4f131f91cb4ec00a5b0a26aa161b8b4>@@$$QAV<lambda_114dc79c86b00c313cb0b6b3b001aaf8>@@@Z 004ba010 f i libucrtd:output.obj
 0001:000b90c0       ??$?RV<lambda_80d7abc6eae2375db70be92ccaaf9b57>@@AAV<lambda_df52180bf14694d51fdefd82613e8f07>@@V<lambda_4fa1155033dff2042363dba4e2dc3802>@@@?$__crt_seh_guarded_call@H@@QAEH$$QAV<lambda_80d7abc6eae2375db70be92ccaaf9b57>@@AAV<lambda_df52180bf14694d51fdefd82613e8f07>@@$$QAV<lambda_4fa1155033dff2042363dba4e2dc3802>@@@Z 004ba0c0 f i libucrtd:output.obj
 0001:000b9170       ??$?RV<lambda_b4329732a1a72698597872ef534ad66d>@@AAV<lambda_96392db5b14a27f72535a2156da24b09>@@V<lambda_0f47277b42e3e84c3311fed419af0b3c>@@@?$__crt_seh_guarded_call@H@@QAEH$$QAV<lambda_b4329732a1a72698597872ef534ad66d>@@AAV<lambda_96392db5b14a27f72535a2156da24b09>@@$$QAV<lambda_0f47277b42e3e84c3311fed419af0b3c>@@@Z 004ba170 f i libucrtd:output.obj
 0001:000b9220       ??$?RV<lambda_b7f50223258ab9fcc98080d45d02b1a4>@@AAV<lambda_42506531d319a600ce771deb5a236a10>@@V<lambda_31f843250ba6188c6e1f35d2bec6db0e>@@@?$__crt_seh_guarded_call@H@@QAEH$$QAV<lambda_b7f50223258ab9fcc98080d45d02b1a4>@@AAV<lambda_42506531d319a600ce771deb5a236a10>@@$$QAV<lambda_31f843250ba6188c6e1f35d2bec6db0e>@@@Z 004ba220 f i libucrtd:output.obj
 0001:000b92d0       ??$?RV<lambda_cc35d49d909def412005bd38ddc96b77>@@AAV<lambda_d6a382b8dd98a6801a8abd6c28bdff2d>@@V<lambda_148068cfb9786d9714740654406e93d5>@@@?$__crt_seh_guarded_call@H@@QAEH$$QAV<lambda_cc35d49d909def412005bd38ddc96b77>@@AAV<lambda_d6a382b8dd98a6801a8abd6c28bdff2d>@@$$QAV<lambda_148068cfb9786d9714740654406e93d5>@@@Z 004ba2d0 f i libucrtd:output.obj
 0001:000b9380       ??$__acrt_lock_stream_and_call@V<lambda_42506531d319a600ce771deb5a236a10>@@@@YAHQAU_iobuf@@$$QAV<lambda_42506531d319a600ce771deb5a236a10>@@@Z 004ba380 f i libucrtd:output.obj
 0001:000b93c0       ??$__acrt_lock_stream_and_call@V<lambda_96392db5b14a27f72535a2156da24b09>@@@@YAHQAU_iobuf@@$$QAV<lambda_96392db5b14a27f72535a2156da24b09>@@@Z 004ba3c0 f i libucrtd:output.obj
 0001:000b9400       ??$__acrt_lock_stream_and_call@V<lambda_c4f131f91cb4ec00a5b0a26aa161b8b4>@@@@YAHQAU_iobuf@@$$QAV<lambda_c4f131f91cb4ec00a5b0a26aa161b8b4>@@@Z 004ba400 f i libucrtd:output.obj
 0001:000b9440       ??$__acrt_lock_stream_and_call@V<lambda_d6a382b8dd98a6801a8abd6c28bdff2d>@@@@YAHQAU_iobuf@@$$QAV<lambda_d6a382b8dd98a6801a8abd6c28bdff2d>@@@Z 004ba440 f i libucrtd:output.obj
 0001:000b9480       ??$__acrt_lock_stream_and_call@V<lambda_df52180bf14694d51fdefd82613e8f07>@@@@YAHQAU_iobuf@@$$QAV<lambda_df52180bf14694d51fdefd82613e8f07>@@@Z 004ba480 f i libucrtd:output.obj
 0001:000b94c0       ??$__acrt_lock_stream_and_call@V<lambda_e38011a3ba6e07c7dbcef4d549f26102>@@@@YAHQAU_iobuf@@$$QAV<lambda_e38011a3ba6e07c7dbcef4d549f26102>@@@Z 004ba4c0 f i libucrtd:output.obj
 0001:000b9500       ??$__crt_interlocked_read@J@@YAJPDJ@Z 004ba500 f i libucrtd:output.obj
 0001:000bcda0       ??$count@D@formatting_buffer@__crt_stdio_output@@QBEIXZ 004bdda0 f i libucrtd:output.obj
 0001:000bcdf0       ??$count@_W@formatting_buffer@__crt_stdio_output@@QBEIXZ 004bddf0 f i libucrtd:output.obj
 0001:000bce40       ??$data@D@formatting_buffer@__crt_stdio_output@@QAEPADXZ 004bde40 f i libucrtd:output.obj
 0001:000bce90       ??$data@_W@formatting_buffer@__crt_stdio_output@@QAEPA_WXZ 004bde90 f i libucrtd:output.obj
 0001:000bcee0       ??$ensure_buffer_is_big_enough@D@formatting_buffer@__crt_stdio_output@@QAE_NI@Z 004bdee0 f i libucrtd:output.obj
 0001:000bd000       ??$extract_argument_from_va_list@C_J@?$positional_parameter_base@DV?$stream_output_adapter@D@__crt_stdio_output@@@__crt_stdio_output@@IAE_NAA_J@Z 004be000 f i libucrtd:output.obj
 0001:000bd180       ??$extract_argument_from_va_list@C_J@?$positional_parameter_base@DV?$string_output_adapter@D@__crt_stdio_output@@@__crt_stdio_output@@IAE_NAA_J@Z 004be180 f i libucrtd:output.obj
 0001:000bd300       ??$extract_argument_from_va_list@C_J@?$positional_parameter_base@_WV?$stream_output_adapter@_W@__crt_stdio_output@@@__crt_stdio_output@@IAE_NAA_J@Z 004be300 f i libucrtd:output.obj
 0001:000bd480       ??$extract_argument_from_va_list@C_J@?$positional_parameter_base@_WV?$string_output_adapter@_W@__crt_stdio_output@@@__crt_stdio_output@@IAE_NAA_J@Z 004be480 f i libucrtd:output.obj
 0001:000bd600       ??$extract_argument_from_va_list@C_J@?$standard_base@DV?$stream_output_adapter@D@__crt_stdio_output@@@__crt_stdio_output@@IAE_NAA_J@Z 004be600 f i libucrtd:output.obj
 0001:000bd640       ??$extract_argument_from_va_list@C_J@?$standard_base@DV?$string_output_adapter@D@__crt_stdio_output@@@__crt_stdio_output@@IAE_NAA_J@Z 004be640 f i libucrtd:output.obj
 0001:000bd680       ??$extract_argument_from_va_list@C_J@?$standard_base@_WV?$stream_output_adapter@_W@__crt_stdio_output@@@__crt_stdio_output@@IAE_NAA_J@Z 004be680 f i libucrtd:output.obj
 0001:000bd6c0       ??$extract_argument_from_va_list@C_J@?$standard_base@_WV?$string_output_adapter@_W@__crt_stdio_output@@@__crt_stdio_output@@IAE_NAA_J@Z 004be6c0 f i libucrtd:output.obj
 0001:000bd700       ??$extract_argument_from_va_list@E_J@?$positional_parameter_base@DV?$stream_output_adapter@D@__crt_stdio_output@@@__crt_stdio_output@@IAE_NAA_J@Z 004be700 f i libucrtd:output.obj
 0001:000bd880       ??$extract_argument_from_va_list@E_J@?$positional_parameter_base@DV?$string_output_adapter@D@__crt_stdio_output@@@__crt_stdio_output@@IAE_NAA_J@Z 004be880 f i libucrtd:output.obj
 0001:000bda00       ??$extract_argument_from_va_list@E_J@?$positional_parameter_base@_WV?$stream_output_adapter@_W@__crt_stdio_output@@@__crt_stdio_output@@IAE_NAA_J@Z 004bea00 f i libucrtd:output.obj
 0001:000bdb80       ??$extract_argument_from_va_list@E_J@?$positional_parameter_base@_WV?$string_output_adapter@_W@__crt_stdio_output@@@__crt_stdio_output@@IAE_NAA_J@Z 004beb80 f i libucrtd:output.obj
 0001:000bdd00       ??$extract_argument_from_va_list@E_J@?$standard_base@DV?$stream_output_adapter@D@__crt_stdio_output@@@__crt_stdio_output@@IAE_NAA_J@Z 004bed00 f i libucrtd:output.obj
 0001:000bdd40       ??$extract_argument_from_va_list@E_J@?$standard_base@DV?$string_output_adapter@D@__crt_stdio_output@@@__crt_stdio_output@@IAE_NAA_J@Z 004bed40 f i libucrtd:output.obj
 0001:000bdd80       ??$extract_argument_from_va_list@E_J@?$standard_base@_WV?$stream_output_adapter@_W@__crt_stdio_output@@@__crt_stdio_output@@IAE_NAA_J@Z 004bed80 f i libucrtd:output.obj
 0001:000bddc0       ??$extract_argument_from_va_list@E_J@?$standard_base@_WV?$string_output_adapter@_W@__crt_stdio_output@@@__crt_stdio_output@@IAE_NAA_J@Z 004bedc0 f i libucrtd:output.obj
 0001:000bde00       ??$extract_argument_from_va_list@F_J@?$positional_parameter_base@DV?$stream_output_adapter@D@__crt_stdio_output@@@__crt_stdio_output@@IAE_NAA_J@Z 004bee00 f i libucrtd:output.obj
 0001:000bdf80       ??$extract_argument_from_va_list@F_J@?$positional_parameter_base@DV?$string_output_adapter@D@__crt_stdio_output@@@__crt_stdio_output@@IAE_NAA_J@Z 004bef80 f i libucrtd:output.obj
 0001:000be100       ??$extract_argument_from_va_list@F_J@?$positional_parameter_base@_WV?$stream_output_adapter@_W@__crt_stdio_output@@@__crt_stdio_output@@IAE_NAA_J@Z 004bf100 f i libucrtd:output.obj
 0001:000be280       ??$extract_argument_from_va_list@F_J@?$positional_parameter_base@_WV?$string_output_adapter@_W@__crt_stdio_output@@@__crt_stdio_output@@IAE_NAA_J@Z 004bf280 f i libucrtd:output.obj
 0001:000be400       ??$extract_argument_from_va_list@F_J@?$standard_base@DV?$stream_output_adapter@D@__crt_stdio_output@@@__crt_stdio_output@@IAE_NAA_J@Z 004bf400 f i libucrtd:output.obj
 0001:000be440       ??$extract_argument_from_va_list@F_J@?$standard_base@DV?$string_output_adapter@D@__crt_stdio_output@@@__crt_stdio_output@@IAE_NAA_J@Z 004bf440 f i libucrtd:output.obj
 0001:000be480       ??$extract_argument_from_va_list@F_J@?$standard_base@_WV?$stream_output_adapter@_W@__crt_stdio_output@@@__crt_stdio_output@@IAE_NAA_J@Z 004bf480 f i libucrtd:output.obj
 0001:000be4c0       ??$extract_argument_from_va_list@F_J@?$standard_base@_WV?$string_output_adapter@_W@__crt_stdio_output@@@__crt_stdio_output@@IAE_NAA_J@Z 004bf4c0 f i libucrtd:output.obj
 0001:000be500       ??$extract_argument_from_va_list@GD@?$positional_parameter_base@DV?$stream_output_adapter@D@__crt_stdio_output@@@__crt_stdio_output@@IAE_NAAD@Z 004bf500 f i libucrtd:output.obj
 0001:000be680       ??$extract_argument_from_va_list@GD@?$positional_parameter_base@DV?$string_output_adapter@D@__crt_stdio_output@@@__crt_stdio_output@@IAE_NAAD@Z 004bf680 f i libucrtd:output.obj
 0001:000be800       ??$extract_argument_from_va_list@GD@?$standard_base@DV?$stream_output_adapter@D@__crt_stdio_output@@@__crt_stdio_output@@IAE_NAAD@Z 004bf800 f i libucrtd:output.obj
 0001:000be830       ??$extract_argument_from_va_list@GD@?$standard_base@DV?$string_output_adapter@D@__crt_stdio_output@@@__crt_stdio_output@@IAE_NAAD@Z 004bf830 f i libucrtd:output.obj
 0001:000be860       ??$extract_argument_from_va_list@G_J@?$positional_parameter_base@DV?$stream_output_adapter@D@__crt_stdio_output@@@__crt_stdio_output@@IAE_NAA_J@Z 004bf860 f i libucrtd:output.obj
 0001:000be9e0       ??$extract_argument_from_va_list@G_J@?$positional_parameter_base@DV?$string_output_adapter@D@__crt_stdio_output@@@__crt_stdio_output@@IAE_NAA_J@Z 004bf9e0 f i libucrtd:output.obj
 0001:000beb60       ??$extract_argument_from_va_list@G_J@?$positional_parameter_base@_WV?$stream_output_adapter@_W@__crt_stdio_output@@@__crt_stdio_output@@IAE_NAA_J@Z 004bfb60 f i libucrtd:output.obj
 0001:000bece0       ??$extract_argument_from_va_list@G_J@?$positional_parameter_base@_WV?$string_output_adapter@_W@__crt_stdio_output@@@__crt_stdio_output@@IAE_NAA_J@Z 004bfce0 f i libucrtd:output.obj
 0001:000bee60       ??$extract_argument_from_va_list@G_J@?$standard_base@DV?$stream_output_adapter@D@__crt_stdio_output@@@__crt_stdio_output@@IAE_NAA_J@Z 004bfe60 f i libucrtd:output.obj
 0001:000beea0       ??$extract_argument_from_va_list@G_J@?$standard_base@DV?$string_output_adapter@D@__crt_stdio_output@@@__crt_stdio_output@@IAE_NAA_J@Z 004bfea0 f i libucrtd:output.obj
 0001:000beee0       ??$extract_argument_from_va_list@G_J@?$standard_base@_WV?$stream_output_adapter@_W@__crt_stdio_output@@@__crt_stdio_output@@IAE_NAA_J@Z 004bfee0 f i libucrtd:output.obj
 0001:000bef20       ??$extract_argument_from_va_list@G_J@?$standard_base@_WV?$string_output_adapter@_W@__crt_stdio_output@@@__crt_stdio_output@@IAE_NAA_J@Z 004bff20 f i libucrtd:output.obj
 0001:000bef60       ??$extract_argument_from_va_list@H_J@?$positional_parameter_base@DV?$stream_output_adapter@D@__crt_stdio_output@@@__crt_stdio_output@@IAE_NAA_J@Z 004bff60 f i libucrtd:output.obj
 0001:000bf0e0       ??$extract_argument_from_va_list@H_J@?$positional_parameter_base@DV?$string_output_adapter@D@__crt_stdio_output@@@__crt_stdio_output@@IAE_NAA_J@Z 004c00e0 f i libucrtd:output.obj
 0001:000bf260       ??$extract_argument_from_va_list@H_J@?$positional_parameter_base@_WV?$stream_output_adapter@_W@__crt_stdio_output@@@__crt_stdio_output@@IAE_NAA_J@Z 004c0260 f i libucrtd:output.obj
 0001:000bf3e0       ??$extract_argument_from_va_list@H_J@?$positional_parameter_base@_WV?$string_output_adapter@_W@__crt_stdio_output@@@__crt_stdio_output@@IAE_NAA_J@Z 004c03e0 f i libucrtd:output.obj
 0001:000bf560       ??$extract_argument_from_va_list@H_J@?$standard_base@DV?$stream_output_adapter@D@__crt_stdio_output@@@__crt_stdio_output@@IAE_NAA_J@Z 004c0560 f i libucrtd:output.obj
 0001:000bf5a0       ??$extract_argument_from_va_list@H_J@?$standard_base@DV?$string_output_adapter@D@__crt_stdio_output@@@__crt_stdio_output@@IAE_NAA_J@Z 004c05a0 f i libucrtd:output.obj
 0001:000bf5e0       ??$extract_argument_from_va_list@H_J@?$standard_base@_WV?$stream_output_adapter@_W@__crt_stdio_output@@@__crt_stdio_output@@IAE_NAA_J@Z 004c05e0 f i libucrtd:output.obj
 0001:000bf620       ??$extract_argument_from_va_list@H_J@?$standard_base@_WV?$string_output_adapter@_W@__crt_stdio_output@@@__crt_stdio_output@@IAE_NAA_J@Z 004c0620 f i libucrtd:output.obj
 0001:000bf660       ??$extract_argument_from_va_list@I_J@?$positional_parameter_base@DV?$stream_output_adapter@D@__crt_stdio_output@@@__crt_stdio_output@@IAE_NAA_J@Z 004c0660 f i libucrtd:output.obj
 0001:000bf7e0       ??$extract_argument_from_va_list@I_J@?$positional_parameter_base@DV?$string_output_adapter@D@__crt_stdio_output@@@__crt_stdio_output@@IAE_NAA_J@Z 004c07e0 f i libucrtd:output.obj
 0001:000bf960       ??$extract_argument_from_va_list@I_J@?$positional_parameter_base@_WV?$stream_output_adapter@_W@__crt_stdio_output@@@__crt_stdio_output@@IAE_NAA_J@Z 004c0960 f i libucrtd:output.obj
 0001:000bfae0       ??$extract_argument_from_va_list@I_J@?$positional_parameter_base@_WV?$string_output_adapter@_W@__crt_stdio_output@@@__crt_stdio_output@@IAE_NAA_J@Z 004c0ae0 f i libucrtd:output.obj
 0001:000bfc60       ??$extract_argument_from_va_list@I_J@?$standard_base@DV?$stream_output_adapter@D@__crt_stdio_output@@@__crt_stdio_output@@IAE_NAA_J@Z 004c0c60 f i libucrtd:output.obj
 0001:000bfca0       ??$extract_argument_from_va_list@I_J@?$standard_base@DV?$string_output_adapter@D@__crt_stdio_output@@@__crt_stdio_output@@IAE_NAA_J@Z 004c0ca0 f i libucrtd:output.obj
 0001:000bfce0       ??$extract_argument_from_va_list@I_J@?$standard_base@_WV?$stream_output_adapter@_W@__crt_stdio_output@@@__crt_stdio_output@@IAE_NAA_J@Z 004c0ce0 f i libucrtd:output.obj
 0001:000bfd20       ??$extract_argument_from_va_list@I_J@?$standard_base@_WV?$string_output_adapter@_W@__crt_stdio_output@@@__crt_stdio_output@@IAE_NAA_J@Z 004c0d20 f i libucrtd:output.obj
 0001:000bfd60       ??$extract_argument_from_va_list@PADPAD@?$positional_parameter_base@DV?$stream_output_adapter@D@__crt_stdio_output@@@__crt_stdio_output@@IAE_NAAPAD@Z 004c0d60 f i libucrtd:output.obj
 0001:000bfee0       ??$extract_argument_from_va_list@PADPAD@?$positional_parameter_base@DV?$string_output_adapter@D@__crt_stdio_output@@@__crt_stdio_output@@IAE_NAAPAD@Z 004c0ee0 f i libucrtd:output.obj
 0001:000c0060       ??$extract_argument_from_va_list@PADPAD@?$positional_parameter_base@_WV?$stream_output_adapter@_W@__crt_stdio_output@@@__crt_stdio_output@@IAE_NAAPAD@Z 004c1060 f i libucrtd:output.obj
 0001:000c01e0       ??$extract_argument_from_va_list@PADPAD@?$positional_parameter_base@_WV?$string_output_adapter@_W@__crt_stdio_output@@@__crt_stdio_output@@IAE_NAAPAD@Z 004c11e0 f i libucrtd:output.obj
